
controlBoard.elf:     file format elf32-avr

Sections:
Idx Name          Size      VMA       LMA       File off  Algn
  0 .text         0000372a  00000000  00000000  00000094  2**1
                  CONTENTS, ALLOC, LOAD, READONLY, CODE
  1 .data         00000010  00800060  0000372a  000037be  2**0
                  CONTENTS, ALLOC, LOAD, DATA
  2 .bss          00000161  00800070  00800070  000037ce  2**0
                  ALLOC
  3 .stab         00000d44  00000000  00000000  000037d0  2**2
                  CONTENTS, READONLY, DEBUGGING
  4 .stabstr      000002e0  00000000  00000000  00004514  2**0
                  CONTENTS, READONLY, DEBUGGING
  5 .comment      0000002f  00000000  00000000  000047f4  2**0
                  CONTENTS, READONLY
  6 .debug_aranges 00000330  00000000  00000000  00004823  2**0
                  CONTENTS, READONLY, DEBUGGING
  7 .debug_info   00006456  00000000  00000000  00004b53  2**0
                  CONTENTS, READONLY, DEBUGGING
  8 .debug_abbrev 0000164d  00000000  00000000  0000afa9  2**0
                  CONTENTS, READONLY, DEBUGGING
  9 .debug_line   00001d33  00000000  00000000  0000c5f6  2**0
                  CONTENTS, READONLY, DEBUGGING
 10 .debug_frame  00000828  00000000  00000000  0000e32c  2**2
                  CONTENTS, READONLY, DEBUGGING
 11 .debug_str    00000b74  00000000  00000000  0000eb54  2**0
                  CONTENTS, READONLY, DEBUGGING
 12 .debug_loc    00001e6d  00000000  00000000  0000f6c8  2**0
                  CONTENTS, READONLY, DEBUGGING
 13 .debug_ranges 00000260  00000000  00000000  00011535  2**0
                  CONTENTS, READONLY, DEBUGGING

Disassembly of section .text:

00000000 <__vectors>:
uint16_t adc_read (uint8_t mux)
{

	uint16_t result=0;
	uint8_t e=0;
	ADMUX &= ~(15<<0);
       0:	0c 94 64 00 	jmp	0xc8	; 0xc8 <_StackPaint>
       4:	0c 94 05 14 	jmp	0x280a	; 0x280a <__vector_1>
	ADMUX |= mux;
       8:	0c 94 23 14 	jmp	0x2846	; 0x2846 <__vector_2>
	//ADMUX |=(1<<ADLAR);
	ADCSRA |= (1<<ADEN) | (1<<ADSC) | (1<<ADPS2)| (1<<ADPS0);
       c:	0c 94 3c 14 	jmp	0x2878	; 0x2878 <__vector_3>
      10:	0c 94 98 00 	jmp	0x130	; 0x130 <__bad_interrupt>

	while (ADCSRA & (1<<ADSC))
      14:	0c 94 98 00 	jmp	0x130	; 0x130 <__bad_interrupt>
      18:	0c 94 98 00 	jmp	0x130	; 0x130 <__bad_interrupt>
	{
	}
	for (e=0; e<4; e++)
	{
		ADCSRA |=  (1<<ADSC);
      1c:	0c 94 98 00 	jmp	0x130	; 0x130 <__bad_interrupt>
		while (ADCSRA & (1<<ADSC))
      20:	0c 94 98 00 	jmp	0x130	; 0x130 <__bad_interrupt>
		{
		}
		result+=ADCW;
      24:	0c 94 98 00 	jmp	0x130	; 0x130 <__bad_interrupt>
      28:	0c 94 5a 13 	jmp	0x26b4	; 0x26b4 <__vector_10>
	ADCSRA |= (1<<ADEN) | (1<<ADSC) | (1<<ADPS2)| (1<<ADPS0);

	while (ADCSRA & (1<<ADSC))
	{
	}
	for (e=0; e<4; e++)
      2c:	0c 94 98 00 	jmp	0x130	; 0x130 <__bad_interrupt>
		{
		}
		result+=ADCW;
	}
	
	result=(result/4);
      30:	0c 94 98 00 	jmp	0x130	; 0x130 <__bad_interrupt>
      34:	0c 94 47 1a 	jmp	0x348e	; 0x348e <__vector_13>
      38:	0c 94 98 00 	jmp	0x130	; 0x130 <__bad_interrupt>
	
	ADCSRA &= ~(1<<ADEN);
	return result;
      3c:	0c 94 98 00 	jmp	0x130	; 0x130 <__bad_interrupt>
      40:	0c 94 98 00 	jmp	0x130	; 0x130 <__bad_interrupt>
      44:	0c 94 98 00 	jmp	0x130	; 0x130 <__bad_interrupt>
      48:	0c 94 98 00 	jmp	0x130	; 0x130 <__bad_interrupt>
      4c:	0c 94 fe 10 	jmp	0x21fc	; 0x21fc <__vector_19>
      50:	0c 94 98 00 	jmp	0x130	; 0x130 <__bad_interrupt>
      54:	e1 15       	cp	r30, r1
      56:	ee 15       	cp	r30, r14
      58:	fb 15       	cp	r31, r11
      5a:	08 16       	cp	r0, r24
      5c:	15 16       	cp	r1, r21
      5e:	1f 16       	cp	r1, r31
      60:	29 16       	cp	r2, r25
      62:	33 16       	cp	r3, r19
      64:	fd 16       	cp	r15, r29
      66:	fd 16       	cp	r15, r29
      68:	3d 16       	cp	r3, r29
      6a:	5e 16       	cp	r5, r30
      6c:	7f 16       	cp	r7, r31
      6e:	9c 16       	cp	r9, r28
      70:	fd 16       	cp	r15, r29
      72:	fd 16       	cp	r15, r29
      74:	fd 16       	cp	r15, r29
      76:	fd 16       	cp	r15, r29
      78:	fd 16       	cp	r15, r29
      7a:	fd 16       	cp	r15, r29
      7c:	fd 16       	cp	r15, r29
      7e:	fd 16       	cp	r15, r29
      80:	fd 16       	cp	r15, r29
      82:	bd 16       	cp	r11, r29
      84:	fd 16       	cp	r15, r29
      86:	dd 16       	cp	r13, r29
      88:	fd 16       	cp	r15, r29
      8a:	fd 16       	cp	r15, r29
      8c:	fd 16       	cp	r15, r29
      8e:	fd 16       	cp	r15, r29
      90:	fd 16       	cp	r15, r29
      92:	fd 16       	cp	r15, r29
      94:	89 14       	cp	r8, r9
      96:	9a 14       	cp	r9, r10
      98:	ab 14       	cp	r10, r11
      9a:	bc 14       	cp	r11, r12
      9c:	c9 14       	cp	r12, r9
      9e:	da 14       	cp	r13, r10
      a0:	eb 14       	cp	r14, r11
      a2:	fc 14       	cp	r15, r12
      a4:	09 15       	cp	r16, r9
      a6:	1a 15       	cp	r17, r10
      a8:	2b 15       	cp	r18, r11
      aa:	3c 15       	cp	r19, r12
      ac:	49 15       	cp	r20, r9
      ae:	56 15       	cp	r21, r6
      b0:	61 15       	cp	r22, r1
      b2:	6c 15       	cp	r22, r12
      b4:	77 15       	cp	r23, r7
      b6:	7a 15       	cp	r23, r10
      b8:	8b 15       	cp	r24, r11
      ba:	a3 15       	cp	r26, r3
      bc:	aa 15       	cp	r26, r10
      be:	b5 15       	cp	r27, r5
      c0:	c0 15       	cp	r28, r0
      c2:	cb 15       	cp	r28, r11
      c4:	d6 15       	cp	r29, r6
      c6:	01 17       	cp	r16, r17

000000c8 <_StackPaint>:
 *  the maximum stack usage of the running application.
 */
void _StackPaint(void) __attribute__((naked)) __attribute__((optimize("O3"))) __attribute__((section (".init1")));
void _StackPaint(void)
{
	uint32_t* fill_start = (uint32_t*)__ALIGN32_UPWARDS(&_end);
      c8:	e1 ed       	ldi	r30, 0xD1	; 209
      ca:	f1 e0       	ldi	r31, 0x01	; 1
      cc:	e3 70       	andi	r30, 0x03	; 3
      ce:	ff 27       	eor	r31, r31
      d0:	ef 52       	subi	r30, 0x2F	; 47
      d2:	fe 4f       	sbci	r31, 0xFE	; 254
	uint32_t* fill_end   = (uint32_t*)__ALIGN32_DOWNWARDS(&__stack);
      d4:	2f e5       	ldi	r18, 0x5F	; 95
      d6:	38 e0       	ldi	r19, 0x08	; 8
      d8:	2c 7f       	andi	r18, 0xFC	; 252
	
	for (uint32_t* fill_pos = fill_start; fill_pos < fill_end; fill_pos++)
      da:	e2 17       	cp	r30, r18
      dc:	f3 07       	cpc	r31, r19
      de:	58 f4       	brcc	.+22     	; 0xf6 <_StackPaint+0x2e>
		*fill_pos = __SWAP_ENDIAN32(0xDEADBEEF);
      e0:	8e ed       	ldi	r24, 0xDE	; 222
      e2:	9d ea       	ldi	r25, 0xAD	; 173
      e4:	ae eb       	ldi	r26, 0xBE	; 190
      e6:	bf ee       	ldi	r27, 0xEF	; 239
      e8:	81 93       	st	Z+, r24
      ea:	91 93       	st	Z+, r25
      ec:	a1 93       	st	Z+, r26
      ee:	b1 93       	st	Z+, r27
void _StackPaint(void)
{
	uint32_t* fill_start = (uint32_t*)__ALIGN32_UPWARDS(&_end);
	uint32_t* fill_end   = (uint32_t*)__ALIGN32_DOWNWARDS(&__stack);
	
	for (uint32_t* fill_pos = fill_start; fill_pos < fill_end; fill_pos++)
      f0:	e2 17       	cp	r30, r18
      f2:	f3 07       	cpc	r31, r19
      f4:	c8 f3       	brcs	.-14     	; 0xe8 <_StackPaint+0x20>
      f6:	11 24       	eor	r1, r1
      f8:	1f be       	out	0x3f, r1	; 63
      fa:	cf e5       	ldi	r28, 0x5F	; 95
      fc:	d8 e0       	ldi	r29, 0x08	; 8
      fe:	de bf       	out	0x3e, r29	; 62
     100:	cd bf       	out	0x3d, r28	; 61

00000102 <__do_copy_data>:
     102:	10 e0       	ldi	r17, 0x00	; 0
     104:	a0 e6       	ldi	r26, 0x60	; 96
     106:	b0 e0       	ldi	r27, 0x00	; 0
     108:	ea e2       	ldi	r30, 0x2A	; 42
     10a:	f7 e3       	ldi	r31, 0x37	; 55
     10c:	02 c0       	rjmp	.+4      	; 0x112 <__do_copy_data+0x10>
     10e:	05 90       	lpm	r0, Z+
     110:	0d 92       	st	X+, r0
     112:	a0 37       	cpi	r26, 0x70	; 112
     114:	b1 07       	cpc	r27, r17
     116:	d9 f7       	brne	.-10     	; 0x10e <__do_copy_data+0xc>

00000118 <__do_clear_bss>:
     118:	21 e0       	ldi	r18, 0x01	; 1
     11a:	a0 e7       	ldi	r26, 0x70	; 112
     11c:	b0 e0       	ldi	r27, 0x00	; 0
     11e:	01 c0       	rjmp	.+2      	; 0x122 <.do_clear_bss_start>

00000120 <.do_clear_bss_loop>:
     120:	1d 92       	st	X+, r1

00000122 <.do_clear_bss_start>:
     122:	a1 3d       	cpi	r26, 0xD1	; 209
     124:	b2 07       	cpc	r27, r18
     126:	e1 f7       	brne	.-8      	; 0x120 <.do_clear_bss_loop>
     128:	0e 94 a0 07 	call	0xf40	; 0xf40 <main>
     12c:	0c 94 93 1b 	jmp	0x3726	; 0x3726 <_exit>

00000130 <__bad_interrupt>:
     130:	0c 94 00 00 	jmp	0	; 0x0 <__vectors>

00000134 <set_program>:


#include "include/atm_programs.h"

void set_program(program* Program,uint16_t min,uint16_t max,int16_t step,uint16_t duration)
{
     134:	0f 93       	push	r16
     136:	1f 93       	push	r17
     138:	fc 01       	movw	r30, r24
	Program->min=min;
     13a:	71 83       	std	Z+1, r23	; 0x01
     13c:	60 83       	st	Z, r22
	Program->max=max;
     13e:	53 83       	std	Z+3, r21	; 0x03
     140:	42 83       	std	Z+2, r20	; 0x02
	Program->step=step;
     142:	35 83       	std	Z+5, r19	; 0x05
     144:	24 83       	std	Z+4, r18	; 0x04
	Program->active=1;
     146:	81 e0       	ldi	r24, 0x01	; 1
     148:	86 83       	std	Z+6, r24	; 0x06
	Program->up=0;
     14a:	17 82       	std	Z+7, r1	; 0x07
	Program->down=1;
     14c:	80 87       	std	Z+8, r24	; 0x08
	Program->init=1;
     14e:	81 87       	std	Z+9, r24	; 0x09
	Program->duration=duration;
     150:	13 87       	std	Z+11, r17	; 0x0b
     152:	02 87       	std	Z+10, r16	; 0x0a
	Program->timer=duration;
     154:	15 87       	std	Z+13, r17	; 0x0d
     156:	04 87       	std	Z+12, r16	; 0x0c
}
     158:	1f 91       	pop	r17
     15a:	0f 91       	pop	r16
     15c:	08 95       	ret

0000015e <stop_and_reset_program>:
void stop_and_reset_program(program* Program)
{
     15e:	fc 01       	movw	r30, r24
	Program->min=0;
     160:	11 82       	std	Z+1, r1	; 0x01
     162:	10 82       	st	Z, r1
	Program->max=0;
     164:	13 82       	std	Z+3, r1	; 0x03
     166:	12 82       	std	Z+2, r1	; 0x02
	Program->step=0;
     168:	15 82       	std	Z+5, r1	; 0x05
     16a:	14 82       	std	Z+4, r1	; 0x04
	Program->active=0;
     16c:	16 82       	std	Z+6, r1	; 0x06
	Program->up=0;
     16e:	17 82       	std	Z+7, r1	; 0x07
	Program->down=0;
     170:	10 86       	std	Z+8, r1	; 0x08
	Program->init=0;
     172:	11 86       	std	Z+9, r1	; 0x09
	Program->duration=0;
     174:	13 86       	std	Z+11, r1	; 0x0b
     176:	12 86       	std	Z+10, r1	; 0x0a
	Program->timer=0;
     178:	15 86       	std	Z+13, r1	; 0x0d
     17a:	14 86       	std	Z+12, r1	; 0x0c
     17c:	08 95       	ret

0000017e <exec_program>:
}

uint8_t exec_program (program* Program, PID_values* pidValues)
{
     17e:	0f 93       	push	r16
     180:	1f 93       	push	r17
     182:	cf 93       	push	r28
     184:	df 93       	push	r29
     186:	cd b7       	in	r28, 0x3d	; 61
     188:	de b7       	in	r29, 0x3e	; 62
     18a:	2a 97       	sbiw	r28, 0x0a	; 10
     18c:	0f b6       	in	r0, 0x3f	; 63
     18e:	f8 94       	cli
     190:	de bf       	out	0x3e, r29	; 62
     192:	0f be       	out	0x3f, r0	; 63
     194:	cd bf       	out	0x3d, r28	; 61
     196:	8c 01       	movw	r16, r24
     198:	fb 01       	movw	r30, r22
	if (Program->init)
     19a:	dc 01       	movw	r26, r24
     19c:	19 96       	adiw	r26, 0x09	; 9
     19e:	8c 91       	ld	r24, X
     1a0:	19 97       	sbiw	r26, 0x09	; 9
     1a2:	88 23       	and	r24, r24
     1a4:	41 f0       	breq	.+16     	; 0x1b6 <exec_program+0x38>
	{
		pidValues->setValue=Program->max;
     1a6:	12 96       	adiw	r26, 0x02	; 2
     1a8:	8d 91       	ld	r24, X+
     1aa:	9c 91       	ld	r25, X
     1ac:	13 97       	sbiw	r26, 0x03	; 3
     1ae:	90 8b       	std	Z+16, r25	; 0x10
     1b0:	87 87       	std	Z+15, r24	; 0x0f
		Program->init=0;
     1b2:	19 96       	adiw	r26, 0x09	; 9
     1b4:	1c 92       	st	X, r1
	}

	Program->timer--;
     1b6:	d8 01       	movw	r26, r16
     1b8:	1c 96       	adiw	r26, 0x0c	; 12
     1ba:	8d 91       	ld	r24, X+
     1bc:	9c 91       	ld	r25, X
     1be:	1d 97       	sbiw	r26, 0x0d	; 13
     1c0:	01 97       	sbiw	r24, 0x01	; 1
     1c2:	1d 96       	adiw	r26, 0x0d	; 13
     1c4:	9c 93       	st	X, r25
     1c6:	8e 93       	st	-X, r24
     1c8:	1c 97       	sbiw	r26, 0x0c	; 12

	if (!Program->timer)
     1ca:	89 2b       	or	r24, r25
     1cc:	09 f0       	breq	.+2      	; 0x1d0 <exec_program+0x52>
     1ce:	77 c0       	rjmp	.+238    	; 0x2be <exec_program+0x140>
	{
		if (Program->down)
     1d0:	18 96       	adiw	r26, 0x08	; 8
     1d2:	4c 91       	ld	r20, X
     1d4:	18 97       	sbiw	r26, 0x08	; 8
     1d6:	27 85       	ldd	r18, Z+15	; 0x0f
     1d8:	30 89       	ldd	r19, Z+16	; 0x10
     1da:	14 96       	adiw	r26, 0x04	; 4
     1dc:	8d 91       	ld	r24, X+
     1de:	9c 91       	ld	r25, X
     1e0:	15 97       	sbiw	r26, 0x05	; 5
     1e2:	44 23       	and	r20, r20
     1e4:	29 f0       	breq	.+10     	; 0x1f0 <exec_program+0x72>
		{
			pidValues->setValue=pidValues->setValue-Program->step;
     1e6:	28 1b       	sub	r18, r24
     1e8:	39 0b       	sbc	r19, r25
     1ea:	30 8b       	std	Z+16, r19	; 0x10
     1ec:	27 87       	std	Z+15, r18	; 0x0f
     1ee:	04 c0       	rjmp	.+8      	; 0x1f8 <exec_program+0x7a>
		}
		else
		{
			pidValues->setValue=pidValues->setValue+Program->step;
     1f0:	82 0f       	add	r24, r18
     1f2:	93 1f       	adc	r25, r19
     1f4:	90 8b       	std	Z+16, r25	; 0x10
     1f6:	87 87       	std	Z+15, r24	; 0x0f
		}
		
		if (pidValues->setValue<=Program->min)
     1f8:	27 85       	ldd	r18, Z+15	; 0x0f
     1fa:	30 89       	ldd	r19, Z+16	; 0x10
     1fc:	d8 01       	movw	r26, r16
     1fe:	8d 91       	ld	r24, X+
     200:	9c 91       	ld	r25, X
     202:	11 97       	sbiw	r26, 0x01	; 1
     204:	82 17       	cp	r24, r18
     206:	93 07       	cpc	r25, r19
     208:	30 f0       	brcs	.+12     	; 0x216 <exec_program+0x98>
		{
			Program->up=1;
     20a:	81 e0       	ldi	r24, 0x01	; 1
     20c:	17 96       	adiw	r26, 0x07	; 7
     20e:	8c 93       	st	X, r24
     210:	17 97       	sbiw	r26, 0x07	; 7
			Program->down=0;
     212:	18 96       	adiw	r26, 0x08	; 8
     214:	1c 92       	st	X, r1
		}
		if (pidValues->setValue>=Program->max)
     216:	27 85       	ldd	r18, Z+15	; 0x0f
     218:	30 89       	ldd	r19, Z+16	; 0x10
     21a:	d8 01       	movw	r26, r16
     21c:	12 96       	adiw	r26, 0x02	; 2
     21e:	8d 91       	ld	r24, X+
     220:	9c 91       	ld	r25, X
     222:	13 97       	sbiw	r26, 0x03	; 3
     224:	28 17       	cp	r18, r24
     226:	39 07       	cpc	r19, r25
     228:	30 f0       	brcs	.+12     	; 0x236 <exec_program+0xb8>
		{
			Program->up=0;
     22a:	17 96       	adiw	r26, 0x07	; 7
     22c:	1c 92       	st	X, r1
     22e:	17 97       	sbiw	r26, 0x07	; 7
			Program->down=1;
     230:	81 e0       	ldi	r24, 0x01	; 1
     232:	18 96       	adiw	r26, 0x08	; 8
     234:	8c 93       	st	X, r24
		}
		Program->timer=Program->duration;
     236:	d8 01       	movw	r26, r16
     238:	1a 96       	adiw	r26, 0x0a	; 10
     23a:	8d 91       	ld	r24, X+
     23c:	9c 91       	ld	r25, X
     23e:	1b 97       	sbiw	r26, 0x0b	; 11
     240:	1d 96       	adiw	r26, 0x0d	; 13
     242:	9c 93       	st	X, r25
     244:	8e 93       	st	-X, r24
     246:	1c 97       	sbiw	r26, 0x0c	; 12

		char cDebug[10];
		ltoa(pidValues->setValue,cDebug,10);
     248:	67 85       	ldd	r22, Z+15	; 0x0f
     24a:	70 89       	ldd	r23, Z+16	; 0x10
     24c:	88 27       	eor	r24, r24
     24e:	77 fd       	sbrc	r23, 7
     250:	80 95       	com	r24
     252:	98 2f       	mov	r25, r24
     254:	2a e0       	ldi	r18, 0x0A	; 10
     256:	30 e0       	ldi	r19, 0x00	; 0
     258:	ae 01       	movw	r20, r28
     25a:	4f 5f       	subi	r20, 0xFF	; 255
     25c:	5f 4f       	sbci	r21, 0xFF	; 255
     25e:	0e 94 3a 1b 	call	0x3674	; 0x3674 <ltoa>
		uart_put_s(cDebug);
     262:	ce 01       	movw	r24, r28
     264:	01 96       	adiw	r24, 0x01	; 1
     266:	0e 94 3b 1a 	call	0x3476	; 0x3476 <uart_put_s>
		
		uart_put_c(';');
     26a:	8b e3       	ldi	r24, 0x3B	; 59
     26c:	0e 94 37 1a 	call	0x346e	; 0x346e <uart_put_c>
		
		ltoa(Program->up,cDebug,10);
     270:	f8 01       	movw	r30, r16
     272:	67 81       	ldd	r22, Z+7	; 0x07
     274:	70 e0       	ldi	r23, 0x00	; 0
     276:	80 e0       	ldi	r24, 0x00	; 0
     278:	90 e0       	ldi	r25, 0x00	; 0
     27a:	2a e0       	ldi	r18, 0x0A	; 10
     27c:	30 e0       	ldi	r19, 0x00	; 0
     27e:	ae 01       	movw	r20, r28
     280:	4f 5f       	subi	r20, 0xFF	; 255
     282:	5f 4f       	sbci	r21, 0xFF	; 255
     284:	0e 94 3a 1b 	call	0x3674	; 0x3674 <ltoa>
		uart_put_s(cDebug);
     288:	ce 01       	movw	r24, r28
     28a:	01 96       	adiw	r24, 0x01	; 1
     28c:	0e 94 3b 1a 	call	0x3476	; 0x3476 <uart_put_s>
		
		uart_put_c(';');
     290:	8b e3       	ldi	r24, 0x3B	; 59
     292:	0e 94 37 1a 	call	0x346e	; 0x346e <uart_put_c>
		
		ltoa(Program->down,cDebug,10);
     296:	d8 01       	movw	r26, r16
     298:	18 96       	adiw	r26, 0x08	; 8
     29a:	6c 91       	ld	r22, X
     29c:	70 e0       	ldi	r23, 0x00	; 0
     29e:	80 e0       	ldi	r24, 0x00	; 0
     2a0:	90 e0       	ldi	r25, 0x00	; 0
     2a2:	2a e0       	ldi	r18, 0x0A	; 10
     2a4:	30 e0       	ldi	r19, 0x00	; 0
     2a6:	ae 01       	movw	r20, r28
     2a8:	4f 5f       	subi	r20, 0xFF	; 255
     2aa:	5f 4f       	sbci	r21, 0xFF	; 255
     2ac:	0e 94 3a 1b 	call	0x3674	; 0x3674 <ltoa>
		uart_put_s(cDebug);
     2b0:	ce 01       	movw	r24, r28
     2b2:	01 96       	adiw	r24, 0x01	; 1
     2b4:	0e 94 3b 1a 	call	0x3476	; 0x3476 <uart_put_s>
		
		uart_put_c('\n');
     2b8:	8a e0       	ldi	r24, 0x0A	; 10
     2ba:	0e 94 37 1a 	call	0x346e	; 0x346e <uart_put_c>
	}
	return 1;
     2be:	81 e0       	ldi	r24, 0x01	; 1
     2c0:	2a 96       	adiw	r28, 0x0a	; 10
     2c2:	0f b6       	in	r0, 0x3f	; 63
     2c4:	f8 94       	cli
     2c6:	de bf       	out	0x3e, r29	; 62
     2c8:	0f be       	out	0x3f, r0	; 63
     2ca:	cd bf       	out	0x3d, r28	; 61
     2cc:	df 91       	pop	r29
     2ce:	cf 91       	pop	r28
     2d0:	1f 91       	pop	r17
     2d2:	0f 91       	pop	r16
     2d4:	08 95       	ret

000002d6 <calculate_means>:

#include "include/calculate_means.h"


uint8_t calculate_means(volatile sensValues* values)
{
     2d6:	0f 93       	push	r16
     2d8:	1f 93       	push	r17
     2da:	cf 93       	push	r28
     2dc:	df 93       	push	r29
     2de:	ec 01       	movw	r28, r24
	values->Bppfd+=values->ppfd;
     2e0:	89 a9       	ldd	r24, Y+49	; 0x31
     2e2:	9a a9       	ldd	r25, Y+50	; 0x32
     2e4:	ab a9       	ldd	r26, Y+51	; 0x33
     2e6:	bc a9       	ldd	r27, Y+52	; 0x34
     2e8:	48 81       	ld	r20, Y
     2ea:	59 81       	ldd	r21, Y+1	; 0x01
     2ec:	66 27       	eor	r22, r22
     2ee:	57 fd       	sbrc	r21, 7
     2f0:	60 95       	com	r22
     2f2:	76 2f       	mov	r23, r22
     2f4:	84 0f       	add	r24, r20
     2f6:	95 1f       	adc	r25, r21
     2f8:	a6 1f       	adc	r26, r22
     2fa:	b7 1f       	adc	r27, r23
     2fc:	89 ab       	std	Y+49, r24	; 0x31
     2fe:	9a ab       	std	Y+50, r25	; 0x32
     300:	ab ab       	std	Y+51, r26	; 0x33
     302:	bc ab       	std	Y+52, r27	; 0x34
	values->BppfdCounter++;
     304:	fe 01       	movw	r30, r28
     306:	e3 5a       	subi	r30, 0xA3	; 163
     308:	ff 4f       	sbci	r31, 0xFF	; 255
     30a:	80 81       	ld	r24, Z
     30c:	91 81       	ldd	r25, Z+1	; 0x01
     30e:	01 96       	adiw	r24, 0x01	; 1
     310:	91 83       	std	Z+1, r25	; 0x01
     312:	80 83       	st	Z, r24
	values->Mppfd=(values->Bppfd+(values->BppfdCounter/2) ) / values->BppfdCounter;
     314:	09 a9       	ldd	r16, Y+49	; 0x31
     316:	1a a9       	ldd	r17, Y+50	; 0x32
     318:	2b a9       	ldd	r18, Y+51	; 0x33
     31a:	3c a9       	ldd	r19, Y+52	; 0x34
     31c:	80 81       	ld	r24, Z
     31e:	91 81       	ldd	r25, Z+1	; 0x01
     320:	40 81       	ld	r20, Z
     322:	51 81       	ldd	r21, Z+1	; 0x01
     324:	97 fd       	sbrc	r25, 7
     326:	01 96       	adiw	r24, 0x01	; 1
     328:	bc 01       	movw	r22, r24
     32a:	75 95       	asr	r23
     32c:	67 95       	ror	r22
     32e:	88 27       	eor	r24, r24
     330:	77 fd       	sbrc	r23, 7
     332:	80 95       	com	r24
     334:	98 2f       	mov	r25, r24
     336:	60 0f       	add	r22, r16
     338:	71 1f       	adc	r23, r17
     33a:	82 1f       	adc	r24, r18
     33c:	93 1f       	adc	r25, r19
     33e:	9a 01       	movw	r18, r20
     340:	44 27       	eor	r20, r20
     342:	37 fd       	sbrc	r19, 7
     344:	40 95       	com	r20
     346:	54 2f       	mov	r21, r20
     348:	0e 94 b0 1a 	call	0x3560	; 0x3560 <__divmodsi4>
     34c:	3a 8f       	std	Y+26, r19	; 0x1a
     34e:	29 8f       	std	Y+25, r18	; 0x19
	
	values->BinH+=OCR1B;
     350:	9e 01       	movw	r18, r28
     352:	27 5a       	subi	r18, 0xA7	; 167
     354:	3f 4f       	sbci	r19, 0xFF	; 255
     356:	f9 01       	movw	r30, r18
     358:	80 81       	ld	r24, Z
     35a:	91 81       	ldd	r25, Z+1	; 0x01
     35c:	a2 81       	ldd	r26, Z+2	; 0x02
     35e:	b3 81       	ldd	r27, Z+3	; 0x03
     360:	48 b5       	in	r20, 0x28	; 40
     362:	59 b5       	in	r21, 0x29	; 41
     364:	84 0f       	add	r24, r20
     366:	95 1f       	adc	r25, r21
     368:	a1 1d       	adc	r26, r1
     36a:	b1 1d       	adc	r27, r1
     36c:	80 83       	st	Z, r24
     36e:	91 83       	std	Z+1, r25	; 0x01
     370:	a2 83       	std	Z+2, r26	; 0x02
     372:	b3 83       	std	Z+3, r27	; 0x03
	values->BinHCounter++;
     374:	fe 01       	movw	r30, r28
     376:	ef 58       	subi	r30, 0x8F	; 143
     378:	ff 4f       	sbci	r31, 0xFF	; 255
     37a:	80 81       	ld	r24, Z
     37c:	91 81       	ldd	r25, Z+1	; 0x01
     37e:	01 96       	adiw	r24, 0x01	; 1
     380:	91 83       	std	Z+1, r25	; 0x01
     382:	80 83       	st	Z, r24
	values->MinH=(values->BinH+(values->BinHCounter/2) ) / values->BinHCounter;
     384:	d9 01       	movw	r26, r18
     386:	0d 91       	ld	r16, X+
     388:	1d 91       	ld	r17, X+
     38a:	2d 91       	ld	r18, X+
     38c:	3c 91       	ld	r19, X
     38e:	80 81       	ld	r24, Z
     390:	91 81       	ldd	r25, Z+1	; 0x01
     392:	40 81       	ld	r20, Z
     394:	51 81       	ldd	r21, Z+1	; 0x01
     396:	97 fd       	sbrc	r25, 7
     398:	01 96       	adiw	r24, 0x01	; 1
     39a:	bc 01       	movw	r22, r24
     39c:	75 95       	asr	r23
     39e:	67 95       	ror	r22
     3a0:	88 27       	eor	r24, r24
     3a2:	77 fd       	sbrc	r23, 7
     3a4:	80 95       	com	r24
     3a6:	98 2f       	mov	r25, r24
     3a8:	60 0f       	add	r22, r16
     3aa:	71 1f       	adc	r23, r17
     3ac:	82 1f       	adc	r24, r18
     3ae:	93 1f       	adc	r25, r19
     3b0:	9a 01       	movw	r18, r20
     3b2:	44 27       	eor	r20, r20
     3b4:	37 fd       	sbrc	r19, 7
     3b6:	40 95       	com	r20
     3b8:	54 2f       	mov	r21, r20
     3ba:	0e 94 b0 1a 	call	0x3560	; 0x3560 <__divmodsi4>
     3be:	38 ab       	std	Y+48, r19	; 0x30
     3c0:	2f a7       	std	Y+47, r18	; 0x2f
	
	
	if ( (values->co!=-9999) && (values->co != -8888) )
     3c2:	8a 81       	ldd	r24, Y+2	; 0x02
     3c4:	9b 81       	ldd	r25, Y+3	; 0x03
     3c6:	81 3f       	cpi	r24, 0xF1	; 241
     3c8:	98 4d       	sbci	r25, 0xD8	; 216
     3ca:	09 f4       	brne	.+2      	; 0x3ce <calculate_means+0xf8>
     3cc:	49 c0       	rjmp	.+146    	; 0x460 <calculate_means+0x18a>
     3ce:	8a 81       	ldd	r24, Y+2	; 0x02
     3d0:	9b 81       	ldd	r25, Y+3	; 0x03
     3d2:	88 34       	cpi	r24, 0x48	; 72
     3d4:	9d 4d       	sbci	r25, 0xDD	; 221
     3d6:	09 f4       	brne	.+2      	; 0x3da <calculate_means+0x104>
     3d8:	43 c0       	rjmp	.+134    	; 0x460 <calculate_means+0x18a>
	{
		if (values->co>6500)
     3da:	8a 81       	ldd	r24, Y+2	; 0x02
     3dc:	9b 81       	ldd	r25, Y+3	; 0x03
     3de:	85 36       	cpi	r24, 0x65	; 101
     3e0:	99 41       	sbci	r25, 0x19	; 25
     3e2:	20 f0       	brcs	.+8      	; 0x3ec <calculate_means+0x116>
		{
			values->co=6500;
     3e4:	84 e6       	ldi	r24, 0x64	; 100
     3e6:	99 e1       	ldi	r25, 0x19	; 25
     3e8:	9b 83       	std	Y+3, r25	; 0x03
     3ea:	8a 83       	std	Y+2, r24	; 0x02
		}
		values->Bco+=values->co*10;
     3ec:	8d a9       	ldd	r24, Y+53	; 0x35
     3ee:	9e a9       	ldd	r25, Y+54	; 0x36
     3f0:	af a9       	ldd	r26, Y+55	; 0x37
     3f2:	b8 ad       	ldd	r27, Y+56	; 0x38
     3f4:	4a 81       	ldd	r20, Y+2	; 0x02
     3f6:	5b 81       	ldd	r21, Y+3	; 0x03
     3f8:	6a e0       	ldi	r22, 0x0A	; 10
     3fa:	64 9f       	mul	r22, r20
     3fc:	90 01       	movw	r18, r0
     3fe:	65 9f       	mul	r22, r21
     400:	30 0d       	add	r19, r0
     402:	11 24       	eor	r1, r1
     404:	82 0f       	add	r24, r18
     406:	93 1f       	adc	r25, r19
     408:	a1 1d       	adc	r26, r1
     40a:	b1 1d       	adc	r27, r1
     40c:	8d ab       	std	Y+53, r24	; 0x35
     40e:	9e ab       	std	Y+54, r25	; 0x36
     410:	af ab       	std	Y+55, r26	; 0x37
     412:	b8 af       	std	Y+56, r27	; 0x38
		values->BcoCounter++;
     414:	fe 01       	movw	r30, r28
     416:	e1 5a       	subi	r30, 0xA1	; 161
     418:	ff 4f       	sbci	r31, 0xFF	; 255
     41a:	80 81       	ld	r24, Z
     41c:	91 81       	ldd	r25, Z+1	; 0x01
     41e:	01 96       	adiw	r24, 0x01	; 1
     420:	91 83       	std	Z+1, r25	; 0x01
     422:	80 83       	st	Z, r24
		values->Mco=(values->Bco+(values->BcoCounter/2) ) / values->BcoCounter;
     424:	0d a9       	ldd	r16, Y+53	; 0x35
     426:	1e a9       	ldd	r17, Y+54	; 0x36
     428:	2f a9       	ldd	r18, Y+55	; 0x37
     42a:	38 ad       	ldd	r19, Y+56	; 0x38
     42c:	80 81       	ld	r24, Z
     42e:	91 81       	ldd	r25, Z+1	; 0x01
     430:	40 81       	ld	r20, Z
     432:	51 81       	ldd	r21, Z+1	; 0x01
     434:	97 fd       	sbrc	r25, 7
     436:	01 96       	adiw	r24, 0x01	; 1
     438:	bc 01       	movw	r22, r24
     43a:	75 95       	asr	r23
     43c:	67 95       	ror	r22
     43e:	88 27       	eor	r24, r24
     440:	77 fd       	sbrc	r23, 7
     442:	80 95       	com	r24
     444:	98 2f       	mov	r25, r24
     446:	60 0f       	add	r22, r16
     448:	71 1f       	adc	r23, r17
     44a:	82 1f       	adc	r24, r18
     44c:	93 1f       	adc	r25, r19
     44e:	9a 01       	movw	r18, r20
     450:	44 27       	eor	r20, r20
     452:	37 fd       	sbrc	r19, 7
     454:	40 95       	com	r20
     456:	54 2f       	mov	r21, r20
     458:	0e 94 b0 1a 	call	0x3560	; 0x3560 <__divmodsi4>
     45c:	3c 8f       	std	Y+28, r19	; 0x1c
     45e:	2b 8f       	std	Y+27, r18	; 0x1b
	{
		
	}
	

	if ((values->hytTemp!=-9999) && (values->hytTemp!= -8888))
     460:	8c 81       	ldd	r24, Y+4	; 0x04
     462:	9d 81       	ldd	r25, Y+5	; 0x05
     464:	81 3f       	cpi	r24, 0xF1	; 241
     466:	98 4d       	sbci	r25, 0xD8	; 216
     468:	e9 f1       	breq	.+122    	; 0x4e4 <calculate_means+0x20e>
     46a:	8c 81       	ldd	r24, Y+4	; 0x04
     46c:	9d 81       	ldd	r25, Y+5	; 0x05
     46e:	88 34       	cpi	r24, 0x48	; 72
     470:	9d 4d       	sbci	r25, 0xDD	; 221
     472:	c1 f1       	breq	.+112    	; 0x4e4 <calculate_means+0x20e>
	{
		values->BhytTemp+=values->hytTemp;
     474:	89 ad       	ldd	r24, Y+57	; 0x39
     476:	9a ad       	ldd	r25, Y+58	; 0x3a
     478:	ab ad       	ldd	r26, Y+59	; 0x3b
     47a:	bc ad       	ldd	r27, Y+60	; 0x3c
     47c:	4c 81       	ldd	r20, Y+4	; 0x04
     47e:	5d 81       	ldd	r21, Y+5	; 0x05
     480:	66 27       	eor	r22, r22
     482:	57 fd       	sbrc	r21, 7
     484:	60 95       	com	r22
     486:	76 2f       	mov	r23, r22
     488:	84 0f       	add	r24, r20
     48a:	95 1f       	adc	r25, r21
     48c:	a6 1f       	adc	r26, r22
     48e:	b7 1f       	adc	r27, r23
     490:	89 af       	std	Y+57, r24	; 0x39
     492:	9a af       	std	Y+58, r25	; 0x3a
     494:	ab af       	std	Y+59, r26	; 0x3b
     496:	bc af       	std	Y+60, r27	; 0x3c
		values->BhytTempCounter++;
     498:	fe 01       	movw	r30, r28
     49a:	ef 59       	subi	r30, 0x9F	; 159
     49c:	ff 4f       	sbci	r31, 0xFF	; 255
     49e:	80 81       	ld	r24, Z
     4a0:	91 81       	ldd	r25, Z+1	; 0x01
     4a2:	01 96       	adiw	r24, 0x01	; 1
     4a4:	91 83       	std	Z+1, r25	; 0x01
     4a6:	80 83       	st	Z, r24
		values->MhytTemp=(values->BhytTemp+(values->BhytTempCounter/2) ) / values->BhytTempCounter;
     4a8:	09 ad       	ldd	r16, Y+57	; 0x39
     4aa:	1a ad       	ldd	r17, Y+58	; 0x3a
     4ac:	2b ad       	ldd	r18, Y+59	; 0x3b
     4ae:	3c ad       	ldd	r19, Y+60	; 0x3c
     4b0:	80 81       	ld	r24, Z
     4b2:	91 81       	ldd	r25, Z+1	; 0x01
     4b4:	40 81       	ld	r20, Z
     4b6:	51 81       	ldd	r21, Z+1	; 0x01
     4b8:	97 fd       	sbrc	r25, 7
     4ba:	01 96       	adiw	r24, 0x01	; 1
     4bc:	bc 01       	movw	r22, r24
     4be:	75 95       	asr	r23
     4c0:	67 95       	ror	r22
     4c2:	88 27       	eor	r24, r24
     4c4:	77 fd       	sbrc	r23, 7
     4c6:	80 95       	com	r24
     4c8:	98 2f       	mov	r25, r24
     4ca:	60 0f       	add	r22, r16
     4cc:	71 1f       	adc	r23, r17
     4ce:	82 1f       	adc	r24, r18
     4d0:	93 1f       	adc	r25, r19
     4d2:	9a 01       	movw	r18, r20
     4d4:	44 27       	eor	r20, r20
     4d6:	37 fd       	sbrc	r19, 7
     4d8:	40 95       	com	r20
     4da:	54 2f       	mov	r21, r20
     4dc:	0e 94 b0 1a 	call	0x3560	; 0x3560 <__divmodsi4>
     4e0:	3e 8f       	std	Y+30, r19	; 0x1e
     4e2:	2d 8f       	std	Y+29, r18	; 0x1d

	}
	
	

	if ((values->feuchte!=-9999) && (values->feuchte!= -8888))
     4e4:	8e 81       	ldd	r24, Y+6	; 0x06
     4e6:	9f 81       	ldd	r25, Y+7	; 0x07
     4e8:	81 3f       	cpi	r24, 0xF1	; 241
     4ea:	98 4d       	sbci	r25, 0xD8	; 216
     4ec:	09 f4       	brne	.+2      	; 0x4f0 <calculate_means+0x21a>
     4ee:	42 c0       	rjmp	.+132    	; 0x574 <calculate_means+0x29e>
     4f0:	8e 81       	ldd	r24, Y+6	; 0x06
     4f2:	9f 81       	ldd	r25, Y+7	; 0x07
     4f4:	88 34       	cpi	r24, 0x48	; 72
     4f6:	9d 4d       	sbci	r25, 0xDD	; 221
     4f8:	e9 f1       	breq	.+122    	; 0x574 <calculate_means+0x29e>
	{
		values->Bfeuchte+=values->feuchte;
     4fa:	9e 01       	movw	r18, r28
     4fc:	23 5c       	subi	r18, 0xC3	; 195
     4fe:	3f 4f       	sbci	r19, 0xFF	; 255
     500:	f9 01       	movw	r30, r18
     502:	80 81       	ld	r24, Z
     504:	91 81       	ldd	r25, Z+1	; 0x01
     506:	a2 81       	ldd	r26, Z+2	; 0x02
     508:	b3 81       	ldd	r27, Z+3	; 0x03
     50a:	4e 81       	ldd	r20, Y+6	; 0x06
     50c:	5f 81       	ldd	r21, Y+7	; 0x07
     50e:	66 27       	eor	r22, r22
     510:	57 fd       	sbrc	r21, 7
     512:	60 95       	com	r22
     514:	76 2f       	mov	r23, r22
     516:	84 0f       	add	r24, r20
     518:	95 1f       	adc	r25, r21
     51a:	a6 1f       	adc	r26, r22
     51c:	b7 1f       	adc	r27, r23
     51e:	80 83       	st	Z, r24
     520:	91 83       	std	Z+1, r25	; 0x01
     522:	a2 83       	std	Z+2, r26	; 0x02
     524:	b3 83       	std	Z+3, r27	; 0x03
		values->BfeuchteCounter++;
     526:	fe 01       	movw	r30, r28
     528:	ed 59       	subi	r30, 0x9D	; 157
     52a:	ff 4f       	sbci	r31, 0xFF	; 255
     52c:	80 81       	ld	r24, Z
     52e:	91 81       	ldd	r25, Z+1	; 0x01
     530:	01 96       	adiw	r24, 0x01	; 1
     532:	91 83       	std	Z+1, r25	; 0x01
     534:	80 83       	st	Z, r24
		values->Mfeuchte=(values->Bfeuchte+(values->BfeuchteCounter/2) ) / values->BfeuchteCounter;
     536:	d9 01       	movw	r26, r18
     538:	0d 91       	ld	r16, X+
     53a:	1d 91       	ld	r17, X+
     53c:	2d 91       	ld	r18, X+
     53e:	3c 91       	ld	r19, X
     540:	80 81       	ld	r24, Z
     542:	91 81       	ldd	r25, Z+1	; 0x01
     544:	40 81       	ld	r20, Z
     546:	51 81       	ldd	r21, Z+1	; 0x01
     548:	97 fd       	sbrc	r25, 7
     54a:	01 96       	adiw	r24, 0x01	; 1
     54c:	bc 01       	movw	r22, r24
     54e:	75 95       	asr	r23
     550:	67 95       	ror	r22
     552:	88 27       	eor	r24, r24
     554:	77 fd       	sbrc	r23, 7
     556:	80 95       	com	r24
     558:	98 2f       	mov	r25, r24
     55a:	60 0f       	add	r22, r16
     55c:	71 1f       	adc	r23, r17
     55e:	82 1f       	adc	r24, r18
     560:	93 1f       	adc	r25, r19
     562:	9a 01       	movw	r18, r20
     564:	44 27       	eor	r20, r20
     566:	37 fd       	sbrc	r19, 7
     568:	40 95       	com	r20
     56a:	54 2f       	mov	r21, r20
     56c:	0e 94 b0 1a 	call	0x3560	; 0x3560 <__divmodsi4>
     570:	38 a3       	std	Y+32, r19	; 0x20
     572:	2f 8f       	std	Y+31, r18	; 0x1f
	{

	}
	

	if ((values->pressure!=-9999) && (values->pressure!= -8888))
     574:	88 85       	ldd	r24, Y+8	; 0x08
     576:	99 85       	ldd	r25, Y+9	; 0x09
     578:	aa 85       	ldd	r26, Y+10	; 0x0a
     57a:	bb 85       	ldd	r27, Y+11	; 0x0b
     57c:	81 3f       	cpi	r24, 0xF1	; 241
     57e:	98 4d       	sbci	r25, 0xD8	; 216
     580:	af 4f       	sbci	r26, 0xFF	; 255
     582:	bf 4f       	sbci	r27, 0xFF	; 255
     584:	09 f4       	brne	.+2      	; 0x588 <calculate_means+0x2b2>
     586:	46 c0       	rjmp	.+140    	; 0x614 <calculate_means+0x33e>
     588:	88 85       	ldd	r24, Y+8	; 0x08
     58a:	99 85       	ldd	r25, Y+9	; 0x09
     58c:	aa 85       	ldd	r26, Y+10	; 0x0a
     58e:	bb 85       	ldd	r27, Y+11	; 0x0b
     590:	88 34       	cpi	r24, 0x48	; 72
     592:	9d 4d       	sbci	r25, 0xDD	; 221
     594:	af 4f       	sbci	r26, 0xFF	; 255
     596:	bf 4f       	sbci	r27, 0xFF	; 255
     598:	e9 f1       	breq	.+122    	; 0x614 <calculate_means+0x33e>
	{
		values->Bpressure+=values->pressure;
     59a:	9e 01       	movw	r18, r28
     59c:	2f 5b       	subi	r18, 0xBF	; 191
     59e:	3f 4f       	sbci	r19, 0xFF	; 255
     5a0:	f9 01       	movw	r30, r18
     5a2:	80 81       	ld	r24, Z
     5a4:	91 81       	ldd	r25, Z+1	; 0x01
     5a6:	a2 81       	ldd	r26, Z+2	; 0x02
     5a8:	b3 81       	ldd	r27, Z+3	; 0x03
     5aa:	48 85       	ldd	r20, Y+8	; 0x08
     5ac:	59 85       	ldd	r21, Y+9	; 0x09
     5ae:	6a 85       	ldd	r22, Y+10	; 0x0a
     5b0:	7b 85       	ldd	r23, Y+11	; 0x0b
     5b2:	84 0f       	add	r24, r20
     5b4:	95 1f       	adc	r25, r21
     5b6:	a6 1f       	adc	r26, r22
     5b8:	b7 1f       	adc	r27, r23
     5ba:	80 83       	st	Z, r24
     5bc:	91 83       	std	Z+1, r25	; 0x01
     5be:	a2 83       	std	Z+2, r26	; 0x02
     5c0:	b3 83       	std	Z+3, r27	; 0x03
		values->BpressureCounter++;
     5c2:	fe 01       	movw	r30, r28
     5c4:	eb 59       	subi	r30, 0x9B	; 155
     5c6:	ff 4f       	sbci	r31, 0xFF	; 255
     5c8:	80 81       	ld	r24, Z
     5ca:	91 81       	ldd	r25, Z+1	; 0x01
     5cc:	01 96       	adiw	r24, 0x01	; 1
     5ce:	91 83       	std	Z+1, r25	; 0x01
     5d0:	80 83       	st	Z, r24
		values->Mpressure=(values->Bpressure+(values->BpressureCounter/2) ) / values->BpressureCounter;
     5d2:	d9 01       	movw	r26, r18
     5d4:	0d 91       	ld	r16, X+
     5d6:	1d 91       	ld	r17, X+
     5d8:	2d 91       	ld	r18, X+
     5da:	3c 91       	ld	r19, X
     5dc:	80 81       	ld	r24, Z
     5de:	91 81       	ldd	r25, Z+1	; 0x01
     5e0:	40 81       	ld	r20, Z
     5e2:	51 81       	ldd	r21, Z+1	; 0x01
     5e4:	97 fd       	sbrc	r25, 7
     5e6:	01 96       	adiw	r24, 0x01	; 1
     5e8:	bc 01       	movw	r22, r24
     5ea:	75 95       	asr	r23
     5ec:	67 95       	ror	r22
     5ee:	88 27       	eor	r24, r24
     5f0:	77 fd       	sbrc	r23, 7
     5f2:	80 95       	com	r24
     5f4:	98 2f       	mov	r25, r24
     5f6:	60 0f       	add	r22, r16
     5f8:	71 1f       	adc	r23, r17
     5fa:	82 1f       	adc	r24, r18
     5fc:	93 1f       	adc	r25, r19
     5fe:	9a 01       	movw	r18, r20
     600:	44 27       	eor	r20, r20
     602:	37 fd       	sbrc	r19, 7
     604:	40 95       	com	r20
     606:	54 2f       	mov	r21, r20
     608:	0e 94 b0 1a 	call	0x3560	; 0x3560 <__divmodsi4>
     60c:	29 a3       	std	Y+33, r18	; 0x21
     60e:	3a a3       	std	Y+34, r19	; 0x22
     610:	4b a3       	std	Y+35, r20	; 0x23
     612:	5c a3       	std	Y+36, r21	; 0x24
	else
	{

	}
	
	if ((values->boschTemp!=-9999) && (values->boschTemp!= -8888))
     614:	8c 85       	ldd	r24, Y+12	; 0x0c
     616:	9d 85       	ldd	r25, Y+13	; 0x0d
     618:	81 3f       	cpi	r24, 0xF1	; 241
     61a:	98 4d       	sbci	r25, 0xD8	; 216
     61c:	09 f4       	brne	.+2      	; 0x620 <calculate_means+0x34a>
     61e:	42 c0       	rjmp	.+132    	; 0x6a4 <calculate_means+0x3ce>
     620:	8c 85       	ldd	r24, Y+12	; 0x0c
     622:	9d 85       	ldd	r25, Y+13	; 0x0d
     624:	88 34       	cpi	r24, 0x48	; 72
     626:	9d 4d       	sbci	r25, 0xDD	; 221
     628:	e9 f1       	breq	.+122    	; 0x6a4 <calculate_means+0x3ce>
	{
		values->BboschTemp+=values->boschTemp;
     62a:	9e 01       	movw	r18, r28
     62c:	2b 5b       	subi	r18, 0xBB	; 187
     62e:	3f 4f       	sbci	r19, 0xFF	; 255
     630:	f9 01       	movw	r30, r18
     632:	80 81       	ld	r24, Z
     634:	91 81       	ldd	r25, Z+1	; 0x01
     636:	a2 81       	ldd	r26, Z+2	; 0x02
     638:	b3 81       	ldd	r27, Z+3	; 0x03
     63a:	4c 85       	ldd	r20, Y+12	; 0x0c
     63c:	5d 85       	ldd	r21, Y+13	; 0x0d
     63e:	66 27       	eor	r22, r22
     640:	57 fd       	sbrc	r21, 7
     642:	60 95       	com	r22
     644:	76 2f       	mov	r23, r22
     646:	84 0f       	add	r24, r20
     648:	95 1f       	adc	r25, r21
     64a:	a6 1f       	adc	r26, r22
     64c:	b7 1f       	adc	r27, r23
     64e:	80 83       	st	Z, r24
     650:	91 83       	std	Z+1, r25	; 0x01
     652:	a2 83       	std	Z+2, r26	; 0x02
     654:	b3 83       	std	Z+3, r27	; 0x03
		values->BboschTempCounter++;
     656:	fe 01       	movw	r30, r28
     658:	e9 59       	subi	r30, 0x99	; 153
     65a:	ff 4f       	sbci	r31, 0xFF	; 255
     65c:	80 81       	ld	r24, Z
     65e:	91 81       	ldd	r25, Z+1	; 0x01
     660:	01 96       	adiw	r24, 0x01	; 1
     662:	91 83       	std	Z+1, r25	; 0x01
     664:	80 83       	st	Z, r24
		values->MboschTemp=(values->BboschTemp+(values->BboschTempCounter/2) ) / values->BboschTempCounter;
     666:	d9 01       	movw	r26, r18
     668:	0d 91       	ld	r16, X+
     66a:	1d 91       	ld	r17, X+
     66c:	2d 91       	ld	r18, X+
     66e:	3c 91       	ld	r19, X
     670:	80 81       	ld	r24, Z
     672:	91 81       	ldd	r25, Z+1	; 0x01
     674:	40 81       	ld	r20, Z
     676:	51 81       	ldd	r21, Z+1	; 0x01
     678:	97 fd       	sbrc	r25, 7
     67a:	01 96       	adiw	r24, 0x01	; 1
     67c:	bc 01       	movw	r22, r24
     67e:	75 95       	asr	r23
     680:	67 95       	ror	r22
     682:	88 27       	eor	r24, r24
     684:	77 fd       	sbrc	r23, 7
     686:	80 95       	com	r24
     688:	98 2f       	mov	r25, r24
     68a:	60 0f       	add	r22, r16
     68c:	71 1f       	adc	r23, r17
     68e:	82 1f       	adc	r24, r18
     690:	93 1f       	adc	r25, r19
     692:	9a 01       	movw	r18, r20
     694:	44 27       	eor	r20, r20
     696:	37 fd       	sbrc	r19, 7
     698:	40 95       	com	r20
     69a:	54 2f       	mov	r21, r20
     69c:	0e 94 b0 1a 	call	0x3560	; 0x3560 <__divmodsi4>
     6a0:	3e a3       	std	Y+38, r19	; 0x26
     6a2:	2d a3       	std	Y+37, r18	; 0x25
	else
	{

	}
	
	if ((values->RHO!=-9999) && (values->RHO!= -8888))
     6a4:	8f 85       	ldd	r24, Y+15	; 0x0f
     6a6:	98 89       	ldd	r25, Y+16	; 0x10
     6a8:	81 3f       	cpi	r24, 0xF1	; 241
     6aa:	98 4d       	sbci	r25, 0xD8	; 216
     6ac:	09 f4       	brne	.+2      	; 0x6b0 <calculate_means+0x3da>
     6ae:	42 c0       	rjmp	.+132    	; 0x734 <calculate_means+0x45e>
     6b0:	8f 85       	ldd	r24, Y+15	; 0x0f
     6b2:	98 89       	ldd	r25, Y+16	; 0x10
     6b4:	88 34       	cpi	r24, 0x48	; 72
     6b6:	9d 4d       	sbci	r25, 0xDD	; 221
     6b8:	e9 f1       	breq	.+122    	; 0x734 <calculate_means+0x45e>
	{
		values->BRHO+=values->RHO;
     6ba:	9e 01       	movw	r18, r28
     6bc:	27 5b       	subi	r18, 0xB7	; 183
     6be:	3f 4f       	sbci	r19, 0xFF	; 255
     6c0:	f9 01       	movw	r30, r18
     6c2:	80 81       	ld	r24, Z
     6c4:	91 81       	ldd	r25, Z+1	; 0x01
     6c6:	a2 81       	ldd	r26, Z+2	; 0x02
     6c8:	b3 81       	ldd	r27, Z+3	; 0x03
     6ca:	4f 85       	ldd	r20, Y+15	; 0x0f
     6cc:	58 89       	ldd	r21, Y+16	; 0x10
     6ce:	66 27       	eor	r22, r22
     6d0:	57 fd       	sbrc	r21, 7
     6d2:	60 95       	com	r22
     6d4:	76 2f       	mov	r23, r22
     6d6:	84 0f       	add	r24, r20
     6d8:	95 1f       	adc	r25, r21
     6da:	a6 1f       	adc	r26, r22
     6dc:	b7 1f       	adc	r27, r23
     6de:	80 83       	st	Z, r24
     6e0:	91 83       	std	Z+1, r25	; 0x01
     6e2:	a2 83       	std	Z+2, r26	; 0x02
     6e4:	b3 83       	std	Z+3, r27	; 0x03
		values->BRHOCounter++;
     6e6:	fe 01       	movw	r30, r28
     6e8:	e7 59       	subi	r30, 0x97	; 151
     6ea:	ff 4f       	sbci	r31, 0xFF	; 255
     6ec:	80 81       	ld	r24, Z
     6ee:	91 81       	ldd	r25, Z+1	; 0x01
     6f0:	01 96       	adiw	r24, 0x01	; 1
     6f2:	91 83       	std	Z+1, r25	; 0x01
     6f4:	80 83       	st	Z, r24
		values->MRHO=(values->BRHO+(values->BRHOCounter/2) ) / values->BRHOCounter;
     6f6:	d9 01       	movw	r26, r18
     6f8:	0d 91       	ld	r16, X+
     6fa:	1d 91       	ld	r17, X+
     6fc:	2d 91       	ld	r18, X+
     6fe:	3c 91       	ld	r19, X
     700:	80 81       	ld	r24, Z
     702:	91 81       	ldd	r25, Z+1	; 0x01
     704:	40 81       	ld	r20, Z
     706:	51 81       	ldd	r21, Z+1	; 0x01
     708:	97 fd       	sbrc	r25, 7
     70a:	01 96       	adiw	r24, 0x01	; 1
     70c:	bc 01       	movw	r22, r24
     70e:	75 95       	asr	r23
     710:	67 95       	ror	r22
     712:	88 27       	eor	r24, r24
     714:	77 fd       	sbrc	r23, 7
     716:	80 95       	com	r24
     718:	98 2f       	mov	r25, r24
     71a:	60 0f       	add	r22, r16
     71c:	71 1f       	adc	r23, r17
     71e:	82 1f       	adc	r24, r18
     720:	93 1f       	adc	r25, r19
     722:	9a 01       	movw	r18, r20
     724:	44 27       	eor	r20, r20
     726:	37 fd       	sbrc	r19, 7
     728:	40 95       	com	r20
     72a:	54 2f       	mov	r21, r20
     72c:	0e 94 b0 1a 	call	0x3560	; 0x3560 <__divmodsi4>
     730:	38 a7       	std	Y+40, r19	; 0x28
     732:	2f a3       	std	Y+39, r18	; 0x27
	else
	{

	}
	
	if ((values->S!=-9999) && (values->S!= -8888))
     734:	89 89       	ldd	r24, Y+17	; 0x11
     736:	9a 89       	ldd	r25, Y+18	; 0x12
     738:	81 3f       	cpi	r24, 0xF1	; 241
     73a:	98 4d       	sbci	r25, 0xD8	; 216
     73c:	09 f4       	brne	.+2      	; 0x740 <calculate_means+0x46a>
     73e:	42 c0       	rjmp	.+132    	; 0x7c4 <calculate_means+0x4ee>
     740:	89 89       	ldd	r24, Y+17	; 0x11
     742:	9a 89       	ldd	r25, Y+18	; 0x12
     744:	88 34       	cpi	r24, 0x48	; 72
     746:	9d 4d       	sbci	r25, 0xDD	; 221
     748:	e9 f1       	breq	.+122    	; 0x7c4 <calculate_means+0x4ee>
	{
		values->BS+=values->S;
     74a:	9e 01       	movw	r18, r28
     74c:	23 5b       	subi	r18, 0xB3	; 179
     74e:	3f 4f       	sbci	r19, 0xFF	; 255
     750:	f9 01       	movw	r30, r18
     752:	80 81       	ld	r24, Z
     754:	91 81       	ldd	r25, Z+1	; 0x01
     756:	a2 81       	ldd	r26, Z+2	; 0x02
     758:	b3 81       	ldd	r27, Z+3	; 0x03
     75a:	49 89       	ldd	r20, Y+17	; 0x11
     75c:	5a 89       	ldd	r21, Y+18	; 0x12
     75e:	66 27       	eor	r22, r22
     760:	57 fd       	sbrc	r21, 7
     762:	60 95       	com	r22
     764:	76 2f       	mov	r23, r22
     766:	84 0f       	add	r24, r20
     768:	95 1f       	adc	r25, r21
     76a:	a6 1f       	adc	r26, r22
     76c:	b7 1f       	adc	r27, r23
     76e:	80 83       	st	Z, r24
     770:	91 83       	std	Z+1, r25	; 0x01
     772:	a2 83       	std	Z+2, r26	; 0x02
     774:	b3 83       	std	Z+3, r27	; 0x03
		values->BSCounter++;
     776:	fe 01       	movw	r30, r28
     778:	e5 59       	subi	r30, 0x95	; 149
     77a:	ff 4f       	sbci	r31, 0xFF	; 255
     77c:	80 81       	ld	r24, Z
     77e:	91 81       	ldd	r25, Z+1	; 0x01
     780:	01 96       	adiw	r24, 0x01	; 1
     782:	91 83       	std	Z+1, r25	; 0x01
     784:	80 83       	st	Z, r24
		values->MS=(values->BS+(values->BSCounter/2) ) / values->BSCounter;
     786:	d9 01       	movw	r26, r18
     788:	0d 91       	ld	r16, X+
     78a:	1d 91       	ld	r17, X+
     78c:	2d 91       	ld	r18, X+
     78e:	3c 91       	ld	r19, X
     790:	80 81       	ld	r24, Z
     792:	91 81       	ldd	r25, Z+1	; 0x01
     794:	40 81       	ld	r20, Z
     796:	51 81       	ldd	r21, Z+1	; 0x01
     798:	97 fd       	sbrc	r25, 7
     79a:	01 96       	adiw	r24, 0x01	; 1
     79c:	bc 01       	movw	r22, r24
     79e:	75 95       	asr	r23
     7a0:	67 95       	ror	r22
     7a2:	88 27       	eor	r24, r24
     7a4:	77 fd       	sbrc	r23, 7
     7a6:	80 95       	com	r24
     7a8:	98 2f       	mov	r25, r24
     7aa:	60 0f       	add	r22, r16
     7ac:	71 1f       	adc	r23, r17
     7ae:	82 1f       	adc	r24, r18
     7b0:	93 1f       	adc	r25, r19
     7b2:	9a 01       	movw	r18, r20
     7b4:	44 27       	eor	r20, r20
     7b6:	37 fd       	sbrc	r19, 7
     7b8:	40 95       	com	r20
     7ba:	54 2f       	mov	r21, r20
     7bc:	0e 94 b0 1a 	call	0x3560	; 0x3560 <__divmodsi4>
     7c0:	3a a7       	std	Y+42, r19	; 0x2a
     7c2:	29 a7       	std	Y+41, r18	; 0x29
	else
	{

	}
	
	if ((values->AF!=-9999) && (values->AF!= -8888))
     7c4:	8b 89       	ldd	r24, Y+19	; 0x13
     7c6:	9c 89       	ldd	r25, Y+20	; 0x14
     7c8:	81 3f       	cpi	r24, 0xF1	; 241
     7ca:	98 4d       	sbci	r25, 0xD8	; 216
     7cc:	09 f4       	brne	.+2      	; 0x7d0 <calculate_means+0x4fa>
     7ce:	42 c0       	rjmp	.+132    	; 0x854 <calculate_means+0x57e>
     7d0:	8b 89       	ldd	r24, Y+19	; 0x13
     7d2:	9c 89       	ldd	r25, Y+20	; 0x14
     7d4:	88 34       	cpi	r24, 0x48	; 72
     7d6:	9d 4d       	sbci	r25, 0xDD	; 221
     7d8:	e9 f1       	breq	.+122    	; 0x854 <calculate_means+0x57e>
	{
		values->BAF+=values->AF;
     7da:	9e 01       	movw	r18, r28
     7dc:	2f 5a       	subi	r18, 0xAF	; 175
     7de:	3f 4f       	sbci	r19, 0xFF	; 255
     7e0:	f9 01       	movw	r30, r18
     7e2:	80 81       	ld	r24, Z
     7e4:	91 81       	ldd	r25, Z+1	; 0x01
     7e6:	a2 81       	ldd	r26, Z+2	; 0x02
     7e8:	b3 81       	ldd	r27, Z+3	; 0x03
     7ea:	4b 89       	ldd	r20, Y+19	; 0x13
     7ec:	5c 89       	ldd	r21, Y+20	; 0x14
     7ee:	66 27       	eor	r22, r22
     7f0:	57 fd       	sbrc	r21, 7
     7f2:	60 95       	com	r22
     7f4:	76 2f       	mov	r23, r22
     7f6:	84 0f       	add	r24, r20
     7f8:	95 1f       	adc	r25, r21
     7fa:	a6 1f       	adc	r26, r22
     7fc:	b7 1f       	adc	r27, r23
     7fe:	80 83       	st	Z, r24
     800:	91 83       	std	Z+1, r25	; 0x01
     802:	a2 83       	std	Z+2, r26	; 0x02
     804:	b3 83       	std	Z+3, r27	; 0x03
		values->BAFCounter++;
     806:	fe 01       	movw	r30, r28
     808:	e3 59       	subi	r30, 0x93	; 147
     80a:	ff 4f       	sbci	r31, 0xFF	; 255
     80c:	80 81       	ld	r24, Z
     80e:	91 81       	ldd	r25, Z+1	; 0x01
     810:	01 96       	adiw	r24, 0x01	; 1
     812:	91 83       	std	Z+1, r25	; 0x01
     814:	80 83       	st	Z, r24
		values->MAF=(values->BAF+(values->BAFCounter/2) ) / values->BAFCounter;
     816:	d9 01       	movw	r26, r18
     818:	0d 91       	ld	r16, X+
     81a:	1d 91       	ld	r17, X+
     81c:	2d 91       	ld	r18, X+
     81e:	3c 91       	ld	r19, X
     820:	80 81       	ld	r24, Z
     822:	91 81       	ldd	r25, Z+1	; 0x01
     824:	40 81       	ld	r20, Z
     826:	51 81       	ldd	r21, Z+1	; 0x01
     828:	97 fd       	sbrc	r25, 7
     82a:	01 96       	adiw	r24, 0x01	; 1
     82c:	bc 01       	movw	r22, r24
     82e:	75 95       	asr	r23
     830:	67 95       	ror	r22
     832:	88 27       	eor	r24, r24
     834:	77 fd       	sbrc	r23, 7
     836:	80 95       	com	r24
     838:	98 2f       	mov	r25, r24
     83a:	60 0f       	add	r22, r16
     83c:	71 1f       	adc	r23, r17
     83e:	82 1f       	adc	r24, r18
     840:	93 1f       	adc	r25, r19
     842:	9a 01       	movw	r18, r20
     844:	44 27       	eor	r20, r20
     846:	37 fd       	sbrc	r19, 7
     848:	40 95       	com	r20
     84a:	54 2f       	mov	r21, r20
     84c:	0e 94 b0 1a 	call	0x3560	; 0x3560 <__divmodsi4>
     850:	3c a7       	std	Y+44, r19	; 0x2c
     852:	2b a7       	std	Y+43, r18	; 0x2b
	{

	}
	

	if ((values->VPD!=-9999) && (values->VPD!= -8888))
     854:	8d 89       	ldd	r24, Y+21	; 0x15
     856:	9e 89       	ldd	r25, Y+22	; 0x16
     858:	81 3f       	cpi	r24, 0xF1	; 241
     85a:	98 4d       	sbci	r25, 0xD8	; 216
     85c:	09 f4       	brne	.+2      	; 0x860 <__stack+0x1>
     85e:	44 c0       	rjmp	.+136    	; 0x8e8 <__stack+0x89>
     860:	8d 89       	ldd	r24, Y+21	; 0x15
     862:	9e 89       	ldd	r25, Y+22	; 0x16
     864:	88 34       	cpi	r24, 0x48	; 72
     866:	9d 4d       	sbci	r25, 0xDD	; 221
     868:	09 f4       	brne	.+2      	; 0x86c <__stack+0xd>
     86a:	3e c0       	rjmp	.+124    	; 0x8e8 <__stack+0x89>
	{
		values->BVPD+=values->VPD;
     86c:	9e 01       	movw	r18, r28
     86e:	2b 5a       	subi	r18, 0xAB	; 171
     870:	3f 4f       	sbci	r19, 0xFF	; 255
     872:	d9 01       	movw	r26, r18
     874:	4d 91       	ld	r20, X+
     876:	5d 91       	ld	r21, X+
     878:	6d 91       	ld	r22, X+
     87a:	7c 91       	ld	r23, X
     87c:	8d 89       	ldd	r24, Y+21	; 0x15
     87e:	9e 89       	ldd	r25, Y+22	; 0x16
     880:	aa 27       	eor	r26, r26
     882:	97 fd       	sbrc	r25, 7
     884:	a0 95       	com	r26
     886:	ba 2f       	mov	r27, r26
     888:	48 0f       	add	r20, r24
     88a:	59 1f       	adc	r21, r25
     88c:	6a 1f       	adc	r22, r26
     88e:	7b 1f       	adc	r23, r27
     890:	f9 01       	movw	r30, r18
     892:	40 83       	st	Z, r20
     894:	51 83       	std	Z+1, r21	; 0x01
     896:	62 83       	std	Z+2, r22	; 0x02
     898:	73 83       	std	Z+3, r23	; 0x03
		values->BVPDCounter++;
     89a:	fe 01       	movw	r30, r28
     89c:	e1 59       	subi	r30, 0x91	; 145
     89e:	ff 4f       	sbci	r31, 0xFF	; 255
     8a0:	80 81       	ld	r24, Z
     8a2:	91 81       	ldd	r25, Z+1	; 0x01
     8a4:	01 96       	adiw	r24, 0x01	; 1
     8a6:	91 83       	std	Z+1, r25	; 0x01
     8a8:	80 83       	st	Z, r24
		values->MVPD=(values->BVPD+(values->BVPDCounter/2) ) / values->BVPDCounter;
     8aa:	d9 01       	movw	r26, r18
     8ac:	0d 91       	ld	r16, X+
     8ae:	1d 91       	ld	r17, X+
     8b0:	2d 91       	ld	r18, X+
     8b2:	3c 91       	ld	r19, X
     8b4:	80 81       	ld	r24, Z
     8b6:	91 81       	ldd	r25, Z+1	; 0x01
     8b8:	40 81       	ld	r20, Z
     8ba:	51 81       	ldd	r21, Z+1	; 0x01
     8bc:	97 fd       	sbrc	r25, 7
     8be:	01 96       	adiw	r24, 0x01	; 1
     8c0:	bc 01       	movw	r22, r24
     8c2:	75 95       	asr	r23
     8c4:	67 95       	ror	r22
     8c6:	88 27       	eor	r24, r24
     8c8:	77 fd       	sbrc	r23, 7
     8ca:	80 95       	com	r24
     8cc:	98 2f       	mov	r25, r24
     8ce:	60 0f       	add	r22, r16
     8d0:	71 1f       	adc	r23, r17
     8d2:	82 1f       	adc	r24, r18
     8d4:	93 1f       	adc	r25, r19
     8d6:	9a 01       	movw	r18, r20
     8d8:	44 27       	eor	r20, r20
     8da:	37 fd       	sbrc	r19, 7
     8dc:	40 95       	com	r20
     8de:	54 2f       	mov	r21, r20
     8e0:	0e 94 b0 1a 	call	0x3560	; 0x3560 <__divmodsi4>
     8e4:	3e a7       	std	Y+46, r19	; 0x2e
     8e6:	2d a7       	std	Y+45, r18	; 0x2d
		//values->BVPDCounter=0;
		//
		//values->BufferCounter=0;
	//}
	return 0;
     8e8:	80 e0       	ldi	r24, 0x00	; 0
     8ea:	df 91       	pop	r29
     8ec:	cf 91       	pop	r28
     8ee:	1f 91       	pop	r17
     8f0:	0f 91       	pop	r16
     8f2:	08 95       	ret

000008f4 <mcp2515_read_register>:

#include "include/can.h"
// #define DEBUG_CAN

uint8_t mcp2515_read_register(uint8_t adress)
{
     8f4:	cf 93       	push	r28
     8f6:	c8 2f       	mov	r28, r24
	uint8_t data=0;
	PORTB &= ~(1<<PB4);
     8f8:	c4 98       	cbi	0x18, 4	; 24
	spi_put_c(SPI_READ);
     8fa:	83 e0       	ldi	r24, 0x03	; 3
     8fc:	0e 94 24 1a 	call	0x3448	; 0x3448 <spi_put_c>
	spi_put_c(adress);
     900:	8c 2f       	mov	r24, r28
     902:	0e 94 24 1a 	call	0x3448	; 0x3448 <spi_put_c>
	data = spi_put_c(0xA0);
     906:	80 ea       	ldi	r24, 0xA0	; 160
     908:	0e 94 24 1a 	call	0x3448	; 0x3448 <spi_put_c>
	PORTB |= (1<<PB4);
     90c:	c4 9a       	sbi	0x18, 4	; 24
	return data;
}
     90e:	cf 91       	pop	r28
     910:	08 95       	ret

00000912 <mcp2515_write_register>:

void mcp2515_write_register( uint8_t adress, uint8_t data )
{
     912:	1f 93       	push	r17
     914:	cf 93       	push	r28
     916:	df 93       	push	r29
     918:	1f 92       	push	r1
     91a:	cd b7       	in	r28, 0x3d	; 61
     91c:	de b7       	in	r29, 0x3e	; 62
     91e:	18 2f       	mov	r17, r24
	PORTB &= ~(1<<PB4);
     920:	c4 98       	cbi	0x18, 4	; 24
	spi_put_c(SPI_WRITE);
     922:	82 e0       	ldi	r24, 0x02	; 2
     924:	69 83       	std	Y+1, r22	; 0x01
     926:	0e 94 24 1a 	call	0x3448	; 0x3448 <spi_put_c>
	spi_put_c(adress);
     92a:	81 2f       	mov	r24, r17
     92c:	0e 94 24 1a 	call	0x3448	; 0x3448 <spi_put_c>
	spi_put_c(data);
     930:	69 81       	ldd	r22, Y+1	; 0x01
     932:	86 2f       	mov	r24, r22
     934:	0e 94 24 1a 	call	0x3448	; 0x3448 <spi_put_c>
	PORTB |= (1<<PB4);
     938:	c4 9a       	sbi	0x18, 4	; 24
}
     93a:	0f 90       	pop	r0
     93c:	df 91       	pop	r29
     93e:	cf 91       	pop	r28
     940:	1f 91       	pop	r17
     942:	08 95       	ret

00000944 <mcp2515_bit_modify>:

void mcp2515_bit_modify(uint8_t adress, uint8_t mask, uint8_t data)
{
     944:	1f 93       	push	r17
     946:	cf 93       	push	r28
     948:	df 93       	push	r29
     94a:	00 d0       	rcall	.+0      	; 0x94c <mcp2515_bit_modify+0x8>
     94c:	cd b7       	in	r28, 0x3d	; 61
     94e:	de b7       	in	r29, 0x3e	; 62
     950:	18 2f       	mov	r17, r24
	PORTB &= ~(1<<PB4);
     952:	c4 98       	cbi	0x18, 4	; 24
	spi_put_c(SPI_BIT_MODIFY);
     954:	85 e0       	ldi	r24, 0x05	; 5
     956:	4a 83       	std	Y+2, r20	; 0x02
     958:	69 83       	std	Y+1, r22	; 0x01
     95a:	0e 94 24 1a 	call	0x3448	; 0x3448 <spi_put_c>
	spi_put_c(adress);
     95e:	81 2f       	mov	r24, r17
     960:	0e 94 24 1a 	call	0x3448	; 0x3448 <spi_put_c>
	spi_put_c(mask);
     964:	69 81       	ldd	r22, Y+1	; 0x01
     966:	86 2f       	mov	r24, r22
     968:	0e 94 24 1a 	call	0x3448	; 0x3448 <spi_put_c>
	spi_put_c(data);
     96c:	4a 81       	ldd	r20, Y+2	; 0x02
     96e:	84 2f       	mov	r24, r20
     970:	0e 94 24 1a 	call	0x3448	; 0x3448 <spi_put_c>
	PORTB |= (1<<PB4);
     974:	c4 9a       	sbi	0x18, 4	; 24
}
     976:	0f 90       	pop	r0
     978:	0f 90       	pop	r0
     97a:	df 91       	pop	r29
     97c:	cf 91       	pop	r28
     97e:	1f 91       	pop	r17
     980:	08 95       	ret

00000982 <mcp2515_init>:
	uart_put_c('-');
}
#endif

void mcp2515_init(uint16_t mask, uint16_t filter)
{
     982:	ef 92       	push	r14
     984:	ff 92       	push	r15
     986:	0f 93       	push	r16
     988:	1f 93       	push	r17
     98a:	cf 93       	push	r28
     98c:	df 93       	push	r29
     98e:	ec 01       	movw	r28, r24
     990:	8b 01       	movw	r16, r22

		PORTB &= ~(1<<PB2);
     992:	c2 98       	cbi	0x18, 2	; 24
		spi_put_c(SPI_RESET);
     994:	80 ec       	ldi	r24, 0xC0	; 192
     996:	0e 94 24 1a 	call	0x3448	; 0x3448 <spi_put_c>
		while ((mcp2515_read_register(CANSTAT) & 0xe0) != 0x80)
     99a:	8e e0       	ldi	r24, 0x0E	; 14
     99c:	0e 94 7a 04 	call	0x8f4	; 0x8f4 <mcp2515_read_register>
     9a0:	80 7e       	andi	r24, 0xE0	; 224
     9a2:	80 38       	cpi	r24, 0x80	; 128
     9a4:	d1 f7       	brne	.-12     	; 0x99a <mcp2515_init+0x18>
		{
		}
		PORTB |= (1<<PB2);
     9a6:	c2 9a       	sbi	0x18, 2	; 24
		delay(10);
     9a8:	8a e0       	ldi	r24, 0x0A	; 10
     9aa:	90 e0       	ldi	r25, 0x00	; 0
     9ac:	0e 94 f1 0b 	call	0x17e2	; 0x17e2 <delay>
		//BRP = 7
		mcp2515_bit_modify( CNF1, (1<<BRP0)|(1<<BRP1)|(1<<BRP2),  (1<<BRP0)|(1<<BRP1)|(1<<BRP2) );
     9b0:	47 e0       	ldi	r20, 0x07	; 7
     9b2:	67 e0       	ldi	r22, 0x07	; 7
     9b4:	8a e2       	ldi	r24, 0x2A	; 42
     9b6:	0e 94 a2 04 	call	0x944	; 0x944 <mcp2515_bit_modify>
		
		//	Prop Seg und Phase Seg1 einstellen
		mcp2515_bit_modify( CNF2,  (1<<BTLMODE) | (1<<PHSEG11), (1<<BTLMODE) | (1<<PHSEG11) );
     9ba:	40 e9       	ldi	r20, 0x90	; 144
     9bc:	60 e9       	ldi	r22, 0x90	; 144
     9be:	89 e2       	ldi	r24, 0x29	; 41
     9c0:	0e 94 a2 04 	call	0x944	; 0x944 <mcp2515_bit_modify>
		
		//  Wake-up Filter deaktivieren, Phase Seg2 einstellen
		mcp2515_bit_modify( CNF3, (1<<PHSEG21), (1<<PHSEG21) );
     9c4:	42 e0       	ldi	r20, 0x02	; 2
     9c6:	62 e0       	ldi	r22, 0x02	; 2
     9c8:	88 e2       	ldi	r24, 0x28	; 40
     9ca:	0e 94 a2 04 	call	0x944	; 0x944 <mcp2515_bit_modify>
		
		// Aktivieren der Rx Buffer Interrupts
		mcp2515_bit_modify( CANINTE,  (1<<RX1IE) | (1<<RX0IE) | (1<<ERRIE), (1<<RX1IE) | (1<<RX0IE) | (1<<ERRIE) );
     9ce:	43 e2       	ldi	r20, 0x23	; 35
     9d0:	63 e2       	ldi	r22, 0x23	; 35
     9d2:	8b e2       	ldi	r24, 0x2B	; 43
     9d4:	0e 94 a2 04 	call	0x944	; 0x944 <mcp2515_bit_modify>

		
		//Empfangsmasken Einschalten:
		mcp2515_bit_modify( RXB0CTRL, (1<<RXM0) | (1<<RXM1) | (1<<BUKT), (1<<RXM0) | (1<<BUKT) );
     9d8:	44 e2       	ldi	r20, 0x24	; 36
     9da:	64 e6       	ldi	r22, 0x64	; 100
     9dc:	80 e6       	ldi	r24, 0x60	; 96
     9de:	0e 94 a2 04 	call	0x944	; 0x944 <mcp2515_bit_modify>
		mcp2515_bit_modify( RXB1CTRL, (1<<RXM0) | (1<<RXM1), (1<<RXM0) ) ;
     9e2:	40 e2       	ldi	r20, 0x20	; 32
     9e4:	60 e6       	ldi	r22, 0x60	; 96
     9e6:	80 e7       	ldi	r24, 0x70	; 112
     9e8:	0e 94 a2 04 	call	0x944	; 0x944 <mcp2515_bit_modify>
		
		//Masken setzen:
		mcp2515_write_register( RXM0SIDH, mask>>3 );
     9ec:	7e 01       	movw	r14, r28
     9ee:	83 e0       	ldi	r24, 0x03	; 3
     9f0:	f6 94       	lsr	r15
     9f2:	e7 94       	ror	r14
     9f4:	8a 95       	dec	r24
     9f6:	e1 f7       	brne	.-8      	; 0x9f0 <mcp2515_init+0x6e>
     9f8:	6e 2d       	mov	r22, r14
     9fa:	80 e2       	ldi	r24, 0x20	; 32
     9fc:	0e 94 89 04 	call	0x912	; 0x912 <mcp2515_write_register>
		mcp2515_bit_modify( RXM0SIDL, 0xE0,mask<<5 );
     a00:	c2 95       	swap	r28
     a02:	cc 0f       	add	r28, r28
     a04:	c0 7e       	andi	r28, 0xE0	; 224
     a06:	4c 2f       	mov	r20, r28
     a08:	60 ee       	ldi	r22, 0xE0	; 224
     a0a:	81 e2       	ldi	r24, 0x21	; 33
     a0c:	0e 94 a2 04 	call	0x944	; 0x944 <mcp2515_bit_modify>
		
		mcp2515_write_register( RXM1SIDH, mask>>3 );
     a10:	6e 2d       	mov	r22, r14
     a12:	84 e2       	ldi	r24, 0x24	; 36
     a14:	0e 94 89 04 	call	0x912	; 0x912 <mcp2515_write_register>
		mcp2515_bit_modify( RXM1SIDL, 0xE0,mask<<5 );
     a18:	4c 2f       	mov	r20, r28
     a1a:	60 ee       	ldi	r22, 0xE0	; 224
     a1c:	85 e2       	ldi	r24, 0x25	; 37
     a1e:	0e 94 a2 04 	call	0x944	; 0x944 <mcp2515_bit_modify>
		
		//Filter setzen:
		mcp2515_bit_modify( RXF0SIDH, 0xFF, filter>>3 );
     a22:	e8 01       	movw	r28, r16
     a24:	93 e0       	ldi	r25, 0x03	; 3
     a26:	d6 95       	lsr	r29
     a28:	c7 95       	ror	r28
     a2a:	9a 95       	dec	r25
     a2c:	e1 f7       	brne	.-8      	; 0xa26 <mcp2515_init+0xa4>
     a2e:	4c 2f       	mov	r20, r28
     a30:	6f ef       	ldi	r22, 0xFF	; 255
     a32:	80 e0       	ldi	r24, 0x00	; 0
     a34:	0e 94 a2 04 	call	0x944	; 0x944 <mcp2515_bit_modify>
		mcp2515_bit_modify( RXF0SIDL, 224,filter<<5 );
     a38:	02 95       	swap	r16
     a3a:	00 0f       	add	r16, r16
     a3c:	00 7e       	andi	r16, 0xE0	; 224
     a3e:	40 2f       	mov	r20, r16
     a40:	60 ee       	ldi	r22, 0xE0	; 224
     a42:	81 e0       	ldi	r24, 0x01	; 1
     a44:	0e 94 a2 04 	call	0x944	; 0x944 <mcp2515_bit_modify>
		
		mcp2515_bit_modify( RXF1SIDH, 0xFF, filter>>3 );
     a48:	4c 2f       	mov	r20, r28
     a4a:	6f ef       	ldi	r22, 0xFF	; 255
     a4c:	84 e0       	ldi	r24, 0x04	; 4
     a4e:	0e 94 a2 04 	call	0x944	; 0x944 <mcp2515_bit_modify>
		mcp2515_bit_modify( RXF1SIDL, 224,filter<<5 );
     a52:	40 2f       	mov	r20, r16
     a54:	60 ee       	ldi	r22, 0xE0	; 224
     a56:	85 e0       	ldi	r24, 0x05	; 5
     a58:	0e 94 a2 04 	call	0x944	; 0x944 <mcp2515_bit_modify>
		
		mcp2515_bit_modify( RXF2SIDH, 0xFF, filter>>3 );
     a5c:	4c 2f       	mov	r20, r28
     a5e:	6f ef       	ldi	r22, 0xFF	; 255
     a60:	88 e0       	ldi	r24, 0x08	; 8
     a62:	0e 94 a2 04 	call	0x944	; 0x944 <mcp2515_bit_modify>
		mcp2515_bit_modify( RXF2SIDL, 224,filter<<5 );
     a66:	40 2f       	mov	r20, r16
     a68:	60 ee       	ldi	r22, 0xE0	; 224
     a6a:	89 e0       	ldi	r24, 0x09	; 9
     a6c:	0e 94 a2 04 	call	0x944	; 0x944 <mcp2515_bit_modify>
		
		mcp2515_bit_modify( RXF3SIDH, 0xFF, filter>>3 );
     a70:	4c 2f       	mov	r20, r28
     a72:	6f ef       	ldi	r22, 0xFF	; 255
     a74:	80 e1       	ldi	r24, 0x10	; 16
     a76:	0e 94 a2 04 	call	0x944	; 0x944 <mcp2515_bit_modify>
		mcp2515_bit_modify( RXF3SIDL, 224,filter<<5 );
     a7a:	40 2f       	mov	r20, r16
     a7c:	60 ee       	ldi	r22, 0xE0	; 224
     a7e:	81 e1       	ldi	r24, 0x11	; 17
     a80:	0e 94 a2 04 	call	0x944	; 0x944 <mcp2515_bit_modify>
		
		mcp2515_bit_modify( RXF4SIDH, 0xFF, filter>>3 );
     a84:	4c 2f       	mov	r20, r28
     a86:	6f ef       	ldi	r22, 0xFF	; 255
     a88:	84 e1       	ldi	r24, 0x14	; 20
     a8a:	0e 94 a2 04 	call	0x944	; 0x944 <mcp2515_bit_modify>
		mcp2515_bit_modify( RXF4SIDH, 224,filter<<5 );
     a8e:	40 2f       	mov	r20, r16
     a90:	60 ee       	ldi	r22, 0xE0	; 224
     a92:	84 e1       	ldi	r24, 0x14	; 20
     a94:	0e 94 a2 04 	call	0x944	; 0x944 <mcp2515_bit_modify>
		
		mcp2515_bit_modify( RXF5SIDH, 0xFF, filter>>3 );
     a98:	4c 2f       	mov	r20, r28
     a9a:	6f ef       	ldi	r22, 0xFF	; 255
     a9c:	88 e1       	ldi	r24, 0x18	; 24
     a9e:	0e 94 a2 04 	call	0x944	; 0x944 <mcp2515_bit_modify>
		mcp2515_bit_modify( RXF5SIDH, 224,filter<<5 );
     aa2:	40 2f       	mov	r20, r16
     aa4:	60 ee       	ldi	r22, 0xE0	; 224
     aa6:	88 e1       	ldi	r24, 0x18	; 24
     aa8:	0e 94 a2 04 	call	0x944	; 0x944 <mcp2515_bit_modify>
		
		
		// Deaktivieren der Pins RXnBF Pins (High Impedance State)
		mcp2515_bit_modify( BFPCTRL,0xFF, 0 );
     aac:	40 e0       	ldi	r20, 0x00	; 0
     aae:	6f ef       	ldi	r22, 0xFF	; 255
     ab0:	8c e0       	ldi	r24, 0x0C	; 12
     ab2:	0e 94 a2 04 	call	0x944	; 0x944 <mcp2515_bit_modify>
		
		// TXnRTS Bits als Inputs schalten
		mcp2515_bit_modify( TXRTSCTRL,0xFF, 0 );
     ab6:	40 e0       	ldi	r20, 0x00	; 0
     ab8:	6f ef       	ldi	r22, 0xFF	; 255
     aba:	8d e0       	ldi	r24, 0x0D	; 13
     abc:	0e 94 a2 04 	call	0x944	; 0x944 <mcp2515_bit_modify>
		
		// Device zurueck in den normalen Modus versetzten
		mcp2515_bit_modify( CANCTRL, 0xE0, 0);
     ac0:	40 e0       	ldi	r20, 0x00	; 0
     ac2:	60 ee       	ldi	r22, 0xE0	; 224
     ac4:	8f e0       	ldi	r24, 0x0F	; 15
     ac6:	0e 94 a2 04 	call	0x944	; 0x944 <mcp2515_bit_modify>
		
		//Loopback modus
		//mcp2515_bit_modify( CANCTRL, 0xE0, 0b01000000);
		
		PORTB |= (1<<PB2);
     aca:	c2 9a       	sbi	0x18, 2	; 24
}
     acc:	df 91       	pop	r29
     ace:	cf 91       	pop	r28
     ad0:	1f 91       	pop	r17
     ad2:	0f 91       	pop	r16
     ad4:	ff 90       	pop	r15
     ad6:	ef 90       	pop	r14
     ad8:	08 95       	ret

00000ada <can_send_message>:


uint8_t can_send_message(CANMessage *p_message)
{
     ada:	cf 92       	push	r12
     adc:	df 92       	push	r13
     ade:	ef 92       	push	r14
     ae0:	ff 92       	push	r15
     ae2:	0f 93       	push	r16
     ae4:	1f 93       	push	r17
     ae6:	cf 93       	push	r28
     ae8:	df 93       	push	r29
     aea:	1f 92       	push	r1
     aec:	cd b7       	in	r28, 0x3d	; 61
     aee:	de b7       	in	r29, 0x3e	; 62
     af0:	8c 01       	movw	r16, r24
	uint8_t status, address;
	
	// Status des MCP2515 auslesen
	PORTB &= ~(1<<PB4);
     af2:	c4 98       	cbi	0x18, 4	; 24
	spi_put_c(SPI_READ_STATUS);
     af4:	80 ea       	ldi	r24, 0xA0	; 160
     af6:	0e 94 24 1a 	call	0x3448	; 0x3448 <spi_put_c>
	status = spi_put_c(0xff);
     afa:	8f ef       	ldi	r24, 0xFF	; 255
     afc:	0e 94 24 1a 	call	0x3448	; 0x3448 <spi_put_c>
     b00:	89 83       	std	Y+1, r24	; 0x01
	spi_put_c(0xff);
     b02:	8f ef       	ldi	r24, 0xFF	; 255
     b04:	0e 94 24 1a 	call	0x3448	; 0x3448 <spi_put_c>
	PORTB |= (1<<PB4);
     b08:	c4 9a       	sbi	0x18, 4	; 24
	*  2   TXB0CNTRL.TXREQ
	*  4   TXB1CNTRL.TXREQ
	*  6   TXB2CNTRL.TXREQ
	*/
	
	if (bit_is_clear(status, 2))
     b0a:	89 81       	ldd	r24, Y+1	; 0x01
     b0c:	82 ff       	sbrs	r24, 2
     b0e:	09 c0       	rjmp	.+18     	; 0xb22 <can_send_message+0x48>
	{
		address = 0x00;
	}
	else if (bit_is_clear(status, 4))
     b10:	89 81       	ldd	r24, Y+1	; 0x01
     b12:	84 ff       	sbrs	r24, 4
     b14:	08 c0       	rjmp	.+16     	; 0xb26 <can_send_message+0x4c>
	{
		address = 0x02;
	}
	else if (bit_is_clear(status, 6))
     b16:	89 81       	ldd	r24, Y+1	; 0x01
     b18:	86 fd       	sbrc	r24, 6
     b1a:	52 c0       	rjmp	.+164    	; 0xbc0 <can_send_message+0xe6>
	{
		address = 0x04;
     b1c:	54 e0       	ldi	r21, 0x04	; 4
     b1e:	d5 2e       	mov	r13, r21
     b20:	04 c0       	rjmp	.+8      	; 0xb2a <can_send_message+0x50>
	*  6   TXB2CNTRL.TXREQ
	*/
	
	if (bit_is_clear(status, 2))
	{
		address = 0x00;
     b22:	d1 2c       	mov	r13, r1
     b24:	02 c0       	rjmp	.+4      	; 0xb2a <can_send_message+0x50>
	}
	else if (bit_is_clear(status, 4))
	{
		address = 0x02;
     b26:	42 e0       	ldi	r20, 0x02	; 2
     b28:	d4 2e       	mov	r13, r20
		/* Alle Puffer sind belegt,
		Nachricht kann nicht verschickt werden */
		return 0;
	}
	
	PORTB &= ~(1<<PB4);    // CS Low
     b2a:	c4 98       	cbi	0x18, 4	; 24
	spi_put_c(SPI_WRITE_TX | address);
     b2c:	8d 2d       	mov	r24, r13
     b2e:	80 64       	ori	r24, 0x40	; 64
     b30:	0e 94 24 1a 	call	0x3448	; 0x3448 <spi_put_c>
	
	// Standard ID einstellen
	spi_put_c((uint8_t) (p_message->id>>3));
     b34:	f8 01       	movw	r30, r16
     b36:	80 81       	ld	r24, Z
     b38:	91 81       	ldd	r25, Z+1	; 0x01
     b3a:	33 e0       	ldi	r19, 0x03	; 3
     b3c:	96 95       	lsr	r25
     b3e:	87 95       	ror	r24
     b40:	3a 95       	dec	r19
     b42:	e1 f7       	brne	.-8      	; 0xb3c <can_send_message+0x62>
     b44:	0e 94 24 1a 	call	0x3448	; 0x3448 <spi_put_c>
	spi_put_c((uint8_t) (p_message->id<<5));
     b48:	f8 01       	movw	r30, r16
     b4a:	80 81       	ld	r24, Z
     b4c:	82 95       	swap	r24
     b4e:	88 0f       	add	r24, r24
     b50:	80 7e       	andi	r24, 0xE0	; 224
     b52:	0e 94 24 1a 	call	0x3448	; 0x3448 <spi_put_c>
	
	// Extended ID
	spi_put_c(0x00);
     b56:	80 e0       	ldi	r24, 0x00	; 0
     b58:	0e 94 24 1a 	call	0x3448	; 0x3448 <spi_put_c>
	spi_put_c(0x00);
     b5c:	80 e0       	ldi	r24, 0x00	; 0
     b5e:	0e 94 24 1a 	call	0x3448	; 0x3448 <spi_put_c>
	
	uint8_t length = p_message->length;
     b62:	f8 01       	movw	r30, r16
     b64:	c3 80       	ldd	r12, Z+3	; 0x03
     b66:	f8 e0       	ldi	r31, 0x08	; 8
     b68:	fc 15       	cp	r31, r12
     b6a:	10 f4       	brcc	.+4      	; 0xb70 <can_send_message+0x96>
     b6c:	28 e0       	ldi	r18, 0x08	; 8
     b6e:	c2 2e       	mov	r12, r18
	{
		length = 8;
	}
	
	// Ist die Nachricht ein "Remote Transmit Request" ?
	if (p_message->rtr)
     b70:	f8 01       	movw	r30, r16
     b72:	82 81       	ldd	r24, Z+2	; 0x02
     b74:	88 23       	and	r24, r24
     b76:	29 f0       	breq	.+10     	; 0xb82 <can_send_message+0xa8>
	{
		/* Ein RTR hat zwar eine Laenge,
		aber enthaelt keine Daten */
		
		// Nachrichten Laenge + RTR einstellen
		spi_put_c((1<<RTR) | length);
     b78:	8c 2d       	mov	r24, r12
     b7a:	80 64       	ori	r24, 0x40	; 64
     b7c:	0e 94 24 1a 	call	0x3448	; 0x3448 <spi_put_c>
     b80:	11 c0       	rjmp	.+34     	; 0xba4 <can_send_message+0xca>
	}
	else
	{
		// Nachrichten Laenge einstellen
		spi_put_c(length);
     b82:	8c 2d       	mov	r24, r12
     b84:	0e 94 24 1a 	call	0x3448	; 0x3448 <spi_put_c>
		
		// Daten
		for (uint8_t i=0;i<length;i++)
     b88:	e1 2c       	mov	r14, r1
     b8a:	f1 2c       	mov	r15, r1
     b8c:	09 c0       	rjmp	.+18     	; 0xba0 <can_send_message+0xc6>
		
		PORTB |= (1<<PB2);
}


uint8_t can_send_message(CANMessage *p_message)
     b8e:	f8 01       	movw	r30, r16
     b90:	ee 0d       	add	r30, r14
     b92:	ff 1d       	adc	r31, r15
		spi_put_c(length);
		
		// Daten
		for (uint8_t i=0;i<length;i++)
		{
			spi_put_c(p_message->data[i]);
     b94:	84 81       	ldd	r24, Z+4	; 0x04
     b96:	0e 94 24 1a 	call	0x3448	; 0x3448 <spi_put_c>
     b9a:	ff ef       	ldi	r31, 0xFF	; 255
     b9c:	ef 1a       	sub	r14, r31
     b9e:	ff 0a       	sbc	r15, r31
	{
		// Nachrichten Laenge einstellen
		spi_put_c(length);
		
		// Daten
		for (uint8_t i=0;i<length;i++)
     ba0:	ec 14       	cp	r14, r12
     ba2:	a8 f3       	brcs	.-22     	; 0xb8e <can_send_message+0xb4>
		{
			spi_put_c(p_message->data[i]);
		}
	}
	PORTB |= (1<<PB4);      // CS auf High
     ba4:	c4 9a       	sbi	0x18, 4	; 24
	
	asm volatile ("nop");
     ba6:	00 00       	nop
	
	/* CAN Nachricht verschicken
	die letzten drei Bit im RTS Kommando geben an welcher
	Puffer gesendet werden soll */
	PORTB &= ~(1<<PB4);    // CS wieder Low
     ba8:	c4 98       	cbi	0x18, 4	; 24
	if (address == 0x00)
     baa:	d1 10       	cpse	r13, r1
     bac:	02 c0       	rjmp	.+4      	; 0xbb2 <can_send_message+0xd8>
	{
		spi_put_c(SPI_RTS | 0x01);
     bae:	81 e8       	ldi	r24, 0x81	; 129
     bb0:	02 c0       	rjmp	.+4      	; 0xbb6 <can_send_message+0xdc>
	}
	else
	{
		spi_put_c(SPI_RTS | address);
     bb2:	8d 2d       	mov	r24, r13
     bb4:	80 68       	ori	r24, 0x80	; 128
     bb6:	0e 94 24 1a 	call	0x3448	; 0x3448 <spi_put_c>
	}
	PORTB |= (1<<PB4);      // CS auf High
     bba:	c4 9a       	sbi	0x18, 4	; 24
	
	return 1;
     bbc:	81 e0       	ldi	r24, 0x01	; 1
     bbe:	01 c0       	rjmp	.+2      	; 0xbc2 <can_send_message+0xe8>
	}
	else
	{
		/* Alle Puffer sind belegt,
		Nachricht kann nicht verschickt werden */
		return 0;
     bc0:	80 e0       	ldi	r24, 0x00	; 0
		spi_put_c(SPI_RTS | address);
	}
	PORTB |= (1<<PB4);      // CS auf High
	
	return 1;
}
     bc2:	0f 90       	pop	r0
     bc4:	df 91       	pop	r29
     bc6:	cf 91       	pop	r28
     bc8:	1f 91       	pop	r17
     bca:	0f 91       	pop	r16
     bcc:	ff 90       	pop	r15
     bce:	ef 90       	pop	r14
     bd0:	df 90       	pop	r13
     bd2:	cf 90       	pop	r12
     bd4:	08 95       	ret

00000bd6 <mcp2515_read_rx_status>:


uint8_t mcp2515_read_rx_status(void)
{
     bd6:	cf 93       	push	r28
	uint8_t data;
	
	// /CS des MCP2515 auf Low ziehen
	PORTB &= ~(1<<PB4);
     bd8:	c4 98       	cbi	0x18, 4	; 24
	
	spi_put_c(SPI_RX_STATUS);
     bda:	80 eb       	ldi	r24, 0xB0	; 176
     bdc:	0e 94 24 1a 	call	0x3448	; 0x3448 <spi_put_c>
	data = spi_put_c(0xff);
     be0:	8f ef       	ldi	r24, 0xFF	; 255
     be2:	0e 94 24 1a 	call	0x3448	; 0x3448 <spi_put_c>
     be6:	c8 2f       	mov	r28, r24
	
	// Die Daten werden noch einmal wiederholt gesendet,
	// man braucht also nur eins der beiden Bytes auswerten.
	spi_put_c(0xff);
     be8:	8f ef       	ldi	r24, 0xFF	; 255
     bea:	0e 94 24 1a 	call	0x3448	; 0x3448 <spi_put_c>
	
	// /CS Leitung wieder freigeben
	PORTB |= (1<<PB4);
     bee:	c4 9a       	sbi	0x18, 4	; 24
	
	return data;
}
     bf0:	8c 2f       	mov	r24, r28
     bf2:	cf 91       	pop	r28
     bf4:	08 95       	ret

00000bf6 <can_get_message>:

uint8_t can_get_message(CANMessage *p_message)
{
     bf6:	df 92       	push	r13
     bf8:	ef 92       	push	r14
     bfa:	ff 92       	push	r15
     bfc:	0f 93       	push	r16
     bfe:	1f 93       	push	r17
     c00:	cf 93       	push	r28
     c02:	df 93       	push	r29
     c04:	1f 92       	push	r1
     c06:	cd b7       	in	r28, 0x3d	; 61
     c08:	de b7       	in	r29, 0x3e	; 62
     c0a:	8c 01       	movw	r16, r24
	// Status auslesen
	uint8_t status = mcp2515_read_rx_status();
     c0c:	0e 94 eb 05 	call	0xbd6	; 0xbd6 <mcp2515_read_rx_status>
     c10:	89 83       	std	Y+1, r24	; 0x01

	if (bit_is_set(status,6))
     c12:	89 81       	ldd	r24, Y+1	; 0x01
     c14:	86 ff       	sbrs	r24, 6
     c16:	03 c0       	rjmp	.+6      	; 0xc1e <can_get_message+0x28>
	{
		// Nachricht in Puffer 0
		PORTB &= ~(1<<PB4);	    // CS Low
     c18:	c4 98       	cbi	0x18, 4	; 24
		spi_put_c(SPI_READ_RX);
     c1a:	80 e9       	ldi	r24, 0x90	; 144
     c1c:	05 c0       	rjmp	.+10     	; 0xc28 <can_get_message+0x32>
	}
	else if (bit_is_set(status,7))
     c1e:	89 81       	ldd	r24, Y+1	; 0x01
     c20:	87 ff       	sbrs	r24, 7
     c22:	4b c0       	rjmp	.+150    	; 0xcba <can_get_message+0xc4>
	{
		// Nachricht in Puffer 1
		PORTB &= ~(1<<PB4);    // CS Low
     c24:	c4 98       	cbi	0x18, 4	; 24
		spi_put_c(SPI_READ_RX | 0x04);
     c26:	84 e9       	ldi	r24, 0x94	; 148
     c28:	0e 94 24 1a 	call	0x3448	; 0x3448 <spi_put_c>
		/* Fehler: Keine neue Nachricht vorhanden */
		return 0xff;
	}
	
	// Standard ID auslesen
	p_message->id =  (uint16_t) spi_put_c(0xff) << 3;
     c2c:	8f ef       	ldi	r24, 0xFF	; 255
     c2e:	0e 94 24 1a 	call	0x3448	; 0x3448 <spi_put_c>
     c32:	98 e0       	ldi	r25, 0x08	; 8
     c34:	89 9f       	mul	r24, r25
     c36:	70 01       	movw	r14, r0
     c38:	11 24       	eor	r1, r1
     c3a:	f8 01       	movw	r30, r16
     c3c:	f1 82       	std	Z+1, r15	; 0x01
     c3e:	e0 82       	st	Z, r14
	p_message->id |= (uint16_t) spi_put_c(0xff) >> 5;
     c40:	8f ef       	ldi	r24, 0xFF	; 255
     c42:	0e 94 24 1a 	call	0x3448	; 0x3448 <spi_put_c>
     c46:	82 95       	swap	r24
     c48:	86 95       	lsr	r24
     c4a:	87 70       	andi	r24, 0x07	; 7
     c4c:	e8 2a       	or	r14, r24
     c4e:	f8 01       	movw	r30, r16
     c50:	f1 82       	std	Z+1, r15	; 0x01
     c52:	e0 82       	st	Z, r14
	
	spi_put_c(0xff);
     c54:	8f ef       	ldi	r24, 0xFF	; 255
     c56:	0e 94 24 1a 	call	0x3448	; 0x3448 <spi_put_c>
	spi_put_c(0xff);
     c5a:	8f ef       	ldi	r24, 0xFF	; 255
     c5c:	0e 94 24 1a 	call	0x3448	; 0x3448 <spi_put_c>
	
	// Laenge auslesen
	uint8_t length = spi_put_c(0xff) & 0x0f;
     c60:	8f ef       	ldi	r24, 0xFF	; 255
     c62:	0e 94 24 1a 	call	0x3448	; 0x3448 <spi_put_c>
     c66:	6f e0       	ldi	r22, 0x0F	; 15
     c68:	d6 2e       	mov	r13, r22
     c6a:	d8 22       	and	r13, r24
	p_message->length = length;
     c6c:	f8 01       	movw	r30, r16
     c6e:	d3 82       	std	Z+3, r13	; 0x03
	
	// Daten auslesen
	for (uint8_t i=0;i<length;i++)
     c70:	e1 2c       	mov	r14, r1
     c72:	f1 2c       	mov	r15, r1
     c74:	0a c0       	rjmp	.+20     	; 0xc8a <can_get_message+0x94>
	{
		p_message->data[i] = spi_put_c(0xff);
     c76:	8f ef       	ldi	r24, 0xFF	; 255
     c78:	0e 94 24 1a 	call	0x3448	; 0x3448 <spi_put_c>
	PORTB |= (1<<PB4);
	
	return data;
}

uint8_t can_get_message(CANMessage *p_message)
     c7c:	f8 01       	movw	r30, r16
     c7e:	ee 0d       	add	r30, r14
     c80:	ff 1d       	adc	r31, r15
	p_message->length = length;
	
	// Daten auslesen
	for (uint8_t i=0;i<length;i++)
	{
		p_message->data[i] = spi_put_c(0xff);
     c82:	84 83       	std	Z+4, r24	; 0x04
     c84:	ff ef       	ldi	r31, 0xFF	; 255
     c86:	ef 1a       	sub	r14, r31
     c88:	ff 0a       	sbc	r15, r31
	// Laenge auslesen
	uint8_t length = spi_put_c(0xff) & 0x0f;
	p_message->length = length;
	
	// Daten auslesen
	for (uint8_t i=0;i<length;i++)
     c8a:	ed 14       	cp	r14, r13
     c8c:	a0 f3       	brcs	.-24     	; 0xc76 <can_get_message+0x80>
	{
		p_message->data[i] = spi_put_c(0xff);
	}
	
	PORTB |= (1<<PB4);
     c8e:	c4 9a       	sbi	0x18, 4	; 24
	
	if (bit_is_set(status,3))
     c90:	89 81       	ldd	r24, Y+1	; 0x01
     c92:	83 ff       	sbrs	r24, 3
     c94:	04 c0       	rjmp	.+8      	; 0xc9e <can_get_message+0xa8>
	{
		p_message->rtr = 1;
     c96:	81 e0       	ldi	r24, 0x01	; 1
     c98:	f8 01       	movw	r30, r16
     c9a:	82 83       	std	Z+2, r24	; 0x02
     c9c:	02 c0       	rjmp	.+4      	; 0xca2 <can_get_message+0xac>
	}
	else
	{
		p_message->rtr = 0;
     c9e:	f8 01       	movw	r30, r16
     ca0:	12 82       	std	Z+2, r1	; 0x02
	}
	
	// Interrupt Flag loeschen
	if (bit_is_set(status,6))
     ca2:	89 81       	ldd	r24, Y+1	; 0x01
	{
		mcp2515_bit_modify(CANINTF, (1<<RX0IF), 0);
     ca4:	40 e0       	ldi	r20, 0x00	; 0
	{
		p_message->rtr = 0;
	}
	
	// Interrupt Flag loeschen
	if (bit_is_set(status,6))
     ca6:	86 ff       	sbrs	r24, 6
     ca8:	02 c0       	rjmp	.+4      	; 0xcae <can_get_message+0xb8>
	{
		mcp2515_bit_modify(CANINTF, (1<<RX0IF), 0);
     caa:	61 e0       	ldi	r22, 0x01	; 1
     cac:	01 c0       	rjmp	.+2      	; 0xcb0 <can_get_message+0xba>
	}
	else
	{
		mcp2515_bit_modify(CANINTF, (1<<RX1IF), 0);
     cae:	62 e0       	ldi	r22, 0x02	; 2
     cb0:	8c e2       	ldi	r24, 0x2C	; 44
     cb2:	0e 94 a2 04 	call	0x944	; 0x944 <mcp2515_bit_modify>
	}
	
	return (status);
     cb6:	89 81       	ldd	r24, Y+1	; 0x01
     cb8:	01 c0       	rjmp	.+2      	; 0xcbc <can_get_message+0xc6>
		spi_put_c(SPI_READ_RX | 0x04);
	}
	else
	{
		/* Fehler: Keine neue Nachricht vorhanden */
		return 0xff;
     cba:	8f ef       	ldi	r24, 0xFF	; 255
	{
		mcp2515_bit_modify(CANINTF, (1<<RX1IF), 0);
	}
	
	return (status);
}
     cbc:	0f 90       	pop	r0
     cbe:	df 91       	pop	r29
     cc0:	cf 91       	pop	r28
     cc2:	1f 91       	pop	r17
     cc4:	0f 91       	pop	r16
     cc6:	ff 90       	pop	r15
     cc8:	ef 90       	pop	r14
     cca:	df 90       	pop	r13
     ccc:	08 95       	ret

00000cce <handleCanMessage>:


uint8_t handleCanMessage(volatile sensValues* actualValues_1,volatile sensValues* actualValues_2)
{
     cce:	ef 92       	push	r14
     cd0:	ff 92       	push	r15
     cd2:	0f 93       	push	r16
     cd4:	1f 93       	push	r17
     cd6:	cf 93       	push	r28
     cd8:	df 93       	push	r29
     cda:	cd b7       	in	r28, 0x3d	; 61
     cdc:	de b7       	in	r29, 0x3e	; 62
     cde:	2c 97       	sbiw	r28, 0x0c	; 12
     ce0:	0f b6       	in	r0, 0x3f	; 63
     ce2:	f8 94       	cli
     ce4:	de bf       	out	0x3e, r29	; 62
     ce6:	0f be       	out	0x3f, r0	; 63
     ce8:	cd bf       	out	0x3d, r28	; 61
     cea:	7c 01       	movw	r14, r24
     cec:	8b 01       	movw	r16, r22
	CANMessage inMessage;
	if (can_get_message(&inMessage) != 0xff)
     cee:	ce 01       	movw	r24, r28
     cf0:	01 96       	adiw	r24, 0x01	; 1
     cf2:	0e 94 fb 05 	call	0xbf6	; 0xbf6 <can_get_message>
     cf6:	8f 3f       	cpi	r24, 0xFF	; 255
     cf8:	09 f4       	brne	.+2      	; 0xcfc <handleCanMessage+0x2e>
     cfa:	df c0       	rjmp	.+446    	; 0xeba <handleCanMessage+0x1ec>
	{
		unsigned char MessageSenderId=0;
		unsigned char MessageNumber=0;
		MessageSenderId = inMessage.id >> 4;
     cfc:	89 81       	ldd	r24, Y+1	; 0x01
     cfe:	9a 81       	ldd	r25, Y+2	; 0x02
		MessageNumber = inMessage.id & 0b00001111;
     d00:	28 2f       	mov	r18, r24
     d02:	2f 70       	andi	r18, 0x0F	; 15
	CANMessage inMessage;
	if (can_get_message(&inMessage) != 0xff)
	{
		unsigned char MessageSenderId=0;
		unsigned char MessageNumber=0;
		MessageSenderId = inMessage.id >> 4;
     d04:	f4 e0       	ldi	r31, 0x04	; 4
     d06:	96 95       	lsr	r25
     d08:	87 95       	ror	r24
     d0a:	fa 95       	dec	r31
     d0c:	e1 f7       	brne	.-8      	; 0xd06 <handleCanMessage+0x38>
		mcp2515_bit_modify(CANINTF, 1<<ERRIF, 1<<ERRIF);
		return 0;
	}
	can_new_interrupt=0;
	return 0;
     d0e:	99 27       	eor	r25, r25
		unsigned char MessageSenderId=0;
		unsigned char MessageNumber=0;
		MessageSenderId = inMessage.id >> 4;
		MessageNumber = inMessage.id & 0b00001111;
		
		switch (MessageSenderId)
     d10:	81 30       	cpi	r24, 0x01	; 1
     d12:	91 05       	cpc	r25, r1
     d14:	21 f0       	breq	.+8      	; 0xd1e <handleCanMessage+0x50>
     d16:	02 97       	sbiw	r24, 0x02	; 2
     d18:	09 f0       	breq	.+2      	; 0xd1c <handleCanMessage+0x4e>
     d1a:	e8 c0       	rjmp	.+464    	; 0xeec <handleCanMessage+0x21e>
     d1c:	3b c0       	rjmp	.+118    	; 0xd94 <handleCanMessage+0xc6>
		{
			case 1:
			
			if ( (MessageNumber) == 1)
     d1e:	21 30       	cpi	r18, 0x01	; 1
     d20:	21 f4       	brne	.+8      	; 0xd2a <handleCanMessage+0x5c>
			{
				actualValues_1->boschTemp  =	(int16_t)inMessage.data[0]<<8;
     d22:	9d 81       	ldd	r25, Y+5	; 0x05
     d24:	80 e0       	ldi	r24, 0x00	; 0
     d26:	f7 01       	movw	r30, r14
     d28:	3a c0       	rjmp	.+116    	; 0xd9e <handleCanMessage+0xd0>
				actualValues_1->hytTemp   |=	(uint16_t)inMessage.data[5];
				actualValues_1->feuchte    =	(uint16_t)inMessage.data[6]<<8;
				actualValues_1->feuchte   |=	(uint16_t)inMessage.data[7];
			}
			
			else if ( MessageNumber == 2)
     d2a:	22 30       	cpi	r18, 0x02	; 2
     d2c:	61 f5       	brne	.+88     	; 0xd86 <handleCanMessage+0xb8>
			{
				actualValues_1->pressure =	 (int32_t)inMessage.data[0]<<24;
     d2e:	8d 81       	ldd	r24, Y+5	; 0x05
     d30:	90 e0       	ldi	r25, 0x00	; 0
     d32:	a0 e0       	ldi	r26, 0x00	; 0
     d34:	b0 e0       	ldi	r27, 0x00	; 0
     d36:	b8 2f       	mov	r27, r24
     d38:	aa 27       	eor	r26, r26
     d3a:	99 27       	eor	r25, r25
     d3c:	88 27       	eor	r24, r24
     d3e:	f7 01       	movw	r30, r14
     d40:	80 87       	std	Z+8, r24	; 0x08
     d42:	91 87       	std	Z+9, r25	; 0x09
     d44:	a2 87       	std	Z+10, r26	; 0x0a
     d46:	b3 87       	std	Z+11, r27	; 0x0b
				actualValues_1->pressure |=	 (int32_t)inMessage.data[1]<<16;
     d48:	80 85       	ldd	r24, Z+8	; 0x08
     d4a:	91 85       	ldd	r25, Z+9	; 0x09
     d4c:	a2 85       	ldd	r26, Z+10	; 0x0a
     d4e:	b3 85       	ldd	r27, Z+11	; 0x0b
     d50:	2e 81       	ldd	r18, Y+6	; 0x06
     d52:	a2 2b       	or	r26, r18
     d54:	80 87       	std	Z+8, r24	; 0x08
     d56:	91 87       	std	Z+9, r25	; 0x09
     d58:	a2 87       	std	Z+10, r26	; 0x0a
     d5a:	b3 87       	std	Z+11, r27	; 0x0b
				actualValues_1->pressure |=	 (int32_t)inMessage.data[2]<<8;
     d5c:	80 85       	ldd	r24, Z+8	; 0x08
     d5e:	91 85       	ldd	r25, Z+9	; 0x09
     d60:	a2 85       	ldd	r26, Z+10	; 0x0a
     d62:	b3 85       	ldd	r27, Z+11	; 0x0b
     d64:	2f 81       	ldd	r18, Y+7	; 0x07
     d66:	92 2b       	or	r25, r18
     d68:	80 87       	std	Z+8, r24	; 0x08
     d6a:	91 87       	std	Z+9, r25	; 0x09
     d6c:	a2 87       	std	Z+10, r26	; 0x0a
     d6e:	b3 87       	std	Z+11, r27	; 0x0b
				actualValues_1->pressure |=  (int32_t)inMessage.data[3];
     d70:	40 85       	ldd	r20, Z+8	; 0x08
     d72:	51 85       	ldd	r21, Z+9	; 0x09
     d74:	62 85       	ldd	r22, Z+10	; 0x0a
     d76:	73 85       	ldd	r23, Z+11	; 0x0b
     d78:	88 85       	ldd	r24, Y+8	; 0x08
     d7a:	48 2b       	or	r20, r24
     d7c:	40 87       	std	Z+8, r20	; 0x08
     d7e:	51 87       	std	Z+9, r21	; 0x09
     d80:	62 87       	std	Z+10, r22	; 0x0a
     d82:	73 87       	std	Z+11, r23	; 0x0b
     d84:	60 c0       	rjmp	.+192    	; 0xe46 <handleCanMessage+0x178>
				actualValues_1->k30Status =	inMessage.data[4];
				actualValues_1->ppfd = (int16_t)inMessage.data[5]<<8;
				actualValues_1->ppfd |= (int16_t)inMessage.data[6];
				
			}
			else if (MessageNumber ==3 )
     d86:	23 30       	cpi	r18, 0x03	; 3
     d88:	09 f0       	breq	.+2      	; 0xd8c <handleCanMessage+0xbe>
     d8a:	b0 c0       	rjmp	.+352    	; 0xeec <handleCanMessage+0x21e>
			{
				actualValues_1->RHO =  (int16_t)inMessage.data[0]<<8;
     d8c:	9d 81       	ldd	r25, Y+5	; 0x05
     d8e:	80 e0       	ldi	r24, 0x00	; 0
     d90:	f7 01       	movw	r30, r14
     d92:	6c c0       	rjmp	.+216    	; 0xe6c <handleCanMessage+0x19e>
			break;
			
			
			case 2:
			
			if ( MessageNumber == 1 )
     d94:	21 30       	cpi	r18, 0x01	; 1
     d96:	51 f5       	brne	.+84     	; 0xdec <handleCanMessage+0x11e>
			{
				actualValues_2->boschTemp  =	(int16_t)inMessage.data[0]<<8;
     d98:	9d 81       	ldd	r25, Y+5	; 0x05
     d9a:	80 e0       	ldi	r24, 0x00	; 0
     d9c:	f8 01       	movw	r30, r16
     d9e:	95 87       	std	Z+13, r25	; 0x0d
     da0:	84 87       	std	Z+12, r24	; 0x0c
				actualValues_2->boschTemp |=	(int16_t)inMessage.data[1];
     da2:	84 85       	ldd	r24, Z+12	; 0x0c
     da4:	95 85       	ldd	r25, Z+13	; 0x0d
     da6:	2e 81       	ldd	r18, Y+6	; 0x06
     da8:	82 2b       	or	r24, r18
     daa:	95 87       	std	Z+13, r25	; 0x0d
     dac:	84 87       	std	Z+12, r24	; 0x0c
				actualValues_2->co         =	(int16_t)inMessage.data[2]<<8;
     dae:	9f 81       	ldd	r25, Y+7	; 0x07
     db0:	80 e0       	ldi	r24, 0x00	; 0
     db2:	93 83       	std	Z+3, r25	; 0x03
     db4:	82 83       	std	Z+2, r24	; 0x02
				actualValues_2->co        |=	(int16_t)inMessage.data[3];
     db6:	82 81       	ldd	r24, Z+2	; 0x02
     db8:	93 81       	ldd	r25, Z+3	; 0x03
     dba:	28 85       	ldd	r18, Y+8	; 0x08
     dbc:	82 2b       	or	r24, r18
     dbe:	93 83       	std	Z+3, r25	; 0x03
     dc0:	82 83       	std	Z+2, r24	; 0x02
				actualValues_2->hytTemp    =	(uint16_t)inMessage.data[4]<<8;
     dc2:	99 85       	ldd	r25, Y+9	; 0x09
     dc4:	80 e0       	ldi	r24, 0x00	; 0
     dc6:	95 83       	std	Z+5, r25	; 0x05
     dc8:	84 83       	std	Z+4, r24	; 0x04
				actualValues_2->hytTemp   |=	(uint16_t)inMessage.data[5];
     dca:	84 81       	ldd	r24, Z+4	; 0x04
     dcc:	95 81       	ldd	r25, Z+5	; 0x05
     dce:	2a 85       	ldd	r18, Y+10	; 0x0a
     dd0:	82 2b       	or	r24, r18
     dd2:	95 83       	std	Z+5, r25	; 0x05
     dd4:	84 83       	std	Z+4, r24	; 0x04
				actualValues_2->feuchte    =	(uint16_t)inMessage.data[6]<<8;
     dd6:	9b 85       	ldd	r25, Y+11	; 0x0b
     dd8:	80 e0       	ldi	r24, 0x00	; 0
     dda:	97 83       	std	Z+7, r25	; 0x07
     ddc:	86 83       	std	Z+6, r24	; 0x06
				actualValues_2->feuchte   |=	(uint16_t)inMessage.data[7];
     dde:	86 81       	ldd	r24, Z+6	; 0x06
     de0:	97 81       	ldd	r25, Z+7	; 0x07
     de2:	2c 85       	ldd	r18, Y+12	; 0x0c
     de4:	82 2b       	or	r24, r18
     de6:	97 83       	std	Z+7, r25	; 0x07
     de8:	86 83       	std	Z+6, r24	; 0x06
     dea:	80 c0       	rjmp	.+256    	; 0xeec <handleCanMessage+0x21e>
			}
			
			else if ( MessageNumber == 2 )
     dec:	22 30       	cpi	r18, 0x02	; 2
     dee:	c1 f5       	brne	.+112    	; 0xe60 <handleCanMessage+0x192>
			{
				actualValues_2->pressure =	 (int32_t)inMessage.data[0]<<24;
     df0:	8d 81       	ldd	r24, Y+5	; 0x05
     df2:	90 e0       	ldi	r25, 0x00	; 0
     df4:	a0 e0       	ldi	r26, 0x00	; 0
     df6:	b0 e0       	ldi	r27, 0x00	; 0
     df8:	b8 2f       	mov	r27, r24
     dfa:	aa 27       	eor	r26, r26
     dfc:	99 27       	eor	r25, r25
     dfe:	88 27       	eor	r24, r24
     e00:	f8 01       	movw	r30, r16
     e02:	80 87       	std	Z+8, r24	; 0x08
     e04:	91 87       	std	Z+9, r25	; 0x09
     e06:	a2 87       	std	Z+10, r26	; 0x0a
     e08:	b3 87       	std	Z+11, r27	; 0x0b
				actualValues_2->pressure |=	 (int32_t)inMessage.data[1]<<16;
     e0a:	80 85       	ldd	r24, Z+8	; 0x08
     e0c:	91 85       	ldd	r25, Z+9	; 0x09
     e0e:	a2 85       	ldd	r26, Z+10	; 0x0a
     e10:	b3 85       	ldd	r27, Z+11	; 0x0b
     e12:	2e 81       	ldd	r18, Y+6	; 0x06
     e14:	a2 2b       	or	r26, r18
     e16:	80 87       	std	Z+8, r24	; 0x08
     e18:	91 87       	std	Z+9, r25	; 0x09
     e1a:	a2 87       	std	Z+10, r26	; 0x0a
     e1c:	b3 87       	std	Z+11, r27	; 0x0b
				actualValues_2->pressure |=	 (int32_t)inMessage.data[2]<<8;
     e1e:	80 85       	ldd	r24, Z+8	; 0x08
     e20:	91 85       	ldd	r25, Z+9	; 0x09
     e22:	a2 85       	ldd	r26, Z+10	; 0x0a
     e24:	b3 85       	ldd	r27, Z+11	; 0x0b
     e26:	2f 81       	ldd	r18, Y+7	; 0x07
     e28:	92 2b       	or	r25, r18
     e2a:	80 87       	std	Z+8, r24	; 0x08
     e2c:	91 87       	std	Z+9, r25	; 0x09
     e2e:	a2 87       	std	Z+10, r26	; 0x0a
     e30:	b3 87       	std	Z+11, r27	; 0x0b
				actualValues_2->pressure |=  (int32_t)inMessage.data[3];
     e32:	80 85       	ldd	r24, Z+8	; 0x08
     e34:	91 85       	ldd	r25, Z+9	; 0x09
     e36:	a2 85       	ldd	r26, Z+10	; 0x0a
     e38:	b3 85       	ldd	r27, Z+11	; 0x0b
     e3a:	28 85       	ldd	r18, Y+8	; 0x08
     e3c:	82 2b       	or	r24, r18
     e3e:	80 87       	std	Z+8, r24	; 0x08
     e40:	91 87       	std	Z+9, r25	; 0x09
     e42:	a2 87       	std	Z+10, r26	; 0x0a
     e44:	b3 87       	std	Z+11, r27	; 0x0b
				actualValues_2->k30Status =	inMessage.data[4];
     e46:	89 85       	ldd	r24, Y+9	; 0x09
     e48:	86 87       	std	Z+14, r24	; 0x0e
				actualValues_2->ppfd = (int16_t)inMessage.data[5]<<8;
     e4a:	9a 85       	ldd	r25, Y+10	; 0x0a
     e4c:	80 e0       	ldi	r24, 0x00	; 0
     e4e:	91 83       	std	Z+1, r25	; 0x01
     e50:	80 83       	st	Z, r24
				actualValues_2->ppfd |= (int16_t)inMessage.data[6];
     e52:	80 81       	ld	r24, Z
     e54:	91 81       	ldd	r25, Z+1	; 0x01
     e56:	2b 85       	ldd	r18, Y+11	; 0x0b
     e58:	82 2b       	or	r24, r18
     e5a:	91 83       	std	Z+1, r25	; 0x01
     e5c:	80 83       	st	Z, r24
     e5e:	46 c0       	rjmp	.+140    	; 0xeec <handleCanMessage+0x21e>
			}
			else if (MessageNumber ==3 )
     e60:	23 30       	cpi	r18, 0x03	; 3
     e62:	09 f0       	breq	.+2      	; 0xe66 <handleCanMessage+0x198>
     e64:	43 c0       	rjmp	.+134    	; 0xeec <handleCanMessage+0x21e>
			{
				actualValues_2->RHO =  (int16_t)inMessage.data[0]<<8;
     e66:	9d 81       	ldd	r25, Y+5	; 0x05
     e68:	80 e0       	ldi	r24, 0x00	; 0
     e6a:	f8 01       	movw	r30, r16
     e6c:	90 8b       	std	Z+16, r25	; 0x10
     e6e:	87 87       	std	Z+15, r24	; 0x0f
				actualValues_2->RHO |=  (int16_t)inMessage.data[1];
     e70:	87 85       	ldd	r24, Z+15	; 0x0f
     e72:	90 89       	ldd	r25, Z+16	; 0x10
     e74:	2e 81       	ldd	r18, Y+6	; 0x06
     e76:	82 2b       	or	r24, r18
     e78:	90 8b       	std	Z+16, r25	; 0x10
     e7a:	87 87       	std	Z+15, r24	; 0x0f
				actualValues_2->S =  (int16_t)inMessage.data[2]<<8;
     e7c:	9f 81       	ldd	r25, Y+7	; 0x07
     e7e:	80 e0       	ldi	r24, 0x00	; 0
     e80:	92 8b       	std	Z+18, r25	; 0x12
     e82:	81 8b       	std	Z+17, r24	; 0x11
				actualValues_2->S |=  (int16_t)inMessage.data[3];
     e84:	81 89       	ldd	r24, Z+17	; 0x11
     e86:	92 89       	ldd	r25, Z+18	; 0x12
     e88:	28 85       	ldd	r18, Y+8	; 0x08
     e8a:	82 2b       	or	r24, r18
     e8c:	92 8b       	std	Z+18, r25	; 0x12
     e8e:	81 8b       	std	Z+17, r24	; 0x11
				actualValues_2->AF   =  (int16_t)inMessage.data[4]<<8;
     e90:	99 85       	ldd	r25, Y+9	; 0x09
     e92:	80 e0       	ldi	r24, 0x00	; 0
     e94:	94 8b       	std	Z+20, r25	; 0x14
     e96:	83 8b       	std	Z+19, r24	; 0x13
				actualValues_2->AF  |=  (int16_t)inMessage.data[5];
     e98:	83 89       	ldd	r24, Z+19	; 0x13
     e9a:	94 89       	ldd	r25, Z+20	; 0x14
     e9c:	2a 85       	ldd	r18, Y+10	; 0x0a
     e9e:	82 2b       	or	r24, r18
     ea0:	94 8b       	std	Z+20, r25	; 0x14
     ea2:	83 8b       	std	Z+19, r24	; 0x13
				actualValues_2->VPD   =  (int16_t)inMessage.data[6]<<8;
     ea4:	9b 85       	ldd	r25, Y+11	; 0x0b
     ea6:	80 e0       	ldi	r24, 0x00	; 0
     ea8:	96 8b       	std	Z+22, r25	; 0x16
     eaa:	85 8b       	std	Z+21, r24	; 0x15
				actualValues_2->VPD  |=  (int16_t)inMessage.data[7];
     eac:	85 89       	ldd	r24, Z+21	; 0x15
     eae:	96 89       	ldd	r25, Z+22	; 0x16
     eb0:	2c 85       	ldd	r18, Y+12	; 0x0c
     eb2:	82 2b       	or	r24, r18
     eb4:	96 8b       	std	Z+22, r25	; 0x16
     eb6:	85 8b       	std	Z+21, r24	; 0x15
     eb8:	19 c0       	rjmp	.+50     	; 0xeec <handleCanMessage+0x21e>
			
			break;
		}
		return 1;
	}
	else if (mcp2515_read_register(CANINTF) & (1<<ERRIF) )
     eba:	8c e2       	ldi	r24, 0x2C	; 44
     ebc:	0e 94 7a 04 	call	0x8f4	; 0x8f4 <mcp2515_read_register>
     ec0:	85 ff       	sbrs	r24, 5
     ec2:	10 c0       	rjmp	.+32     	; 0xee4 <handleCanMessage+0x216>
	{
		CanErrorStatus=mcp2515_read_register(EFLG);
     ec4:	8d e2       	ldi	r24, 0x2D	; 45
     ec6:	0e 94 7a 04 	call	0x8f4	; 0x8f4 <mcp2515_read_register>
     eca:	80 93 88 00 	sts	0x0088, r24
		mcp2515_bit_modify(EFLG, CanErrorStatus, CanErrorStatus);
     ece:	48 2f       	mov	r20, r24
     ed0:	68 2f       	mov	r22, r24
     ed2:	8d e2       	ldi	r24, 0x2D	; 45
     ed4:	0e 94 a2 04 	call	0x944	; 0x944 <mcp2515_bit_modify>
		mcp2515_bit_modify(CANINTF, 1<<ERRIF, 1<<ERRIF);
     ed8:	40 e2       	ldi	r20, 0x20	; 32
     eda:	60 e2       	ldi	r22, 0x20	; 32
     edc:	8c e2       	ldi	r24, 0x2C	; 44
     ede:	0e 94 a2 04 	call	0x944	; 0x944 <mcp2515_bit_modify>
     ee2:	02 c0       	rjmp	.+4      	; 0xee8 <handleCanMessage+0x21a>
		return 0;
	}
	can_new_interrupt=0;
     ee4:	10 92 87 00 	sts	0x0087, r1
	return 0;
     ee8:	80 e0       	ldi	r24, 0x00	; 0
     eea:	01 c0       	rjmp	.+2      	; 0xeee <handleCanMessage+0x220>
			
			default:
			
			break;
		}
		return 1;
     eec:	81 e0       	ldi	r24, 0x01	; 1
		mcp2515_bit_modify(CANINTF, 1<<ERRIF, 1<<ERRIF);
		return 0;
	}
	can_new_interrupt=0;
	return 0;
     eee:	2c 96       	adiw	r28, 0x0c	; 12
     ef0:	0f b6       	in	r0, 0x3f	; 63
     ef2:	f8 94       	cli
     ef4:	de bf       	out	0x3e, r29	; 62
     ef6:	0f be       	out	0x3f, r0	; 63
     ef8:	cd bf       	out	0x3d, r28	; 61
     efa:	df 91       	pop	r29
     efc:	cf 91       	pop	r28
     efe:	1f 91       	pop	r17
     f00:	0f 91       	pop	r16
     f02:	ff 90       	pop	r15
     f04:	ef 90       	pop	r14
     f06:	08 95       	ret

00000f08 <sent_to_panel>:
//#define debug_can
#include "include/comm.h"

uint8_t sent_to_panel(uint8_t* lightValues)
{
	i2c_comm(lightValues,5,0,0);
     f08:	20 e0       	ldi	r18, 0x00	; 0
     f0a:	40 e0       	ldi	r20, 0x00	; 0
     f0c:	65 e0       	ldi	r22, 0x05	; 5
     f0e:	0e 94 d2 10 	call	0x21a4	; 0x21a4 <i2c_comm>
	return 1;
}
     f12:	81 e0       	ldi	r24, 0x01	; 1
     f14:	08 95       	ret

00000f16 <PCF8574_write>:

uint8_t PCF8574_write(uint8_t value)
{
     f16:	cf 93       	push	r28
     f18:	df 93       	push	r29
     f1a:	00 d0       	rcall	.+0      	; 0xf1c <PCF8574_write+0x6>
     f1c:	cd b7       	in	r28, 0x3d	; 61
     f1e:	de b7       	in	r29, 0x3e	; 62
	volatile uint8_t data[2];
	data[0]=64;
     f20:	90 e4       	ldi	r25, 0x40	; 64
     f22:	99 83       	std	Y+1, r25	; 0x01
	data[1]=value;
     f24:	8a 83       	std	Y+2, r24	; 0x02
	i2c_comm(data,2,0,0);
     f26:	20 e0       	ldi	r18, 0x00	; 0
     f28:	40 e0       	ldi	r20, 0x00	; 0
     f2a:	62 e0       	ldi	r22, 0x02	; 2
     f2c:	ce 01       	movw	r24, r28
     f2e:	01 96       	adiw	r24, 0x01	; 1
     f30:	0e 94 d2 10 	call	0x21a4	; 0x21a4 <i2c_comm>
	return 0;
}
     f34:	80 e0       	ldi	r24, 0x00	; 0
     f36:	0f 90       	pop	r0
     f38:	0f 90       	pop	r0
     f3a:	df 91       	pop	r29
     f3c:	cf 91       	pop	r28
     f3e:	08 95       	ret

00000f40 <main>:

#include "include/controlBoard.h"


int main(void)
{
     f40:	cf 93       	push	r28
     f42:	df 93       	push	r29
     f44:	cd b7       	in	r28, 0x3d	; 61
     f46:	de b7       	in	r29, 0x3e	; 62
     f48:	cc 5c       	subi	r28, 0xCC	; 204
     f4a:	d2 40       	sbci	r29, 0x02	; 2
     f4c:	0f b6       	in	r0, 0x3f	; 63
     f4e:	f8 94       	cli
     f50:	de bf       	out	0x3e, r29	; 62
     f52:	0f be       	out	0x3f, r0	; 63
     f54:	cd bf       	out	0x3d, r28	; 61
	init();
     f56:	0e 94 26 12 	call	0x244c	; 0x244c <init>
	volatile sensValues actualValues_2;
	volatile sensValues actualValues_3;
	volatile eepromValues eValues;
	

	init_sensValues(&actualValues_1);
     f5a:	6e 01       	movw	r12, r28
     f5c:	22 eb       	ldi	r18, 0xB2	; 178
     f5e:	c2 1a       	sub	r12, r18
     f60:	2d ef       	ldi	r18, 0xFD	; 253
     f62:	d2 0a       	sbc	r13, r18
     f64:	c6 01       	movw	r24, r12
     f66:	0e 94 a5 18 	call	0x314a	; 0x314a <init_sensValues>
	init_sensValues(&actualValues_2);
     f6a:	7e 01       	movw	r14, r28
     f6c:	85 e2       	ldi	r24, 0x25	; 37
     f6e:	e8 1a       	sub	r14, r24
     f70:	8e ef       	ldi	r24, 0xFE	; 254
     f72:	f8 0a       	sbc	r15, r24
     f74:	c7 01       	movw	r24, r14
     f76:	0e 94 a5 18 	call	0x314a	; 0x314a <init_sensValues>
	init_sensValues(&actualValues_3);
     f7a:	5e 01       	movw	r10, r28
     f7c:	e8 e9       	ldi	r30, 0x98	; 152
     f7e:	ae 1a       	sub	r10, r30
     f80:	ee ef       	ldi	r30, 0xFE	; 254
     f82:	be 0a       	sbc	r11, r30
     f84:	c5 01       	movw	r24, r10
     f86:	0e 94 a5 18 	call	0x314a	; 0x314a <init_sensValues>
	init_eValues(&eValues,60,5);
     f8a:	45 e0       	ldi	r20, 0x05	; 5
     f8c:	6c e3       	ldi	r22, 0x3C	; 60
     f8e:	70 e0       	ldi	r23, 0x00	; 0
     f90:	ce 01       	movw	r24, r28
     f92:	01 96       	adiw	r24, 0x01	; 1
     f94:	0e 94 02 0c 	call	0x1804	; 0x1804 <init_eValues>
{
	init();

	CANMessage outMessage;
	
	uint8_t kuehlDeadTimeTicker=0;
     f98:	91 2c       	mov	r9, r1
	

	
	while(1)
	{
		actualValues_3.hytTemp=actualValues_2.hytTemp;
     f9a:	f7 01       	movw	r30, r14
     f9c:	84 81       	ldd	r24, Z+4	; 0x04
     f9e:	95 81       	ldd	r25, Z+5	; 0x05
     fa0:	f5 01       	movw	r30, r10
     fa2:	95 83       	std	Z+5, r25	; 0x05
     fa4:	84 83       	std	Z+4, r24	; 0x04
		actualValues_3.feuchte=actualValues_2.feuchte;
     fa6:	f7 01       	movw	r30, r14
     fa8:	86 81       	ldd	r24, Z+6	; 0x06
     faa:	97 81       	ldd	r25, Z+7	; 0x07
     fac:	f5 01       	movw	r30, r10
     fae:	97 83       	std	Z+7, r25	; 0x07
     fb0:	86 83       	std	Z+6, r24	; 0x06
		actualValues_3.pressure=actualValues_2.pressure;
     fb2:	f7 01       	movw	r30, r14
     fb4:	80 85       	ldd	r24, Z+8	; 0x08
     fb6:	91 85       	ldd	r25, Z+9	; 0x09
     fb8:	a2 85       	ldd	r26, Z+10	; 0x0a
     fba:	b3 85       	ldd	r27, Z+11	; 0x0b
     fbc:	f5 01       	movw	r30, r10
     fbe:	80 87       	std	Z+8, r24	; 0x08
     fc0:	91 87       	std	Z+9, r25	; 0x09
     fc2:	a2 87       	std	Z+10, r26	; 0x0a
     fc4:	b3 87       	std	Z+11, r27	; 0x0b
		actualValues_3.co=actualValues_2.co;
     fc6:	f7 01       	movw	r30, r14
     fc8:	82 81       	ldd	r24, Z+2	; 0x02
     fca:	93 81       	ldd	r25, Z+3	; 0x03
     fcc:	f5 01       	movw	r30, r10
     fce:	93 83       	std	Z+3, r25	; 0x03
     fd0:	82 83       	std	Z+2, r24	; 0x02
		
		if(can_new_interrupt)
     fd2:	80 91 87 00 	lds	r24, 0x0087
     fd6:	88 23       	and	r24, r24
     fd8:	21 f0       	breq	.+8      	; 0xfe2 <main+0xa2>
		{
			handleCanMessage(&actualValues_1,&actualValues_2);
     fda:	b7 01       	movw	r22, r14
     fdc:	c6 01       	movw	r24, r12
     fde:	0e 94 67 06 	call	0xcce	; 0xcce <handleCanMessage>
		}
		
		if (tick)
     fe2:	80 91 6b 01 	lds	r24, 0x016B
     fe6:	88 23       	and	r24, r24
     fe8:	c1 f2       	breq	.-80     	; 0xf9a <main+0x5a>
		{

			if ((actualValues_1.hytTemp != -9999) && (actualValues_1.hytTemp != -8888) )
     fea:	f6 01       	movw	r30, r12
     fec:	84 81       	ldd	r24, Z+4	; 0x04
     fee:	95 81       	ldd	r25, Z+5	; 0x05
     ff0:	81 3f       	cpi	r24, 0xF1	; 241
     ff2:	98 4d       	sbci	r25, 0xD8	; 216
     ff4:	81 f0       	breq	.+32     	; 0x1016 <main+0xd6>
     ff6:	f6 01       	movw	r30, r12
     ff8:	84 81       	ldd	r24, Z+4	; 0x04
     ffa:	95 81       	ldd	r25, Z+5	; 0x05
     ffc:	88 34       	cpi	r24, 0x48	; 72
     ffe:	9d 4d       	sbci	r25, 0xDD	; 221
    1000:	51 f0       	breq	.+20     	; 0x1016 <main+0xd6>
			{
				OCR1A=calculate_pid(&PID_values_preHeat,actualValues_1.hytTemp);
    1002:	f6 01       	movw	r30, r12
    1004:	64 81       	ldd	r22, Z+4	; 0x04
    1006:	75 81       	ldd	r23, Z+5	; 0x05
    1008:	8f e0       	ldi	r24, 0x0F	; 15
    100a:	91 e0       	ldi	r25, 0x01	; 1
    100c:	0e 94 13 17 	call	0x2e26	; 0x2e26 <calculate_pid>
    1010:	90 e0       	ldi	r25, 0x00	; 0
    1012:	9b bd       	out	0x2b, r25	; 43
    1014:	8a bd       	out	0x2a, r24	; 42
			}
			
			if ( (actualValues_1.hytTemp-PID_values_preHeat.setValue>10) & (PID_values_preHeat.setValue>1000) )
    1016:	f6 01       	movw	r30, r12
    1018:	84 81       	ldd	r24, Z+4	; 0x04
    101a:	95 81       	ldd	r25, Z+5	; 0x05
    101c:	20 91 1e 01 	lds	r18, 0x011E
    1020:	30 91 1f 01 	lds	r19, 0x011F
    1024:	82 1b       	sub	r24, r18
    1026:	93 0b       	sbc	r25, r19
    1028:	0b 97       	sbiw	r24, 0x0b	; 11
    102a:	3c f0       	brlt	.+14     	; 0x103a <main+0xfa>
    102c:	29 3e       	cpi	r18, 0xE9	; 233
    102e:	33 40       	sbci	r19, 0x03	; 3
    1030:	24 f0       	brlt	.+8      	; 0x103a <main+0xfa>
			{
				PORTD |= (1<<PD6);
    1032:	96 9a       	sbi	0x12, 6	; 18
				kuehlDeadTimeTicker=4;
    1034:	84 e0       	ldi	r24, 0x04	; 4
    1036:	98 2e       	mov	r9, r24
    1038:	05 c0       	rjmp	.+10     	; 0x1044 <main+0x104>
			}
			else if (kuehlDeadTimeTicker)
    103a:	99 20       	and	r9, r9
    103c:	19 f0       	breq	.+6      	; 0x1044 <main+0x104>
			{
				kuehlDeadTimeTicker--;
    103e:	9a 94       	dec	r9
				if (!kuehlDeadTimeTicker)
    1040:	09 f4       	brne	.+2      	; 0x1044 <main+0x104>
				{
					PORTD &= ~(1<<PD6);
    1042:	96 98       	cbi	0x12, 6	; 18
				}
			}
			
			if ( (actualValues_2.hytTemp != -9999) && (actualValues_2.hytTemp != -8888) )
    1044:	f7 01       	movw	r30, r14
    1046:	84 81       	ldd	r24, Z+4	; 0x04
    1048:	95 81       	ldd	r25, Z+5	; 0x05
    104a:	81 3f       	cpi	r24, 0xF1	; 241
    104c:	98 4d       	sbci	r25, 0xD8	; 216
    104e:	81 f0       	breq	.+32     	; 0x1070 <main+0x130>
    1050:	f7 01       	movw	r30, r14
    1052:	84 81       	ldd	r24, Z+4	; 0x04
    1054:	95 81       	ldd	r25, Z+5	; 0x05
    1056:	88 34       	cpi	r24, 0x48	; 72
    1058:	9d 4d       	sbci	r25, 0xDD	; 221
    105a:	51 f0       	breq	.+20     	; 0x1070 <main+0x130>
			{
				OCR1B=calculate_pid(&PID_values_inHeat,actualValues_2.hytTemp);
    105c:	f7 01       	movw	r30, r14
    105e:	64 81       	ldd	r22, Z+4	; 0x04
    1060:	75 81       	ldd	r23, Z+5	; 0x05
    1062:	8c e8       	ldi	r24, 0x8C	; 140
    1064:	91 e0       	ldi	r25, 0x01	; 1
    1066:	0e 94 13 17 	call	0x2e26	; 0x2e26 <calculate_pid>
    106a:	90 e0       	ldi	r25, 0x00	; 0
    106c:	99 bd       	out	0x29, r25	; 41
    106e:	88 bd       	out	0x28, r24	; 40
			}
			
			
			switch (HUMmode)
    1070:	80 91 86 00 	lds	r24, 0x0086
    1074:	81 30       	cpi	r24, 0x01	; 1
    1076:	19 f0       	breq	.+6      	; 0x107e <main+0x13e>
    1078:	82 30       	cpi	r24, 0x02	; 2
    107a:	61 f5       	brne	.+88     	; 0x10d4 <main+0x194>
    107c:	12 c0       	rjmp	.+36     	; 0x10a2 <main+0x162>
			{
				
				case specHum_in:
				if ( (actualValues_1.S != -9999) && (actualValues_1.S != -8888) )
    107e:	f6 01       	movw	r30, r12
    1080:	81 89       	ldd	r24, Z+17	; 0x11
    1082:	92 89       	ldd	r25, Z+18	; 0x12
    1084:	81 3f       	cpi	r24, 0xF1	; 241
    1086:	98 4d       	sbci	r25, 0xD8	; 216
    1088:	29 f1       	breq	.+74     	; 0x10d4 <main+0x194>
    108a:	f6 01       	movw	r30, r12
    108c:	81 89       	ldd	r24, Z+17	; 0x11
    108e:	92 89       	ldd	r25, Z+18	; 0x12
    1090:	88 34       	cpi	r24, 0x48	; 72
    1092:	9d 4d       	sbci	r25, 0xDD	; 221
    1094:	f9 f0       	breq	.+62     	; 0x10d4 <main+0x194>
				{
					uint8_t OCR2new = calculate_pid(&PID_values_specHum_in,actualValues_1.S);
    1096:	f6 01       	movw	r30, r12
    1098:	61 89       	ldd	r22, Z+17	; 0x11
    109a:	72 89       	ldd	r23, Z+18	; 0x12
    109c:	8c e3       	ldi	r24, 0x3C	; 60
    109e:	91 e0       	ldi	r25, 0x01	; 1
    10a0:	11 c0       	rjmp	.+34     	; 0x10c4 <main+0x184>
					}
				}
				break;
				
				case vpd_out:
				if ( (actualValues_2.VPD != -9999) && (actualValues_2.VPD != -8888) )
    10a2:	f7 01       	movw	r30, r14
    10a4:	85 89       	ldd	r24, Z+21	; 0x15
    10a6:	96 89       	ldd	r25, Z+22	; 0x16
    10a8:	81 3f       	cpi	r24, 0xF1	; 241
    10aa:	98 4d       	sbci	r25, 0xD8	; 216
    10ac:	99 f0       	breq	.+38     	; 0x10d4 <main+0x194>
    10ae:	f7 01       	movw	r30, r14
    10b0:	85 89       	ldd	r24, Z+21	; 0x15
    10b2:	96 89       	ldd	r25, Z+22	; 0x16
    10b4:	88 34       	cpi	r24, 0x48	; 72
    10b6:	9d 4d       	sbci	r25, 0xDD	; 221
    10b8:	69 f0       	breq	.+26     	; 0x10d4 <main+0x194>
				{
					uint8_t OCR2new = calculate_pid(&PID_values_vpd_in,actualValues_2.VPD);
    10ba:	f7 01       	movw	r30, r14
    10bc:	65 89       	ldd	r22, Z+21	; 0x15
    10be:	76 89       	ldd	r23, Z+22	; 0x16
    10c0:	8b ea       	ldi	r24, 0xAB	; 171
    10c2:	90 e0       	ldi	r25, 0x00	; 0
    10c4:	0e 94 13 17 	call	0x2e26	; 0x2e26 <calculate_pid>
					
					if ( (OCR2 == 0) && (OCR2new != 0 ) )
    10c8:	93 b5       	in	r25, 0x23	; 35
    10ca:	91 11       	cpse	r25, r1
    10cc:	02 c0       	rjmp	.+4      	; 0x10d2 <main+0x192>
    10ce:	81 11       	cpse	r24, r1
					{
						OCR2 = 255;
    10d0:	8f ef       	ldi	r24, 0xFF	; 255
					}
					else
					{
						OCR2 = OCR2new;
    10d2:	83 bd       	out	0x23, r24	; 35
			}



			
			PCF8574_byte = 255;
    10d4:	8f ef       	ldi	r24, 0xFF	; 255
    10d6:	80 93 a7 00 	sts	0x00A7, r24
			PCF8574_write(PCF8574_byte);
    10da:	0e 94 8b 07 	call	0xf16	; 0xf16 <PCF8574_write>
			
			if (uart_struct.uart_state == string_complete)
    10de:	80 91 70 00 	lds	r24, 0x0070
    10e2:	82 30       	cpi	r24, 0x02	; 2
    10e4:	39 f4       	brne	.+14     	; 0x10f4 <main+0x1b4>
			{
				recieve_command(&actualValues_1,&actualValues_2,&eValues);
    10e6:	ae 01       	movw	r20, r28
    10e8:	4f 5f       	subi	r20, 0xFF	; 255
    10ea:	5f 4f       	sbci	r21, 0xFF	; 255
    10ec:	b7 01       	movw	r22, r14
    10ee:	c6 01       	movw	r24, r12
    10f0:	0e 94 4b 14 	call	0x2896	; 0x2896 <recieve_command>
			}
			
			

			if (memoryAdress>=63872)
    10f4:	00 91 70 01 	lds	r16, 0x0170
    10f8:	10 91 71 01 	lds	r17, 0x0171
    10fc:	20 91 72 01 	lds	r18, 0x0172
    1100:	30 91 73 01 	lds	r19, 0x0173
    1104:	00 38       	cpi	r16, 0x80	; 128
    1106:	19 4f       	sbci	r17, 0xF9	; 249
    1108:	21 05       	cpc	r18, r1
    110a:	31 05       	cpc	r19, r1
    110c:	18 f0       	brcs	.+6      	; 0x1114 <main+0x1d4>
			{
				saveToEpromEnabled=2;
    110e:	82 e0       	ldi	r24, 0x02	; 2
    1110:	80 93 39 01 	sts	0x0139, r24
			}
			
			calculate_means(&actualValues_1);
    1114:	c6 01       	movw	r24, r12
    1116:	0e 94 6b 01 	call	0x2d6	; 0x2d6 <calculate_means>
			eValues.BufferCounter1++;
    111a:	c0 5a       	subi	r28, 0xA0	; 160
    111c:	de 4f       	sbci	r29, 0xFE	; 254
    111e:	88 81       	ld	r24, Y
    1120:	99 81       	ldd	r25, Y+1	; 0x01
    1122:	c0 56       	subi	r28, 0x60	; 96
    1124:	d1 40       	sbci	r29, 0x01	; 1
    1126:	01 96       	adiw	r24, 0x01	; 1
    1128:	c0 5a       	subi	r28, 0xA0	; 160
    112a:	de 4f       	sbci	r29, 0xFE	; 254
    112c:	99 83       	std	Y+1, r25	; 0x01
    112e:	88 83       	st	Y, r24
    1130:	c0 56       	subi	r28, 0x60	; 96
    1132:	d1 40       	sbci	r29, 0x01	; 1
			if (eValues.BufferCounter1>=eValues.intervall)
    1134:	c0 5a       	subi	r28, 0xA0	; 160
    1136:	de 4f       	sbci	r29, 0xFE	; 254
    1138:	28 81       	ld	r18, Y
    113a:	39 81       	ldd	r19, Y+1	; 0x01
    113c:	c0 56       	subi	r28, 0x60	; 96
    113e:	d1 40       	sbci	r29, 0x01	; 1
    1140:	c4 5a       	subi	r28, 0xA4	; 164
    1142:	de 4f       	sbci	r29, 0xFE	; 254
    1144:	88 81       	ld	r24, Y
    1146:	99 81       	ldd	r25, Y+1	; 0x01
    1148:	cc 55       	subi	r28, 0x5C	; 92
    114a:	d1 40       	sbci	r29, 0x01	; 1
    114c:	28 17       	cp	r18, r24
    114e:	39 07       	cpc	r19, r25
    1150:	e0 f0       	brcs	.+56     	; 0x118a <main+0x24a>
			{
				eValues.meanSensValues1=actualValues_1;
    1152:	83 e7       	ldi	r24, 0x73	; 115
    1154:	f6 01       	movw	r30, r12
    1156:	de 01       	movw	r26, r28
    1158:	11 96       	adiw	r26, 0x01	; 1
    115a:	01 90       	ld	r0, Z+
    115c:	0d 92       	st	X+, r0
    115e:	8a 95       	dec	r24
    1160:	e1 f7       	brne	.-8      	; 0x115a <main+0x21a>
				zeroMeansInsensValues(&actualValues_1);
    1162:	c6 01       	movw	r24, r12
    1164:	0e 94 8a 19 	call	0x3314	; 0x3314 <zeroMeansInsensValues>
				eValues.BufferCounter1=0;
    1168:	c0 5a       	subi	r28, 0xA0	; 160
    116a:	de 4f       	sbci	r29, 0xFE	; 254
    116c:	19 82       	std	Y+1, r1	; 0x01
    116e:	18 82       	st	Y, r1
    1170:	c0 56       	subi	r28, 0x60	; 96
    1172:	d1 40       	sbci	r29, 0x01	; 1
				eValues.full++;
    1174:	c9 59       	subi	r28, 0x99	; 153
    1176:	de 4f       	sbci	r29, 0xFE	; 254
    1178:	88 81       	ld	r24, Y
    117a:	c7 56       	subi	r28, 0x67	; 103
    117c:	d1 40       	sbci	r29, 0x01	; 1
    117e:	8f 5f       	subi	r24, 0xFF	; 255
    1180:	c9 59       	subi	r28, 0x99	; 153
    1182:	de 4f       	sbci	r29, 0xFE	; 254
    1184:	88 83       	st	Y, r24
    1186:	c7 56       	subi	r28, 0x67	; 103
    1188:	d1 40       	sbci	r29, 0x01	; 1
			}
			
			if (eValues.delayTimer>=eValues.signalRunTime)
    118a:	cb 59       	subi	r28, 0x9B	; 155
    118c:	de 4f       	sbci	r29, 0xFE	; 254
    118e:	98 81       	ld	r25, Y
    1190:	c5 56       	subi	r28, 0x65	; 101
    1192:	d1 40       	sbci	r29, 0x01	; 1
    1194:	c6 5a       	subi	r28, 0xA6	; 166
    1196:	de 4f       	sbci	r29, 0xFE	; 254
    1198:	88 81       	ld	r24, Y
    119a:	ca 55       	subi	r28, 0x5A	; 90
    119c:	d1 40       	sbci	r29, 0x01	; 1
    119e:	98 17       	cp	r25, r24
    11a0:	e8 f1       	brcs	.+122    	; 0x121c <main+0x2dc>
			{
				calculate_means(&actualValues_2);
    11a2:	c7 01       	movw	r24, r14
    11a4:	0e 94 6b 01 	call	0x2d6	; 0x2d6 <calculate_means>
				eValues.BufferCounter2++;
    11a8:	ce 59       	subi	r28, 0x9E	; 158
    11aa:	de 4f       	sbci	r29, 0xFE	; 254
    11ac:	88 81       	ld	r24, Y
    11ae:	99 81       	ldd	r25, Y+1	; 0x01
    11b0:	c2 56       	subi	r28, 0x62	; 98
    11b2:	d1 40       	sbci	r29, 0x01	; 1
    11b4:	01 96       	adiw	r24, 0x01	; 1
    11b6:	ce 59       	subi	r28, 0x9E	; 158
    11b8:	de 4f       	sbci	r29, 0xFE	; 254
    11ba:	99 83       	std	Y+1, r25	; 0x01
    11bc:	88 83       	st	Y, r24
    11be:	c2 56       	subi	r28, 0x62	; 98
    11c0:	d1 40       	sbci	r29, 0x01	; 1
				if (eValues.BufferCounter2>=eValues.intervall)
    11c2:	ce 59       	subi	r28, 0x9E	; 158
    11c4:	de 4f       	sbci	r29, 0xFE	; 254
    11c6:	28 81       	ld	r18, Y
    11c8:	39 81       	ldd	r19, Y+1	; 0x01
    11ca:	c2 56       	subi	r28, 0x62	; 98
    11cc:	d1 40       	sbci	r29, 0x01	; 1
    11ce:	c4 5a       	subi	r28, 0xA4	; 164
    11d0:	de 4f       	sbci	r29, 0xFE	; 254
    11d2:	88 81       	ld	r24, Y
    11d4:	99 81       	ldd	r25, Y+1	; 0x01
    11d6:	cc 55       	subi	r28, 0x5C	; 92
    11d8:	d1 40       	sbci	r29, 0x01	; 1
    11da:	28 17       	cp	r18, r24
    11dc:	39 07       	cpc	r19, r25
    11de:	48 f1       	brcs	.+82     	; 0x1232 <main+0x2f2>
				{
					eValues.meanSensValues2=actualValues_2;
    11e0:	83 e7       	ldi	r24, 0x73	; 115
    11e2:	f7 01       	movw	r30, r14
    11e4:	de 01       	movw	r26, r28
    11e6:	ac 58       	subi	r26, 0x8C	; 140
    11e8:	bf 4f       	sbci	r27, 0xFF	; 255
    11ea:	01 90       	ld	r0, Z+
    11ec:	0d 92       	st	X+, r0
    11ee:	8a 95       	dec	r24
    11f0:	e1 f7       	brne	.-8      	; 0x11ea <main+0x2aa>
					zeroMeansInsensValues(&actualValues_2);
    11f2:	c7 01       	movw	r24, r14
    11f4:	0e 94 8a 19 	call	0x3314	; 0x3314 <zeroMeansInsensValues>
					eValues.BufferCounter2=0;
    11f8:	ce 59       	subi	r28, 0x9E	; 158
    11fa:	de 4f       	sbci	r29, 0xFE	; 254
    11fc:	19 82       	std	Y+1, r1	; 0x01
    11fe:	18 82       	st	Y, r1
    1200:	c2 56       	subi	r28, 0x62	; 98
    1202:	d1 40       	sbci	r29, 0x01	; 1
					eValues.full++;
    1204:	c9 59       	subi	r28, 0x99	; 153
    1206:	de 4f       	sbci	r29, 0xFE	; 254
    1208:	88 81       	ld	r24, Y
    120a:	c7 56       	subi	r28, 0x67	; 103
    120c:	d1 40       	sbci	r29, 0x01	; 1
    120e:	8f 5f       	subi	r24, 0xFF	; 255
    1210:	c9 59       	subi	r28, 0x99	; 153
    1212:	de 4f       	sbci	r29, 0xFE	; 254
    1214:	88 83       	st	Y, r24
    1216:	c7 56       	subi	r28, 0x67	; 103
    1218:	d1 40       	sbci	r29, 0x01	; 1
    121a:	0b c0       	rjmp	.+22     	; 0x1232 <main+0x2f2>
				}
			}
			else
			{
				eValues.delayTimer++;
    121c:	cb 59       	subi	r28, 0x9B	; 155
    121e:	de 4f       	sbci	r29, 0xFE	; 254
    1220:	88 81       	ld	r24, Y
    1222:	c5 56       	subi	r28, 0x65	; 101
    1224:	d1 40       	sbci	r29, 0x01	; 1
    1226:	8f 5f       	subi	r24, 0xFF	; 255
    1228:	cb 59       	subi	r28, 0x9B	; 155
    122a:	de 4f       	sbci	r29, 0xFE	; 254
    122c:	88 83       	st	Y, r24
    122e:	c5 56       	subi	r28, 0x65	; 101
    1230:	d1 40       	sbci	r29, 0x01	; 1
			}
			
			if ( (eValues.BufferCounter2>=eValues.intervall-4) || (eValues.BufferCounter3>0) )
    1232:	ce 59       	subi	r28, 0x9E	; 158
    1234:	de 4f       	sbci	r29, 0xFE	; 254
    1236:	28 81       	ld	r18, Y
    1238:	39 81       	ldd	r19, Y+1	; 0x01
    123a:	c2 56       	subi	r28, 0x62	; 98
    123c:	d1 40       	sbci	r29, 0x01	; 1
    123e:	c4 5a       	subi	r28, 0xA4	; 164
    1240:	de 4f       	sbci	r29, 0xFE	; 254
    1242:	88 81       	ld	r24, Y
    1244:	99 81       	ldd	r25, Y+1	; 0x01
    1246:	cc 55       	subi	r28, 0x5C	; 92
    1248:	d1 40       	sbci	r29, 0x01	; 1
    124a:	04 97       	sbiw	r24, 0x04	; 4
    124c:	28 17       	cp	r18, r24
    124e:	39 07       	cpc	r19, r25
    1250:	38 f4       	brcc	.+14     	; 0x1260 <main+0x320>
    1252:	cc 59       	subi	r28, 0x9C	; 156
    1254:	de 4f       	sbci	r29, 0xFE	; 254
    1256:	88 81       	ld	r24, Y
    1258:	c4 56       	subi	r28, 0x64	; 100
    125a:	d1 40       	sbci	r29, 0x01	; 1
    125c:	88 23       	and	r24, r24
    125e:	89 f1       	breq	.+98     	; 0x12c2 <main+0x382>
			{
				calculate_means(&actualValues_3);
    1260:	c5 01       	movw	r24, r10
    1262:	0e 94 6b 01 	call	0x2d6	; 0x2d6 <calculate_means>
				eValues.BufferCounter3++;
    1266:	cc 59       	subi	r28, 0x9C	; 156
    1268:	de 4f       	sbci	r29, 0xFE	; 254
    126a:	88 81       	ld	r24, Y
    126c:	c4 56       	subi	r28, 0x64	; 100
    126e:	d1 40       	sbci	r29, 0x01	; 1
    1270:	8f 5f       	subi	r24, 0xFF	; 255
    1272:	cc 59       	subi	r28, 0x9C	; 156
    1274:	de 4f       	sbci	r29, 0xFE	; 254
    1276:	88 83       	st	Y, r24
    1278:	c4 56       	subi	r28, 0x64	; 100
    127a:	d1 40       	sbci	r29, 0x01	; 1
				if (eValues.BufferCounter3>=9)
    127c:	cc 59       	subi	r28, 0x9C	; 156
    127e:	de 4f       	sbci	r29, 0xFE	; 254
    1280:	88 81       	ld	r24, Y
    1282:	c4 56       	subi	r28, 0x64	; 100
    1284:	d1 40       	sbci	r29, 0x01	; 1
    1286:	89 30       	cpi	r24, 0x09	; 9
    1288:	e0 f0       	brcs	.+56     	; 0x12c2 <main+0x382>
				{
					eValues.meanSensValues3=actualValues_3;
    128a:	83 e7       	ldi	r24, 0x73	; 115
    128c:	f5 01       	movw	r30, r10
    128e:	de 01       	movw	r26, r28
    1290:	a9 51       	subi	r26, 0x19	; 25
    1292:	bf 4f       	sbci	r27, 0xFF	; 255
    1294:	01 90       	ld	r0, Z+
    1296:	0d 92       	st	X+, r0
    1298:	8a 95       	dec	r24
    129a:	e1 f7       	brne	.-8      	; 0x1294 <main+0x354>
					zeroMeansInsensValues(&actualValues_3);
    129c:	c5 01       	movw	r24, r10
    129e:	0e 94 8a 19 	call	0x3314	; 0x3314 <zeroMeansInsensValues>
					eValues.BufferCounter3=0;
    12a2:	cc 59       	subi	r28, 0x9C	; 156
    12a4:	de 4f       	sbci	r29, 0xFE	; 254
    12a6:	18 82       	st	Y, r1
    12a8:	c4 56       	subi	r28, 0x64	; 100
    12aa:	d1 40       	sbci	r29, 0x01	; 1
					eValues.full++;
    12ac:	c9 59       	subi	r28, 0x99	; 153
    12ae:	de 4f       	sbci	r29, 0xFE	; 254
    12b0:	88 81       	ld	r24, Y
    12b2:	c7 56       	subi	r28, 0x67	; 103
    12b4:	d1 40       	sbci	r29, 0x01	; 1
    12b6:	8f 5f       	subi	r24, 0xFF	; 255
    12b8:	c9 59       	subi	r28, 0x99	; 153
    12ba:	de 4f       	sbci	r29, 0xFE	; 254
    12bc:	88 83       	st	Y, r24
    12be:	c7 56       	subi	r28, 0x67	; 103
    12c0:	d1 40       	sbci	r29, 0x01	; 1
				}
			}
			
			if  (eValues.full==3)
    12c2:	c9 59       	subi	r28, 0x99	; 153
    12c4:	de 4f       	sbci	r29, 0xFE	; 254
    12c6:	88 81       	ld	r24, Y
    12c8:	c7 56       	subi	r28, 0x67	; 103
    12ca:	d1 40       	sbci	r29, 0x01	; 1
    12cc:	83 30       	cpi	r24, 0x03	; 3
    12ce:	99 f5       	brne	.+102    	; 0x1336 <main+0x3f6>
			{
				eValues.full=0;
    12d0:	c9 59       	subi	r28, 0x99	; 153
    12d2:	de 4f       	sbci	r29, 0xFE	; 254
    12d4:	18 82       	st	Y, r1
    12d6:	c7 56       	subi	r28, 0x67	; 103
    12d8:	d1 40       	sbci	r29, 0x01	; 1
				if (saveToEpromEnabled==1)
    12da:	80 91 39 01 	lds	r24, 0x0139
    12de:	81 30       	cpi	r24, 0x01	; 1
    12e0:	61 f4       	brne	.+24     	; 0x12fa <main+0x3ba>
				{
					eprom_write(&eValues.meanSensValues1,&eValues.meanSensValues2,&eValues.meanSensValues3,&memoryAdress);
    12e2:	20 e7       	ldi	r18, 0x70	; 112
    12e4:	31 e0       	ldi	r19, 0x01	; 1
    12e6:	ae 01       	movw	r20, r28
    12e8:	49 51       	subi	r20, 0x19	; 25
    12ea:	5f 4f       	sbci	r21, 0xFF	; 255
    12ec:	be 01       	movw	r22, r28
    12ee:	6c 58       	subi	r22, 0x8C	; 140
    12f0:	7f 4f       	sbci	r23, 0xFF	; 255
    12f2:	ce 01       	movw	r24, r28
    12f4:	01 96       	adiw	r24, 0x01	; 1
    12f6:	0e 94 2f 0c 	call	0x185e	; 0x185e <eprom_write>
				}
				
				if (buffer_update_flag)
    12fa:	80 91 a8 00 	lds	r24, 0x00A8
    12fe:	88 23       	and	r24, r24
    1300:	d1 f0       	breq	.+52     	; 0x1336 <main+0x3f6>
				{
					init_eValues(&eValues,eValues.intervall_Buffer,eValues.signalRunTimeBuffer);
    1302:	c5 5a       	subi	r28, 0xA5	; 165
    1304:	de 4f       	sbci	r29, 0xFE	; 254
    1306:	48 81       	ld	r20, Y
    1308:	cb 55       	subi	r28, 0x5B	; 91
    130a:	d1 40       	sbci	r29, 0x01	; 1
    130c:	c2 5a       	subi	r28, 0xA2	; 162
    130e:	de 4f       	sbci	r29, 0xFE	; 254
    1310:	68 81       	ld	r22, Y
    1312:	79 81       	ldd	r23, Y+1	; 0x01
    1314:	ce 55       	subi	r28, 0x5E	; 94
    1316:	d1 40       	sbci	r29, 0x01	; 1
    1318:	ce 01       	movw	r24, r28
    131a:	01 96       	adiw	r24, 0x01	; 1
    131c:	0e 94 02 0c 	call	0x1804	; 0x1804 <init_eValues>
					zeroMeansInsensValues(&actualValues_1);
    1320:	c6 01       	movw	r24, r12
    1322:	0e 94 8a 19 	call	0x3314	; 0x3314 <zeroMeansInsensValues>
					zeroMeansInsensValues(&actualValues_2);
    1326:	c7 01       	movw	r24, r14
    1328:	0e 94 8a 19 	call	0x3314	; 0x3314 <zeroMeansInsensValues>
					zeroMeansInsensValues(&actualValues_3);
    132c:	c5 01       	movw	r24, r10
    132e:	0e 94 8a 19 	call	0x3314	; 0x3314 <zeroMeansInsensValues>
					buffer_update_flag=0;
    1332:	10 92 a8 00 	sts	0x00A8, r1
				}
			}

			if (spec_hum_in_program.active)
    1336:	80 91 82 01 	lds	r24, 0x0182
    133a:	88 23       	and	r24, r24
    133c:	31 f0       	breq	.+12     	; 0x134a <main+0x40a>
			{
				exec_program(&spec_hum_in_program,&PID_values_specHum_in);
    133e:	6c e3       	ldi	r22, 0x3C	; 60
    1340:	71 e0       	ldi	r23, 0x01	; 1
    1342:	8c e7       	ldi	r24, 0x7C	; 124
    1344:	91 e0       	ldi	r25, 0x01	; 1
    1346:	0e 94 bf 00 	call	0x17e	; 0x17e <exec_program>
			}

			if (preHeat_program.active)
    134a:	80 91 d5 00 	lds	r24, 0x00D5
    134e:	88 23       	and	r24, r24
    1350:	31 f0       	breq	.+12     	; 0x135e <main+0x41e>
			{
				exec_program(&preHeat_program,&PID_values_preHeat);
    1352:	6f e0       	ldi	r22, 0x0F	; 15
    1354:	71 e0       	ldi	r23, 0x01	; 1
    1356:	8f ec       	ldi	r24, 0xCF	; 207
    1358:	90 e0       	ldi	r25, 0x00	; 0
    135a:	0e 94 bf 00 	call	0x17e	; 0x17e <exec_program>
			}

			if (inHeat_program.active)
    135e:	80 91 c9 01 	lds	r24, 0x01C9
    1362:	88 23       	and	r24, r24
    1364:	31 f0       	breq	.+12     	; 0x1372 <main+0x432>
			{
				exec_program(&inHeat_program,&PID_values_inHeat);
    1366:	6c e8       	ldi	r22, 0x8C	; 140
    1368:	71 e0       	ldi	r23, 0x01	; 1
    136a:	83 ec       	ldi	r24, 0xC3	; 195
    136c:	91 e0       	ldi	r25, 0x01	; 1
    136e:	0e 94 bf 00 	call	0x17e	; 0x17e <exec_program>
			}

			if (vpd_in_program.active)
    1372:	80 91 b6 01 	lds	r24, 0x01B6
    1376:	88 23       	and	r24, r24
    1378:	31 f0       	breq	.+12     	; 0x1386 <main+0x446>
			{
				exec_program(&vpd_in_program,&PID_values_vpd_in);
    137a:	6b ea       	ldi	r22, 0xAB	; 171
    137c:	70 e0       	ldi	r23, 0x00	; 0
    137e:	80 eb       	ldi	r24, 0xB0	; 176
    1380:	91 e0       	ldi	r25, 0x01	; 1
    1382:	0e 94 bf 00 	call	0x17e	; 0x17e <exec_program>
			}

			debug(&actualValues_1,&actualValues_2,&actualValues_3,&eValues);
    1386:	9e 01       	movw	r18, r28
    1388:	2f 5f       	subi	r18, 0xFF	; 255
    138a:	3f 4f       	sbci	r19, 0xFF	; 255
    138c:	a5 01       	movw	r20, r10
    138e:	b7 01       	movw	r22, r14
    1390:	c6 01       	movw	r24, r12
    1392:	0e 94 11 0a 	call	0x1422	; 0x1422 <debug>
			
			outMessage.id = (uint16_t) (1<<4);
    1396:	80 e1       	ldi	r24, 0x10	; 16
    1398:	90 e0       	ldi	r25, 0x00	; 0
    139a:	cf 53       	subi	r28, 0x3F	; 63
    139c:	dd 4f       	sbci	r29, 0xFD	; 253
    139e:	99 83       	std	Y+1, r25	; 0x01
    13a0:	88 83       	st	Y, r24
    13a2:	c1 5c       	subi	r28, 0xC1	; 193
    13a4:	d2 40       	sbci	r29, 0x02	; 2
			outMessage.rtr = 0;
    13a6:	cd 53       	subi	r28, 0x3D	; 61
    13a8:	dd 4f       	sbci	r29, 0xFD	; 253
    13aa:	18 82       	st	Y, r1
    13ac:	c3 5c       	subi	r28, 0xC3	; 195
    13ae:	d2 40       	sbci	r29, 0x02	; 2
			outMessage.length = 2;
    13b0:	82 e0       	ldi	r24, 0x02	; 2
    13b2:	cc 53       	subi	r28, 0x3C	; 60
    13b4:	dd 4f       	sbci	r29, 0xFD	; 253
    13b6:	88 83       	st	Y, r24
    13b8:	c4 5c       	subi	r28, 0xC4	; 196
    13ba:	d2 40       	sbci	r29, 0x02	; 2
			outMessage.data[0]=1;
    13bc:	81 e0       	ldi	r24, 0x01	; 1
    13be:	cb 53       	subi	r28, 0x3B	; 59
    13c0:	dd 4f       	sbci	r29, 0xFD	; 253
    13c2:	88 83       	st	Y, r24
    13c4:	c5 5c       	subi	r28, 0xC5	; 197
    13c6:	d2 40       	sbci	r29, 0x02	; 2
			
			uint8_t count=0;
    13c8:	10 e0       	ldi	r17, 0x00	; 0
			while( ( !can_send_message(&outMessage) ) & (count<250) )
    13ca:	01 c0       	rjmp	.+2      	; 0x13ce <main+0x48e>
			{
				count++;
    13cc:	1f 5f       	subi	r17, 0xFF	; 255
			outMessage.rtr = 0;
			outMessage.length = 2;
			outMessage.data[0]=1;
			
			uint8_t count=0;
			while( ( !can_send_message(&outMessage) ) & (count<250) )
    13ce:	ce 01       	movw	r24, r28
    13d0:	8f 53       	subi	r24, 0x3F	; 63
    13d2:	9d 4f       	sbci	r25, 0xFD	; 253
    13d4:	0e 94 6d 05 	call	0xada	; 0xada <can_send_message>
    13d8:	1a 3f       	cpi	r17, 0xFA	; 250
    13da:	10 f4       	brcc	.+4      	; 0x13e0 <main+0x4a0>
    13dc:	88 23       	and	r24, r24
    13de:	b1 f3       	breq	.-20     	; 0x13cc <main+0x48c>
			{
				count++;
			}
			outMessage.id = (2<<4);
    13e0:	80 e2       	ldi	r24, 0x20	; 32
    13e2:	90 e0       	ldi	r25, 0x00	; 0
    13e4:	cf 53       	subi	r28, 0x3F	; 63
    13e6:	dd 4f       	sbci	r29, 0xFD	; 253
    13e8:	99 83       	std	Y+1, r25	; 0x01
    13ea:	88 83       	st	Y, r24
    13ec:	c1 5c       	subi	r28, 0xC1	; 193
    13ee:	d2 40       	sbci	r29, 0x02	; 2
			delay(10);
    13f0:	8a e0       	ldi	r24, 0x0A	; 10
    13f2:	90 e0       	ldi	r25, 0x00	; 0
    13f4:	0e 94 f1 0b 	call	0x17e2	; 0x17e2 <delay>
			count=0;
    13f8:	10 e0       	ldi	r17, 0x00	; 0
			while( ( !can_send_message(&outMessage) ) & (count<250) )
    13fa:	01 c0       	rjmp	.+2      	; 0x13fe <main+0x4be>
			{
				count++;
    13fc:	1f 5f       	subi	r17, 0xFF	; 255
				count++;
			}
			outMessage.id = (2<<4);
			delay(10);
			count=0;
			while( ( !can_send_message(&outMessage) ) & (count<250) )
    13fe:	ce 01       	movw	r24, r28
    1400:	8f 53       	subi	r24, 0x3F	; 63
    1402:	9d 4f       	sbci	r25, 0xFD	; 253
    1404:	0e 94 6d 05 	call	0xada	; 0xada <can_send_message>
    1408:	1a 3f       	cpi	r17, 0xFA	; 250
    140a:	10 f4       	brcc	.+4      	; 0x1410 <main+0x4d0>
    140c:	88 23       	and	r24, r24
    140e:	b1 f3       	breq	.-20     	; 0x13fc <main+0x4bc>
			{
				count++;
			}
			
			zero_sensValues(&actualValues_1);
    1410:	c6 01       	movw	r24, r12
    1412:	0e 94 69 19 	call	0x32d2	; 0x32d2 <zero_sensValues>
			zero_sensValues(&actualValues_2);
    1416:	c7 01       	movw	r24, r14
    1418:	0e 94 69 19 	call	0x32d2	; 0x32d2 <zero_sensValues>
			
			tick=0;
    141c:	10 92 6b 01 	sts	0x016B, r1
    1420:	bc cd       	rjmp	.-1160   	; 0xf9a <main+0x5a>

00001422 <debug>:
#include "include/debug.h"


void debug(volatile sensValues* values_1,volatile sensValues* values_2,volatile sensValues* values_3, volatile eepromValues* eValues)
{
    1422:	cf 92       	push	r12
    1424:	df 92       	push	r13
    1426:	ef 92       	push	r14
    1428:	ff 92       	push	r15
    142a:	0f 93       	push	r16
    142c:	1f 93       	push	r17
    142e:	cf 93       	push	r28
    1430:	df 93       	push	r29
    1432:	cd b7       	in	r28, 0x3d	; 61
    1434:	de b7       	in	r29, 0x3e	; 62
    1436:	c0 5a       	subi	r28, 0xA0	; 160
    1438:	d1 09       	sbc	r29, r1
    143a:	0f b6       	in	r0, 0x3f	; 63
    143c:	f8 94       	cli
    143e:	de bf       	out	0x3e, r29	; 62
    1440:	0f be       	out	0x3f, r0	; 63
    1442:	cd bf       	out	0x3d, r28	; 61
    1444:	dc 01       	movw	r26, r24
	char cDebugValue[8];
	uint8_t i=0;
	int32_t debugArray[38];
	
	debugArray[i++]=sTime.days;
    1446:	c0 90 06 01 	lds	r12, 0x0106
    144a:	d1 2c       	mov	r13, r1
    144c:	e1 2c       	mov	r14, r1
    144e:	f1 2c       	mov	r15, r1
    1450:	c9 82       	std	Y+1, r12	; 0x01
    1452:	da 82       	std	Y+2, r13	; 0x02
    1454:	eb 82       	std	Y+3, r14	; 0x03
    1456:	fc 82       	std	Y+4, r15	; 0x04
	debugArray[i++]=sTime.daySecs;
    1458:	c0 90 07 01 	lds	r12, 0x0107
    145c:	d0 90 08 01 	lds	r13, 0x0108
    1460:	e0 90 09 01 	lds	r14, 0x0109
    1464:	f0 90 0a 01 	lds	r15, 0x010A
    1468:	cd 82       	std	Y+5, r12	; 0x05
    146a:	de 82       	std	Y+6, r13	; 0x06
    146c:	ef 82       	std	Y+7, r14	; 0x07
    146e:	f8 86       	std	Y+8, r15	; 0x08
	debugArray[i++]=treatment;
    1470:	c0 90 38 01 	lds	r12, 0x0138
    1474:	d1 2c       	mov	r13, r1
    1476:	e1 2c       	mov	r14, r1
    1478:	f1 2c       	mov	r15, r1
    147a:	c9 86       	std	Y+9, r12	; 0x09
    147c:	da 86       	std	Y+10, r13	; 0x0a
    147e:	eb 86       	std	Y+11, r14	; 0x0b
    1480:	fc 86       	std	Y+12, r15	; 0x0c
	debugArray[i++]=repetition;
    1482:	c0 90 79 01 	lds	r12, 0x0179
    1486:	d1 2c       	mov	r13, r1
    1488:	e1 2c       	mov	r14, r1
    148a:	f1 2c       	mov	r15, r1
    148c:	cd 86       	std	Y+13, r12	; 0x0d
    148e:	de 86       	std	Y+14, r13	; 0x0e
    1490:	ef 86       	std	Y+15, r14	; 0x0f
    1492:	f8 8a       	std	Y+16, r15	; 0x10
	debugArray[i++]=values_1->hytTemp;
    1494:	14 96       	adiw	r26, 0x04	; 4
    1496:	cd 90       	ld	r12, X+
    1498:	dc 90       	ld	r13, X
    149a:	15 97       	sbiw	r26, 0x05	; 5
    149c:	ee 24       	eor	r14, r14
    149e:	d7 fc       	sbrc	r13, 7
    14a0:	e0 94       	com	r14
    14a2:	fe 2c       	mov	r15, r14
    14a4:	c9 8a       	std	Y+17, r12	; 0x11
    14a6:	da 8a       	std	Y+18, r13	; 0x12
    14a8:	eb 8a       	std	Y+19, r14	; 0x13
    14aa:	fc 8a       	std	Y+20, r15	; 0x14
	debugArray[i++]=values_2->hytTemp;
    14ac:	fb 01       	movw	r30, r22
    14ae:	c4 80       	ldd	r12, Z+4	; 0x04
    14b0:	d5 80       	ldd	r13, Z+5	; 0x05
    14b2:	ee 24       	eor	r14, r14
    14b4:	d7 fc       	sbrc	r13, 7
    14b6:	e0 94       	com	r14
    14b8:	fe 2c       	mov	r15, r14
    14ba:	cd 8a       	std	Y+21, r12	; 0x15
    14bc:	de 8a       	std	Y+22, r13	; 0x16
    14be:	ef 8a       	std	Y+23, r14	; 0x17
    14c0:	f8 8e       	std	Y+24, r15	; 0x18
	debugArray[i++]=values_1->feuchte;
    14c2:	16 96       	adiw	r26, 0x06	; 6
    14c4:	cd 90       	ld	r12, X+
    14c6:	dc 90       	ld	r13, X
    14c8:	17 97       	sbiw	r26, 0x07	; 7
    14ca:	ee 24       	eor	r14, r14
    14cc:	d7 fc       	sbrc	r13, 7
    14ce:	e0 94       	com	r14
    14d0:	fe 2c       	mov	r15, r14
    14d2:	c9 8e       	std	Y+25, r12	; 0x19
    14d4:	da 8e       	std	Y+26, r13	; 0x1a
    14d6:	eb 8e       	std	Y+27, r14	; 0x1b
    14d8:	fc 8e       	std	Y+28, r15	; 0x1c
	debugArray[i++]=values_2->feuchte;
    14da:	c6 80       	ldd	r12, Z+6	; 0x06
    14dc:	d7 80       	ldd	r13, Z+7	; 0x07
    14de:	ee 24       	eor	r14, r14
    14e0:	d7 fc       	sbrc	r13, 7
    14e2:	e0 94       	com	r14
    14e4:	fe 2c       	mov	r15, r14
    14e6:	cd 8e       	std	Y+29, r12	; 0x1d
    14e8:	de 8e       	std	Y+30, r13	; 0x1e
    14ea:	ef 8e       	std	Y+31, r14	; 0x1f
    14ec:	f8 a2       	std	Y+32, r15	; 0x20
	debugArray[i++]=values_1->pressure;
    14ee:	18 96       	adiw	r26, 0x08	; 8
    14f0:	cd 90       	ld	r12, X+
    14f2:	dd 90       	ld	r13, X+
    14f4:	ed 90       	ld	r14, X+
    14f6:	fc 90       	ld	r15, X
    14f8:	1b 97       	sbiw	r26, 0x0b	; 11
    14fa:	c9 a2       	std	Y+33, r12	; 0x21
    14fc:	da a2       	std	Y+34, r13	; 0x22
    14fe:	eb a2       	std	Y+35, r14	; 0x23
    1500:	fc a2       	std	Y+36, r15	; 0x24
	debugArray[i++]=values_2->pressure;
    1502:	c0 84       	ldd	r12, Z+8	; 0x08
    1504:	d1 84       	ldd	r13, Z+9	; 0x09
    1506:	e2 84       	ldd	r14, Z+10	; 0x0a
    1508:	f3 84       	ldd	r15, Z+11	; 0x0b
    150a:	cd a2       	std	Y+37, r12	; 0x25
    150c:	de a2       	std	Y+38, r13	; 0x26
    150e:	ef a2       	std	Y+39, r14	; 0x27
    1510:	f8 a6       	std	Y+40, r15	; 0x28
	debugArray[i++]=values_1->co;
    1512:	12 96       	adiw	r26, 0x02	; 2
    1514:	cd 90       	ld	r12, X+
    1516:	dc 90       	ld	r13, X
    1518:	13 97       	sbiw	r26, 0x03	; 3
    151a:	e1 2c       	mov	r14, r1
    151c:	f1 2c       	mov	r15, r1
    151e:	c9 a6       	std	Y+41, r12	; 0x29
    1520:	da a6       	std	Y+42, r13	; 0x2a
    1522:	eb a6       	std	Y+43, r14	; 0x2b
    1524:	fc a6       	std	Y+44, r15	; 0x2c
	debugArray[i++]=values_2->co;
    1526:	c2 80       	ldd	r12, Z+2	; 0x02
    1528:	d3 80       	ldd	r13, Z+3	; 0x03
    152a:	e1 2c       	mov	r14, r1
    152c:	f1 2c       	mov	r15, r1
    152e:	cd a6       	std	Y+45, r12	; 0x2d
    1530:	de a6       	std	Y+46, r13	; 0x2e
    1532:	ef a6       	std	Y+47, r14	; 0x2f
    1534:	f8 aa       	std	Y+48, r15	; 0x30
	debugArray[i++]=values_1->k30Status;
    1536:	1e 96       	adiw	r26, 0x0e	; 14
    1538:	cc 90       	ld	r12, X
    153a:	1e 97       	sbiw	r26, 0x0e	; 14
    153c:	d1 2c       	mov	r13, r1
    153e:	e1 2c       	mov	r14, r1
    1540:	f1 2c       	mov	r15, r1
    1542:	c9 aa       	std	Y+49, r12	; 0x31
    1544:	da aa       	std	Y+50, r13	; 0x32
    1546:	eb aa       	std	Y+51, r14	; 0x33
    1548:	fc aa       	std	Y+52, r15	; 0x34
	debugArray[i++]=values_2->k30Status;
    154a:	c6 84       	ldd	r12, Z+14	; 0x0e
    154c:	d1 2c       	mov	r13, r1
    154e:	e1 2c       	mov	r14, r1
    1550:	f1 2c       	mov	r15, r1
    1552:	cd aa       	std	Y+53, r12	; 0x35
    1554:	de aa       	std	Y+54, r13	; 0x36
    1556:	ef aa       	std	Y+55, r14	; 0x37
    1558:	f8 ae       	std	Y+56, r15	; 0x38
	debugArray[i++]=values_1->ppfd;
    155a:	cd 90       	ld	r12, X+
    155c:	dc 90       	ld	r13, X
    155e:	11 97       	sbiw	r26, 0x01	; 1
    1560:	ee 24       	eor	r14, r14
    1562:	d7 fc       	sbrc	r13, 7
    1564:	e0 94       	com	r14
    1566:	fe 2c       	mov	r15, r14
    1568:	c9 ae       	std	Y+57, r12	; 0x39
    156a:	da ae       	std	Y+58, r13	; 0x3a
    156c:	eb ae       	std	Y+59, r14	; 0x3b
    156e:	fc ae       	std	Y+60, r15	; 0x3c
	debugArray[i++]=values_2->ppfd;
    1570:	c0 80       	ld	r12, Z
    1572:	d1 80       	ldd	r13, Z+1	; 0x01
    1574:	ee 24       	eor	r14, r14
    1576:	d7 fc       	sbrc	r13, 7
    1578:	e0 94       	com	r14
    157a:	fe 2c       	mov	r15, r14
    157c:	21 96       	adiw	r28, 0x01	; 1
    157e:	cc ae       	std	Y+60, r12	; 0x3c
    1580:	dd ae       	std	Y+61, r13	; 0x3d
    1582:	ee ae       	std	Y+62, r14	; 0x3e
    1584:	ff ae       	std	Y+63, r15	; 0x3f
    1586:	21 97       	sbiw	r28, 0x01	; 1
	debugArray[i++]=values_1->RHO;
    1588:	1f 96       	adiw	r26, 0x0f	; 15
    158a:	cd 90       	ld	r12, X+
    158c:	dc 90       	ld	r13, X
    158e:	50 97       	sbiw	r26, 0x10	; 16
    1590:	ee 24       	eor	r14, r14
    1592:	d7 fc       	sbrc	r13, 7
    1594:	e0 94       	com	r14
    1596:	fe 2c       	mov	r15, r14
    1598:	25 96       	adiw	r28, 0x05	; 5
    159a:	cc ae       	std	Y+60, r12	; 0x3c
    159c:	dd ae       	std	Y+61, r13	; 0x3d
    159e:	ee ae       	std	Y+62, r14	; 0x3e
    15a0:	ff ae       	std	Y+63, r15	; 0x3f
    15a2:	25 97       	sbiw	r28, 0x05	; 5
	debugArray[i++]=values_2->RHO;
    15a4:	c7 84       	ldd	r12, Z+15	; 0x0f
    15a6:	d0 88       	ldd	r13, Z+16	; 0x10
    15a8:	ee 24       	eor	r14, r14
    15aa:	d7 fc       	sbrc	r13, 7
    15ac:	e0 94       	com	r14
    15ae:	fe 2c       	mov	r15, r14
    15b0:	29 96       	adiw	r28, 0x09	; 9
    15b2:	cc ae       	std	Y+60, r12	; 0x3c
    15b4:	dd ae       	std	Y+61, r13	; 0x3d
    15b6:	ee ae       	std	Y+62, r14	; 0x3e
    15b8:	ff ae       	std	Y+63, r15	; 0x3f
    15ba:	29 97       	sbiw	r28, 0x09	; 9
	debugArray[i++]=values_1->S;
    15bc:	51 96       	adiw	r26, 0x11	; 17
    15be:	cd 90       	ld	r12, X+
    15c0:	dc 90       	ld	r13, X
    15c2:	52 97       	sbiw	r26, 0x12	; 18
    15c4:	ee 24       	eor	r14, r14
    15c6:	d7 fc       	sbrc	r13, 7
    15c8:	e0 94       	com	r14
    15ca:	fe 2c       	mov	r15, r14
    15cc:	2d 96       	adiw	r28, 0x0d	; 13
    15ce:	cc ae       	std	Y+60, r12	; 0x3c
    15d0:	dd ae       	std	Y+61, r13	; 0x3d
    15d2:	ee ae       	std	Y+62, r14	; 0x3e
    15d4:	ff ae       	std	Y+63, r15	; 0x3f
    15d6:	2d 97       	sbiw	r28, 0x0d	; 13
	debugArray[i++]=values_2->S;
    15d8:	c1 88       	ldd	r12, Z+17	; 0x11
    15da:	d2 88       	ldd	r13, Z+18	; 0x12
    15dc:	ee 24       	eor	r14, r14
    15de:	d7 fc       	sbrc	r13, 7
    15e0:	e0 94       	com	r14
    15e2:	fe 2c       	mov	r15, r14
    15e4:	61 96       	adiw	r28, 0x11	; 17
    15e6:	cc ae       	std	Y+60, r12	; 0x3c
    15e8:	dd ae       	std	Y+61, r13	; 0x3d
    15ea:	ee ae       	std	Y+62, r14	; 0x3e
    15ec:	ff ae       	std	Y+63, r15	; 0x3f
    15ee:	61 97       	sbiw	r28, 0x11	; 17
	debugArray[i++]=values_1->VPD;
    15f0:	55 96       	adiw	r26, 0x15	; 21
    15f2:	cd 90       	ld	r12, X+
    15f4:	dc 90       	ld	r13, X
    15f6:	56 97       	sbiw	r26, 0x16	; 22
    15f8:	ee 24       	eor	r14, r14
    15fa:	d7 fc       	sbrc	r13, 7
    15fc:	e0 94       	com	r14
    15fe:	fe 2c       	mov	r15, r14
    1600:	65 96       	adiw	r28, 0x15	; 21
    1602:	cc ae       	std	Y+60, r12	; 0x3c
    1604:	dd ae       	std	Y+61, r13	; 0x3d
    1606:	ee ae       	std	Y+62, r14	; 0x3e
    1608:	ff ae       	std	Y+63, r15	; 0x3f
    160a:	65 97       	sbiw	r28, 0x15	; 21
	debugArray[i++]=values_2->VPD;
    160c:	c5 88       	ldd	r12, Z+21	; 0x15
    160e:	d6 88       	ldd	r13, Z+22	; 0x16
    1610:	ee 24       	eor	r14, r14
    1612:	d7 fc       	sbrc	r13, 7
    1614:	e0 94       	com	r14
    1616:	fe 2c       	mov	r15, r14
    1618:	69 96       	adiw	r28, 0x19	; 25
    161a:	cc ae       	std	Y+60, r12	; 0x3c
    161c:	dd ae       	std	Y+61, r13	; 0x3d
    161e:	ee ae       	std	Y+62, r14	; 0x3e
    1620:	ff ae       	std	Y+63, r15	; 0x3f
    1622:	69 97       	sbiw	r28, 0x19	; 25
	debugArray[i++]=values_1->AF;
    1624:	53 96       	adiw	r26, 0x13	; 19
    1626:	cd 90       	ld	r12, X+
    1628:	dc 90       	ld	r13, X
    162a:	54 97       	sbiw	r26, 0x14	; 20
    162c:	ee 24       	eor	r14, r14
    162e:	d7 fc       	sbrc	r13, 7
    1630:	e0 94       	com	r14
    1632:	fe 2c       	mov	r15, r14
    1634:	6d 96       	adiw	r28, 0x1d	; 29
    1636:	cc ae       	std	Y+60, r12	; 0x3c
    1638:	dd ae       	std	Y+61, r13	; 0x3d
    163a:	ee ae       	std	Y+62, r14	; 0x3e
    163c:	ff ae       	std	Y+63, r15	; 0x3f
    163e:	6d 97       	sbiw	r28, 0x1d	; 29
	debugArray[i++]=values_2->AF;
    1640:	c3 88       	ldd	r12, Z+19	; 0x13
    1642:	d4 88       	ldd	r13, Z+20	; 0x14
    1644:	ee 24       	eor	r14, r14
    1646:	d7 fc       	sbrc	r13, 7
    1648:	e0 94       	com	r14
    164a:	fe 2c       	mov	r15, r14
    164c:	a1 96       	adiw	r28, 0x21	; 33
    164e:	cc ae       	std	Y+60, r12	; 0x3c
    1650:	dd ae       	std	Y+61, r13	; 0x3d
    1652:	ee ae       	std	Y+62, r14	; 0x3e
    1654:	ff ae       	std	Y+63, r15	; 0x3f
    1656:	a1 97       	sbiw	r28, 0x21	; 33
	debugArray[i++]=saveToEpromEnabled;
    1658:	c0 90 39 01 	lds	r12, 0x0139
    165c:	d1 2c       	mov	r13, r1
    165e:	e1 2c       	mov	r14, r1
    1660:	f1 2c       	mov	r15, r1
    1662:	a5 96       	adiw	r28, 0x25	; 37
    1664:	cc ae       	std	Y+60, r12	; 0x3c
    1666:	dd ae       	std	Y+61, r13	; 0x3d
    1668:	ee ae       	std	Y+62, r14	; 0x3e
    166a:	ff ae       	std	Y+63, r15	; 0x3f
    166c:	a5 97       	sbiw	r28, 0x25	; 37
	debugArray[i++]=OCR1A;
    166e:	ca b4       	in	r12, 0x2a	; 42
    1670:	db b4       	in	r13, 0x2b	; 43
    1672:	e1 2c       	mov	r14, r1
    1674:	f1 2c       	mov	r15, r1
    1676:	a9 96       	adiw	r28, 0x29	; 41
    1678:	cc ae       	std	Y+60, r12	; 0x3c
    167a:	dd ae       	std	Y+61, r13	; 0x3d
    167c:	ee ae       	std	Y+62, r14	; 0x3e
    167e:	ff ae       	std	Y+63, r15	; 0x3f
    1680:	a9 97       	sbiw	r28, 0x29	; 41
	debugArray[i++]=OCR1B;
    1682:	c8 b4       	in	r12, 0x28	; 40
    1684:	d9 b4       	in	r13, 0x29	; 41
    1686:	e1 2c       	mov	r14, r1
    1688:	f1 2c       	mov	r15, r1
    168a:	ad 96       	adiw	r28, 0x2d	; 45
    168c:	cc ae       	std	Y+60, r12	; 0x3c
    168e:	dd ae       	std	Y+61, r13	; 0x3d
    1690:	ee ae       	std	Y+62, r14	; 0x3e
    1692:	ff ae       	std	Y+63, r15	; 0x3f
    1694:	ad 97       	sbiw	r28, 0x2d	; 45
	debugArray[i++]=OCR2;
    1696:	c3 b4       	in	r12, 0x23	; 35
    1698:	d1 2c       	mov	r13, r1
    169a:	e1 2c       	mov	r14, r1
    169c:	f1 2c       	mov	r15, r1
    169e:	e1 96       	adiw	r28, 0x31	; 49
    16a0:	cc ae       	std	Y+60, r12	; 0x3c
    16a2:	dd ae       	std	Y+61, r13	; 0x3d
    16a4:	ee ae       	std	Y+62, r14	; 0x3e
    16a6:	ff ae       	std	Y+63, r15	; 0x3f
    16a8:	e1 97       	sbiw	r28, 0x31	; 49
	debugArray[i++]=7;
    16aa:	87 e0       	ldi	r24, 0x07	; 7
    16ac:	c8 2e       	mov	r12, r24
    16ae:	d1 2c       	mov	r13, r1
    16b0:	e1 2c       	mov	r14, r1
    16b2:	f1 2c       	mov	r15, r1
    16b4:	e5 96       	adiw	r28, 0x35	; 53
    16b6:	cc ae       	std	Y+60, r12	; 0x3c
    16b8:	dd ae       	std	Y+61, r13	; 0x3d
    16ba:	ee ae       	std	Y+62, r14	; 0x3e
    16bc:	ff ae       	std	Y+63, r15	; 0x3f
    16be:	e5 97       	sbiw	r28, 0x35	; 53
	debugArray[i++]=eValues->delayTimer;
    16c0:	c9 01       	movw	r24, r18
    16c2:	8c 59       	subi	r24, 0x9C	; 156
    16c4:	9e 4f       	sbci	r25, 0xFE	; 254
    16c6:	fc 01       	movw	r30, r24
    16c8:	c0 80       	ld	r12, Z
    16ca:	d1 2c       	mov	r13, r1
    16cc:	e1 2c       	mov	r14, r1
    16ce:	f1 2c       	mov	r15, r1
    16d0:	e9 96       	adiw	r28, 0x39	; 57
    16d2:	cc ae       	std	Y+60, r12	; 0x3c
    16d4:	dd ae       	std	Y+61, r13	; 0x3d
    16d6:	ee ae       	std	Y+62, r14	; 0x3e
    16d8:	ff ae       	std	Y+63, r15	; 0x3f
    16da:	e9 97       	sbiw	r28, 0x39	; 57
	debugArray[i++]=eValues->intervall;
    16dc:	c9 01       	movw	r24, r18
    16de:	85 5a       	subi	r24, 0xA5	; 165
    16e0:	9e 4f       	sbci	r25, 0xFE	; 254
    16e2:	fc 01       	movw	r30, r24
    16e4:	c0 80       	ld	r12, Z
    16e6:	d1 80       	ldd	r13, Z+1	; 0x01
    16e8:	ee 24       	eor	r14, r14
    16ea:	d7 fc       	sbrc	r13, 7
    16ec:	e0 94       	com	r14
    16ee:	fe 2c       	mov	r15, r14
    16f0:	ed 96       	adiw	r28, 0x3d	; 61
    16f2:	cc ae       	std	Y+60, r12	; 0x3c
    16f4:	dd ae       	std	Y+61, r13	; 0x3d
    16f6:	ee ae       	std	Y+62, r14	; 0x3e
    16f8:	ff ae       	std	Y+63, r15	; 0x3f
    16fa:	ed 97       	sbiw	r28, 0x3d	; 61
	debugArray[i++]=values_1->BppfdCounter;
    16fc:	a3 5a       	subi	r26, 0xA3	; 163
    16fe:	bf 4f       	sbci	r27, 0xFF	; 255
    1700:	8d 91       	ld	r24, X+
    1702:	9c 91       	ld	r25, X
    1704:	aa 27       	eor	r26, r26
    1706:	97 fd       	sbrc	r25, 7
    1708:	a0 95       	com	r26
    170a:	ba 2f       	mov	r27, r26
    170c:	c3 58       	subi	r28, 0x83	; 131
    170e:	df 4f       	sbci	r29, 0xFF	; 255
    1710:	88 83       	st	Y, r24
    1712:	99 83       	std	Y+1, r25	; 0x01
    1714:	aa 83       	std	Y+2, r26	; 0x02
    1716:	bb 83       	std	Y+3, r27	; 0x03
    1718:	cd 57       	subi	r28, 0x7D	; 125
    171a:	d0 40       	sbci	r29, 0x00	; 0
	debugArray[i++]=values_2->BppfdCounter;
    171c:	fb 01       	movw	r30, r22
    171e:	e3 5a       	subi	r30, 0xA3	; 163
    1720:	ff 4f       	sbci	r31, 0xFF	; 255
    1722:	80 81       	ld	r24, Z
    1724:	91 81       	ldd	r25, Z+1	; 0x01
    1726:	aa 27       	eor	r26, r26
    1728:	97 fd       	sbrc	r25, 7
    172a:	a0 95       	com	r26
    172c:	ba 2f       	mov	r27, r26
    172e:	cf 57       	subi	r28, 0x7F	; 127
    1730:	df 4f       	sbci	r29, 0xFF	; 255
    1732:	88 83       	st	Y, r24
    1734:	99 83       	std	Y+1, r25	; 0x01
    1736:	aa 83       	std	Y+2, r26	; 0x02
    1738:	bb 83       	std	Y+3, r27	; 0x03
    173a:	c1 58       	subi	r28, 0x81	; 129
    173c:	d0 40       	sbci	r29, 0x00	; 0
	debugArray[i++]=values_3->BppfdCounter;
    173e:	fa 01       	movw	r30, r20
    1740:	e3 5a       	subi	r30, 0xA3	; 163
    1742:	ff 4f       	sbci	r31, 0xFF	; 255
    1744:	80 81       	ld	r24, Z
    1746:	91 81       	ldd	r25, Z+1	; 0x01
    1748:	aa 27       	eor	r26, r26
    174a:	97 fd       	sbrc	r25, 7
    174c:	a0 95       	com	r26
    174e:	ba 2f       	mov	r27, r26
    1750:	cb 57       	subi	r28, 0x7B	; 123
    1752:	df 4f       	sbci	r29, 0xFF	; 255
    1754:	88 83       	st	Y, r24
    1756:	99 83       	std	Y+1, r25	; 0x01
    1758:	aa 83       	std	Y+2, r26	; 0x02
    175a:	bb 83       	std	Y+3, r27	; 0x03
    175c:	c5 58       	subi	r28, 0x85	; 133
    175e:	d0 40       	sbci	r29, 0x00	; 0
	debugArray[i++]=eValues->full;
    1760:	f9 01       	movw	r30, r18
    1762:	ea 59       	subi	r30, 0x9A	; 154
    1764:	fe 4f       	sbci	r31, 0xFE	; 254
    1766:	80 81       	ld	r24, Z
    1768:	90 e0       	ldi	r25, 0x00	; 0
    176a:	a0 e0       	ldi	r26, 0x00	; 0
    176c:	b0 e0       	ldi	r27, 0x00	; 0
    176e:	c7 57       	subi	r28, 0x77	; 119
    1770:	df 4f       	sbci	r29, 0xFF	; 255
    1772:	88 83       	st	Y, r24
    1774:	99 83       	std	Y+1, r25	; 0x01
    1776:	aa 83       	std	Y+2, r26	; 0x02
    1778:	bb 83       	std	Y+3, r27	; 0x03
    177a:	c9 58       	subi	r28, 0x89	; 137
    177c:	d0 40       	sbci	r29, 0x00	; 0
    177e:	8e 01       	movw	r16, r28
    1780:	0f 5f       	subi	r16, 0xFF	; 255
    1782:	1f 4f       	sbci	r17, 0xFF	; 255
#include "include/debug.h"


void debug(volatile sensValues* values_1,volatile sensValues* values_2,volatile sensValues* values_3, volatile eepromValues* eValues)
    1784:	7e 01       	movw	r14, r28
    1786:	fd e8       	ldi	r31, 0x8D	; 141
    1788:	ef 0e       	add	r14, r31
    178a:	f1 1c       	adc	r15, r1
	//debugArray[i++]=mcp2515_read_register(TEC);
	//debugArray[i++]=saveToEpromEnabled;

	for	 (uint8_t j = 0 ; j<i; j++)
	{
		ltoa ( debugArray[j],cDebugValue,10);
    178c:	f8 01       	movw	r30, r16
    178e:	61 91       	ld	r22, Z+
    1790:	71 91       	ld	r23, Z+
    1792:	81 91       	ld	r24, Z+
    1794:	91 91       	ld	r25, Z+
    1796:	8f 01       	movw	r16, r30
    1798:	2a e0       	ldi	r18, 0x0A	; 10
    179a:	30 e0       	ldi	r19, 0x00	; 0
    179c:	ae 01       	movw	r20, r28
    179e:	47 56       	subi	r20, 0x67	; 103
    17a0:	5f 4f       	sbci	r21, 0xFF	; 255
    17a2:	0e 94 3a 1b 	call	0x3674	; 0x3674 <ltoa>
		uart_put_s(cDebugValue);
    17a6:	ce 01       	movw	r24, r28
    17a8:	87 56       	subi	r24, 0x67	; 103
    17aa:	9f 4f       	sbci	r25, 0xFF	; 255
    17ac:	0e 94 3b 1a 	call	0x3476	; 0x3476 <uart_put_s>
		uart_put_c(';');
    17b0:	8b e3       	ldi	r24, 0x3B	; 59
    17b2:	0e 94 37 1a 	call	0x346e	; 0x346e <uart_put_c>
	//debugArray[i++]=mcp2515_read_register(CANINTF);
	//debugArray[i++]=mcp2515_read_register(REC);
	//debugArray[i++]=mcp2515_read_register(TEC);
	//debugArray[i++]=saveToEpromEnabled;

	for	 (uint8_t j = 0 ; j<i; j++)
    17b6:	0e 15       	cp	r16, r14
    17b8:	1f 05       	cpc	r17, r15
    17ba:	41 f7       	brne	.-48     	; 0x178c <debug+0x36a>
	{
		ltoa ( debugArray[j],cDebugValue,10);
		uart_put_s(cDebugValue);
		uart_put_c(';');
	}
	uart_put_c('\n');
    17bc:	8a e0       	ldi	r24, 0x0A	; 10
    17be:	0e 94 37 1a 	call	0x346e	; 0x346e <uart_put_c>
    17c2:	c0 56       	subi	r28, 0x60	; 96
    17c4:	df 4f       	sbci	r29, 0xFF	; 255
    17c6:	0f b6       	in	r0, 0x3f	; 63
    17c8:	f8 94       	cli
    17ca:	de bf       	out	0x3e, r29	; 62
    17cc:	0f be       	out	0x3f, r0	; 63
    17ce:	cd bf       	out	0x3d, r28	; 61
    17d0:	df 91       	pop	r29
    17d2:	cf 91       	pop	r28
    17d4:	1f 91       	pop	r17
    17d6:	0f 91       	pop	r16
    17d8:	ff 90       	pop	r15
    17da:	ef 90       	pop	r14
    17dc:	df 90       	pop	r13
    17de:	cf 90       	pop	r12
    17e0:	08 95       	ret

000017e2 <delay>:
#include "include/simple_delay.h"


void delay (uint16_t delayTime)
{
	milisecCounter4=0;
    17e2:	10 92 35 01 	sts	0x0135, r1
    17e6:	10 92 34 01 	sts	0x0134, r1
	while (milisecCounter4<(delayTime*8))
    17ea:	23 e0       	ldi	r18, 0x03	; 3
    17ec:	88 0f       	add	r24, r24
    17ee:	99 1f       	adc	r25, r25
    17f0:	2a 95       	dec	r18
    17f2:	e1 f7       	brne	.-8      	; 0x17ec <delay+0xa>
    17f4:	20 91 34 01 	lds	r18, 0x0134
    17f8:	30 91 35 01 	lds	r19, 0x0135
    17fc:	28 17       	cp	r18, r24
    17fe:	39 07       	cpc	r19, r25
    1800:	c8 f3       	brcs	.-14     	; 0x17f4 <delay+0x12>
	{
		
	}
    1802:	08 95       	ret

00001804 <init_eValues>:
void init_eValues(volatile eepromValues* eValues,uint16_t i, uint8_t srt)
{
	//eValues->meanSensValues1=NULL;
	//eValues->meanSensValues2=NULL;
	
	eValues->signalRunTime=srt;
    1804:	fc 01       	movw	r30, r24
    1806:	e7 5a       	subi	r30, 0xA7	; 167
    1808:	fe 4f       	sbci	r31, 0xFE	; 254
    180a:	40 83       	st	Z, r20
	eValues->signalRunTimeBuffer=srt;
    180c:	fc 01       	movw	r30, r24
    180e:	e6 5a       	subi	r30, 0xA6	; 166
    1810:	fe 4f       	sbci	r31, 0xFE	; 254
    1812:	40 83       	st	Z, r20
	eValues->intervall=i;
    1814:	fc 01       	movw	r30, r24
    1816:	e5 5a       	subi	r30, 0xA5	; 165
    1818:	fe 4f       	sbci	r31, 0xFE	; 254
    181a:	71 83       	std	Z+1, r23	; 0x01
    181c:	60 83       	st	Z, r22
	eValues->intervall_Buffer=i;
    181e:	fc 01       	movw	r30, r24
    1820:	e3 5a       	subi	r30, 0xA3	; 163
    1822:	fe 4f       	sbci	r31, 0xFE	; 254
    1824:	71 83       	std	Z+1, r23	; 0x01
    1826:	60 83       	st	Z, r22
	
	eValues->BufferCounter1=0;
    1828:	fc 01       	movw	r30, r24
    182a:	e1 5a       	subi	r30, 0xA1	; 161
    182c:	fe 4f       	sbci	r31, 0xFE	; 254
    182e:	11 82       	std	Z+1, r1	; 0x01
    1830:	10 82       	st	Z, r1
	eValues->BufferCounter2=0;
    1832:	fc 01       	movw	r30, r24
    1834:	ef 59       	subi	r30, 0x9F	; 159
    1836:	fe 4f       	sbci	r31, 0xFE	; 254
    1838:	11 82       	std	Z+1, r1	; 0x01
    183a:	10 82       	st	Z, r1
	eValues->BufferCounter3=0;
    183c:	fc 01       	movw	r30, r24
    183e:	ed 59       	subi	r30, 0x9D	; 157
    1840:	fe 4f       	sbci	r31, 0xFE	; 254
    1842:	10 82       	st	Z, r1
	eValues->delayTimer=0;
    1844:	fc 01       	movw	r30, r24
    1846:	ec 59       	subi	r30, 0x9C	; 156
    1848:	fe 4f       	sbci	r31, 0xFE	; 254
    184a:	10 82       	st	Z, r1
	eValues->delayTimer3=0;
    184c:	fc 01       	movw	r30, r24
    184e:	eb 59       	subi	r30, 0x9B	; 155
    1850:	fe 4f       	sbci	r31, 0xFE	; 254
    1852:	10 82       	st	Z, r1
	eValues->full=0;
    1854:	fc 01       	movw	r30, r24
    1856:	ea 59       	subi	r30, 0x9A	; 154
    1858:	fe 4f       	sbci	r31, 0xFE	; 254
    185a:	10 82       	st	Z, r1
    185c:	08 95       	ret

0000185e <eprom_write>:

#include "include/eeprom_functions.h"


uint8_t eprom_write (volatile sensValues* values_1,volatile sensValues* values_2,volatile sensValues* values_3, uint32_t* memory_adress)
{
    185e:	8f 92       	push	r8
    1860:	9f 92       	push	r9
    1862:	af 92       	push	r10
    1864:	bf 92       	push	r11
    1866:	cf 92       	push	r12
    1868:	df 92       	push	r13
    186a:	ef 92       	push	r14
    186c:	ff 92       	push	r15
    186e:	0f 93       	push	r16
    1870:	1f 93       	push	r17
    1872:	cf 93       	push	r28
    1874:	df 93       	push	r29
    1876:	cd b7       	in	r28, 0x3d	; 61
    1878:	de b7       	in	r29, 0x3e	; 62
    187a:	64 97       	sbiw	r28, 0x14	; 20
    187c:	0f b6       	in	r0, 0x3f	; 63
    187e:	f8 94       	cli
    1880:	de bf       	out	0x3e, r29	; 62
    1882:	0f be       	out	0x3f, r0	; 63
    1884:	cd bf       	out	0x3d, r28	; 61
    1886:	6c 01       	movw	r12, r24
    1888:	7b 01       	movw	r14, r22
    188a:	fa 01       	movw	r30, r20
    188c:	89 01       	movw	r16, r18
	volatile uint8_t daten[20];
	uint8_t i=0;
	
	
	ATOMIC_BLOCK(ATOMIC_RESTORESTATE)
    188e:	2f b7       	in	r18, 0x3f	; 63
    return 1;
}

static __inline__ uint8_t __iCliRetVal(void)
{
    cli();
    1890:	f8 94       	cli
	{
		daten[0]= 160 | (uint8_t) (*memory_adress>>15 & 0b00000010);
    1892:	d8 01       	movw	r26, r16
    1894:	8d 90       	ld	r8, X+
    1896:	9d 90       	ld	r9, X+
    1898:	ad 90       	ld	r10, X+
    189a:	bc 90       	ld	r11, X
    189c:	b5 01       	movw	r22, r10
    189e:	a4 01       	movw	r20, r8
    18a0:	af e0       	ldi	r26, 0x0F	; 15
    18a2:	76 95       	lsr	r23
    18a4:	67 95       	ror	r22
    18a6:	57 95       	ror	r21
    18a8:	47 95       	ror	r20
    18aa:	aa 95       	dec	r26
    18ac:	d1 f7       	brne	.-12     	; 0x18a2 <eprom_write+0x44>
    18ae:	42 70       	andi	r20, 0x02	; 2
    18b0:	55 27       	eor	r21, r21
    18b2:	66 27       	eor	r22, r22
    18b4:	77 27       	eor	r23, r23
    18b6:	40 6a       	ori	r20, 0xA0	; 160
    18b8:	49 83       	std	Y+1, r20	; 0x01
		daten[1]= (uint8_t) (*memory_adress>>8);
    18ba:	77 27       	eor	r23, r23
    18bc:	6b 2d       	mov	r22, r11
    18be:	5a 2d       	mov	r21, r10
    18c0:	49 2d       	mov	r20, r9
    18c2:	4a 83       	std	Y+2, r20	; 0x02
		daten[2]= (uint8_t) *memory_adress;
    18c4:	8b 82       	std	Y+3, r8	; 0x03
		
		daten[3]=sTime.days;
    18c6:	80 91 06 01 	lds	r24, 0x0106
    18ca:	8c 83       	std	Y+4, r24	; 0x04
		daten[4]=(uint8_t)(sTime.daySecs>>16);
    18cc:	80 91 07 01 	lds	r24, 0x0107
    18d0:	90 91 08 01 	lds	r25, 0x0108
    18d4:	a0 91 09 01 	lds	r26, 0x0109
    18d8:	b0 91 0a 01 	lds	r27, 0x010A
    18dc:	cd 01       	movw	r24, r26
    18de:	aa 27       	eor	r26, r26
    18e0:	bb 27       	eor	r27, r27
    18e2:	8d 83       	std	Y+5, r24	; 0x05
		daten[5]=(uint8_t)(sTime.daySecs>>8);
    18e4:	80 91 07 01 	lds	r24, 0x0107
    18e8:	90 91 08 01 	lds	r25, 0x0108
    18ec:	a0 91 09 01 	lds	r26, 0x0109
    18f0:	b0 91 0a 01 	lds	r27, 0x010A
    18f4:	89 2f       	mov	r24, r25
    18f6:	9a 2f       	mov	r25, r26
    18f8:	ab 2f       	mov	r26, r27
    18fa:	bb 27       	eor	r27, r27
    18fc:	8e 83       	std	Y+6, r24	; 0x06
		daten[6]=(uint8_t)(sTime.daySecs);
    18fe:	80 91 07 01 	lds	r24, 0x0107
    1902:	90 91 08 01 	lds	r25, 0x0108
    1906:	a0 91 09 01 	lds	r26, 0x0109
    190a:	b0 91 0a 01 	lds	r27, 0x010A
    190e:	8f 83       	std	Y+7, r24	; 0x07
		
		daten[7]=treatment;
    1910:	80 91 38 01 	lds	r24, 0x0138
    1914:	88 87       	std	Y+8, r24	; 0x08
		daten[8]=(uint8_t)values_1->MinH;
    1916:	d6 01       	movw	r26, r12
    1918:	9f 96       	adiw	r26, 0x2f	; 47
    191a:	8d 91       	ld	r24, X+
    191c:	9c 91       	ld	r25, X
    191e:	d0 97       	sbiw	r26, 0x30	; 48
    1920:	89 87       	std	Y+9, r24	; 0x09
		
		daten[9]=(uint8_t)(values_3->MhytTemp>>8);
    1922:	85 8d       	ldd	r24, Z+29	; 0x1d
    1924:	96 8d       	ldd	r25, Z+30	; 0x1e
    1926:	89 2f       	mov	r24, r25
    1928:	99 0f       	add	r25, r25
    192a:	99 0b       	sbc	r25, r25
    192c:	8a 87       	std	Y+10, r24	; 0x0a
		daten[10]=(uint8_t)(values_3->MhytTemp);
    192e:	85 8d       	ldd	r24, Z+29	; 0x1d
    1930:	96 8d       	ldd	r25, Z+30	; 0x1e
    1932:	8b 87       	std	Y+11, r24	; 0x0b
		
		daten[11]=(uint8_t)(values_3->Mfeuchte>>8);
    1934:	87 8d       	ldd	r24, Z+31	; 0x1f
    1936:	90 a1       	ldd	r25, Z+32	; 0x20
    1938:	89 2f       	mov	r24, r25
    193a:	99 0f       	add	r25, r25
    193c:	99 0b       	sbc	r25, r25
    193e:	8c 87       	std	Y+12, r24	; 0x0c
		daten[12]=(uint8_t)(values_3->Mfeuchte);
    1940:	87 8d       	ldd	r24, Z+31	; 0x1f
    1942:	90 a1       	ldd	r25, Z+32	; 0x20
    1944:	8d 87       	std	Y+13, r24	; 0x0d
		
		daten[13]=(uint8_t)(values_3->Mpressure>>24);
    1946:	81 a1       	ldd	r24, Z+33	; 0x21
    1948:	92 a1       	ldd	r25, Z+34	; 0x22
    194a:	a3 a1       	ldd	r26, Z+35	; 0x23
    194c:	b4 a1       	ldd	r27, Z+36	; 0x24
    194e:	8b 2f       	mov	r24, r27
    1950:	bb 27       	eor	r27, r27
    1952:	87 fd       	sbrc	r24, 7
    1954:	b0 95       	com	r27
    1956:	9b 2f       	mov	r25, r27
    1958:	ab 2f       	mov	r26, r27
    195a:	8e 87       	std	Y+14, r24	; 0x0e
		daten[14]=(uint8_t)(values_3->Mpressure>>16);
    195c:	81 a1       	ldd	r24, Z+33	; 0x21
    195e:	92 a1       	ldd	r25, Z+34	; 0x22
    1960:	a3 a1       	ldd	r26, Z+35	; 0x23
    1962:	b4 a1       	ldd	r27, Z+36	; 0x24
    1964:	cd 01       	movw	r24, r26
    1966:	bb 27       	eor	r27, r27
    1968:	97 fd       	sbrc	r25, 7
    196a:	b0 95       	com	r27
    196c:	ab 2f       	mov	r26, r27
    196e:	8f 87       	std	Y+15, r24	; 0x0f
		daten[15]=(uint8_t)(values_3->Mpressure>>8);
    1970:	81 a1       	ldd	r24, Z+33	; 0x21
    1972:	92 a1       	ldd	r25, Z+34	; 0x22
    1974:	a3 a1       	ldd	r26, Z+35	; 0x23
    1976:	b4 a1       	ldd	r27, Z+36	; 0x24
    1978:	89 2f       	mov	r24, r25
    197a:	9a 2f       	mov	r25, r26
    197c:	ab 2f       	mov	r26, r27
    197e:	bb 27       	eor	r27, r27
    1980:	a7 fd       	sbrc	r26, 7
    1982:	ba 95       	dec	r27
    1984:	88 8b       	std	Y+16, r24	; 0x10
		daten[16]=(uint8_t)(values_3->Mpressure);
    1986:	81 a1       	ldd	r24, Z+33	; 0x21
    1988:	92 a1       	ldd	r25, Z+34	; 0x22
    198a:	a3 a1       	ldd	r26, Z+35	; 0x23
    198c:	b4 a1       	ldd	r27, Z+36	; 0x24
    198e:	89 8b       	std	Y+17, r24	; 0x11
		
		daten[17]=(uint8_t)(values_3->Mco>>8);
    1990:	83 8d       	ldd	r24, Z+27	; 0x1b
    1992:	94 8d       	ldd	r25, Z+28	; 0x1c
    1994:	89 2f       	mov	r24, r25
    1996:	99 0f       	add	r25, r25
    1998:	99 0b       	sbc	r25, r25
    199a:	8a 8b       	std	Y+18, r24	; 0x12
		daten[18]=(uint8_t)values_3->Mco;
    199c:	83 8d       	ldd	r24, Z+27	; 0x1b
    199e:	94 8d       	ldd	r25, Z+28	; 0x1c
    19a0:	8b 8b       	std	Y+19, r24	; 0x13
    (void)__s;
}

static __inline__ void __iRestore(const  uint8_t *__s)
{
    SREG = *__s;
    19a2:	2f bf       	out	0x3f, r18	; 63
    __asm__ volatile ("" ::: "memory");
    19a4:	64 e6       	ldi	r22, 0x64	; 100
    19a6:	b6 2e       	mov	r11, r22
	}
	i=0;
	do
	{
		i++;
		i2c_comm(daten,19,0,0);
    19a8:	20 e0       	ldi	r18, 0x00	; 0
    19aa:	40 e0       	ldi	r20, 0x00	; 0
    19ac:	63 e1       	ldi	r22, 0x13	; 19
    19ae:	ce 01       	movw	r24, r28
    19b0:	01 96       	adiw	r24, 0x01	; 1
    19b2:	0e 94 d2 10 	call	0x21a4	; 0x21a4 <i2c_comm>
	} while (I2CBuffer.succesBit && (i<100) );
    19b6:	80 91 a4 00 	lds	r24, 0x00A4
    19ba:	88 23       	and	r24, r24
    19bc:	11 f0       	breq	.+4      	; 0x19c2 <eprom_write+0x164>
    19be:	ba 94       	dec	r11
    19c0:	99 f7       	brne	.-26     	; 0x19a8 <eprom_write+0x14a>
	*memory_adress+=16;
    19c2:	f8 01       	movw	r30, r16
    19c4:	80 81       	ld	r24, Z
    19c6:	91 81       	ldd	r25, Z+1	; 0x01
    19c8:	a2 81       	ldd	r26, Z+2	; 0x02
    19ca:	b3 81       	ldd	r27, Z+3	; 0x03
    19cc:	40 96       	adiw	r24, 0x10	; 16
    19ce:	a1 1d       	adc	r26, r1
    19d0:	b1 1d       	adc	r27, r1
    19d2:	80 83       	st	Z, r24
    19d4:	91 83       	std	Z+1, r25	; 0x01
    19d6:	a2 83       	std	Z+2, r26	; 0x02
    19d8:	b3 83       	std	Z+3, r27	; 0x03
	
	
	ATOMIC_BLOCK(ATOMIC_RESTORESTATE)
    19da:	2f b7       	in	r18, 0x3f	; 63
    return 1;
}

static __inline__ uint8_t __iCliRetVal(void)
{
    cli();
    19dc:	f8 94       	cli
	{
		daten[0]= 160 | (uint8_t) (*memory_adress>>15 & 0b00000010);
    19de:	40 81       	ld	r20, Z
    19e0:	51 81       	ldd	r21, Z+1	; 0x01
    19e2:	62 81       	ldd	r22, Z+2	; 0x02
    19e4:	73 81       	ldd	r23, Z+3	; 0x03
    19e6:	db 01       	movw	r26, r22
    19e8:	ca 01       	movw	r24, r20
    19ea:	ef e0       	ldi	r30, 0x0F	; 15
    19ec:	b6 95       	lsr	r27
    19ee:	a7 95       	ror	r26
    19f0:	97 95       	ror	r25
    19f2:	87 95       	ror	r24
    19f4:	ea 95       	dec	r30
    19f6:	d1 f7       	brne	.-12     	; 0x19ec <eprom_write+0x18e>
    19f8:	82 70       	andi	r24, 0x02	; 2
    19fa:	99 27       	eor	r25, r25
    19fc:	aa 27       	eor	r26, r26
    19fe:	bb 27       	eor	r27, r27
    1a00:	80 6a       	ori	r24, 0xA0	; 160
    1a02:	89 83       	std	Y+1, r24	; 0x01
		daten[1]= (uint8_t) (*memory_adress>>8);
    1a04:	bb 27       	eor	r27, r27
    1a06:	a7 2f       	mov	r26, r23
    1a08:	96 2f       	mov	r25, r22
    1a0a:	85 2f       	mov	r24, r21
    1a0c:	8a 83       	std	Y+2, r24	; 0x02
		daten[2]= (uint8_t) *memory_adress;
    1a0e:	4b 83       	std	Y+3, r20	; 0x03
		
		daten[3]=(uint8_t)(values_1->MhytTemp>>8);
    1a10:	f6 01       	movw	r30, r12
    1a12:	85 8d       	ldd	r24, Z+29	; 0x1d
    1a14:	96 8d       	ldd	r25, Z+30	; 0x1e
    1a16:	89 2f       	mov	r24, r25
    1a18:	99 0f       	add	r25, r25
    1a1a:	99 0b       	sbc	r25, r25
    1a1c:	8c 83       	std	Y+4, r24	; 0x04
		daten[4]=(uint8_t)(values_1->MhytTemp);
    1a1e:	85 8d       	ldd	r24, Z+29	; 0x1d
    1a20:	96 8d       	ldd	r25, Z+30	; 0x1e
    1a22:	8d 83       	std	Y+5, r24	; 0x05
		
		daten[5]=(uint8_t)(values_1->Mfeuchte>>8);
    1a24:	87 8d       	ldd	r24, Z+31	; 0x1f
    1a26:	90 a1       	ldd	r25, Z+32	; 0x20
    1a28:	89 2f       	mov	r24, r25
    1a2a:	99 0f       	add	r25, r25
    1a2c:	99 0b       	sbc	r25, r25
    1a2e:	8e 83       	std	Y+6, r24	; 0x06
		daten[6]=(uint8_t)(values_1->Mfeuchte);
    1a30:	87 8d       	ldd	r24, Z+31	; 0x1f
    1a32:	90 a1       	ldd	r25, Z+32	; 0x20
    1a34:	8f 83       	std	Y+7, r24	; 0x07
		
		daten[7]=(uint8_t)(values_1->Mpressure>>24);
    1a36:	81 a1       	ldd	r24, Z+33	; 0x21
    1a38:	92 a1       	ldd	r25, Z+34	; 0x22
    1a3a:	a3 a1       	ldd	r26, Z+35	; 0x23
    1a3c:	b4 a1       	ldd	r27, Z+36	; 0x24
    1a3e:	8b 2f       	mov	r24, r27
    1a40:	bb 27       	eor	r27, r27
    1a42:	87 fd       	sbrc	r24, 7
    1a44:	b0 95       	com	r27
    1a46:	9b 2f       	mov	r25, r27
    1a48:	ab 2f       	mov	r26, r27
    1a4a:	88 87       	std	Y+8, r24	; 0x08
		daten[8]=(uint8_t)(values_1->Mpressure>>16);
    1a4c:	81 a1       	ldd	r24, Z+33	; 0x21
    1a4e:	92 a1       	ldd	r25, Z+34	; 0x22
    1a50:	a3 a1       	ldd	r26, Z+35	; 0x23
    1a52:	b4 a1       	ldd	r27, Z+36	; 0x24
    1a54:	cd 01       	movw	r24, r26
    1a56:	bb 27       	eor	r27, r27
    1a58:	97 fd       	sbrc	r25, 7
    1a5a:	b0 95       	com	r27
    1a5c:	ab 2f       	mov	r26, r27
    1a5e:	89 87       	std	Y+9, r24	; 0x09
		daten[9]=(uint8_t)(values_1->Mpressure>>8);
    1a60:	81 a1       	ldd	r24, Z+33	; 0x21
    1a62:	92 a1       	ldd	r25, Z+34	; 0x22
    1a64:	a3 a1       	ldd	r26, Z+35	; 0x23
    1a66:	b4 a1       	ldd	r27, Z+36	; 0x24
    1a68:	89 2f       	mov	r24, r25
    1a6a:	9a 2f       	mov	r25, r26
    1a6c:	ab 2f       	mov	r26, r27
    1a6e:	bb 27       	eor	r27, r27
    1a70:	a7 fd       	sbrc	r26, 7
    1a72:	ba 95       	dec	r27
    1a74:	8a 87       	std	Y+10, r24	; 0x0a
		daten[10]=(uint8_t)(values_1->Mpressure);
    1a76:	81 a1       	ldd	r24, Z+33	; 0x21
    1a78:	92 a1       	ldd	r25, Z+34	; 0x22
    1a7a:	a3 a1       	ldd	r26, Z+35	; 0x23
    1a7c:	b4 a1       	ldd	r27, Z+36	; 0x24
    1a7e:	8b 87       	std	Y+11, r24	; 0x0b
		
		daten[11]=(uint8_t)(values_1->Mco>>8);
    1a80:	83 8d       	ldd	r24, Z+27	; 0x1b
    1a82:	94 8d       	ldd	r25, Z+28	; 0x1c
    1a84:	89 2f       	mov	r24, r25
    1a86:	99 0f       	add	r25, r25
    1a88:	99 0b       	sbc	r25, r25
    1a8a:	8c 87       	std	Y+12, r24	; 0x0c
		daten[12]=(uint8_t)values_1->Mco;
    1a8c:	83 8d       	ldd	r24, Z+27	; 0x1b
    1a8e:	94 8d       	ldd	r25, Z+28	; 0x1c
    1a90:	8d 87       	std	Y+13, r24	; 0x0d
		
		daten[13]=(uint8_t)(values_1->Mppfd>>8);
    1a92:	81 8d       	ldd	r24, Z+25	; 0x19
    1a94:	92 8d       	ldd	r25, Z+26	; 0x1a
    1a96:	89 2f       	mov	r24, r25
    1a98:	99 0f       	add	r25, r25
    1a9a:	99 0b       	sbc	r25, r25
    1a9c:	8e 87       	std	Y+14, r24	; 0x0e
		daten[14]=(uint8_t)(values_1->Mppfd);
    1a9e:	81 8d       	ldd	r24, Z+25	; 0x19
    1aa0:	92 8d       	ldd	r25, Z+26	; 0x1a
    1aa2:	8f 87       	std	Y+15, r24	; 0x0f
		
		daten[15]=(uint8_t)((uint16_t)values_1->MVPD>>8);
    1aa4:	85 a5       	ldd	r24, Z+45	; 0x2d
    1aa6:	96 a5       	ldd	r25, Z+46	; 0x2e
    1aa8:	98 8b       	std	Y+16, r25	; 0x10
		daten[16]=(uint8_t)((uint16_t)values_1->MVPD);
    1aaa:	85 a5       	ldd	r24, Z+45	; 0x2d
    1aac:	96 a5       	ldd	r25, Z+46	; 0x2e
    1aae:	89 8b       	std	Y+17, r24	; 0x11
		
		daten[17]=(uint8_t)((uint16_t)values_1->MAF>>8);
    1ab0:	83 a5       	ldd	r24, Z+43	; 0x2b
    1ab2:	94 a5       	ldd	r25, Z+44	; 0x2c
    1ab4:	9a 8b       	std	Y+18, r25	; 0x12
		daten[18]=(uint8_t)((uint16_t)values_1->MAF);
    1ab6:	83 a5       	ldd	r24, Z+43	; 0x2b
    1ab8:	94 a5       	ldd	r25, Z+44	; 0x2c
    1aba:	8b 8b       	std	Y+19, r24	; 0x13
    (void)__s;
}

static __inline__ void __iRestore(const  uint8_t *__s)
{
    SREG = *__s;
    1abc:	2f bf       	out	0x3f, r18	; 63
    __asm__ volatile ("" ::: "memory");
    1abe:	e4 e6       	ldi	r30, 0x64	; 100
    1ac0:	de 2e       	mov	r13, r30
	}
	i=0;
	do
	{
		i++;
		i2c_comm(daten,19,0,0);
    1ac2:	20 e0       	ldi	r18, 0x00	; 0
    1ac4:	40 e0       	ldi	r20, 0x00	; 0
    1ac6:	63 e1       	ldi	r22, 0x13	; 19
    1ac8:	ce 01       	movw	r24, r28
    1aca:	01 96       	adiw	r24, 0x01	; 1
    1acc:	0e 94 d2 10 	call	0x21a4	; 0x21a4 <i2c_comm>
	} while (I2CBuffer.succesBit && (i<100) );
    1ad0:	80 91 a4 00 	lds	r24, 0x00A4
    1ad4:	88 23       	and	r24, r24
    1ad6:	11 f0       	breq	.+4      	; 0x1adc <eprom_write+0x27e>
    1ad8:	da 94       	dec	r13
    1ada:	99 f7       	brne	.-26     	; 0x1ac2 <eprom_write+0x264>
	*memory_adress+=16;
    1adc:	f8 01       	movw	r30, r16
    1ade:	80 81       	ld	r24, Z
    1ae0:	91 81       	ldd	r25, Z+1	; 0x01
    1ae2:	a2 81       	ldd	r26, Z+2	; 0x02
    1ae4:	b3 81       	ldd	r27, Z+3	; 0x03
    1ae6:	40 96       	adiw	r24, 0x10	; 16
    1ae8:	a1 1d       	adc	r26, r1
    1aea:	b1 1d       	adc	r27, r1
    1aec:	80 83       	st	Z, r24
    1aee:	91 83       	std	Z+1, r25	; 0x01
    1af0:	a2 83       	std	Z+2, r26	; 0x02
    1af2:	b3 83       	std	Z+3, r27	; 0x03
	
	ATOMIC_BLOCK(ATOMIC_RESTORESTATE)
    1af4:	2f b7       	in	r18, 0x3f	; 63
    return 1;
}

static __inline__ uint8_t __iCliRetVal(void)
{
    cli();
    1af6:	f8 94       	cli
	{
		daten[0]= 160 | (uint8_t) (*memory_adress>>15 & 0b00000010);
    1af8:	80 81       	ld	r24, Z
    1afa:	91 81       	ldd	r25, Z+1	; 0x01
    1afc:	a2 81       	ldd	r26, Z+2	; 0x02
    1afe:	b3 81       	ldd	r27, Z+3	; 0x03
    1b00:	ac 01       	movw	r20, r24
    1b02:	bd 01       	movw	r22, r26
    1b04:	ef e0       	ldi	r30, 0x0F	; 15
    1b06:	76 95       	lsr	r23
    1b08:	67 95       	ror	r22
    1b0a:	57 95       	ror	r21
    1b0c:	47 95       	ror	r20
    1b0e:	ea 95       	dec	r30
    1b10:	d1 f7       	brne	.-12     	; 0x1b06 <eprom_write+0x2a8>
    1b12:	42 70       	andi	r20, 0x02	; 2
    1b14:	55 27       	eor	r21, r21
    1b16:	66 27       	eor	r22, r22
    1b18:	77 27       	eor	r23, r23
    1b1a:	40 6a       	ori	r20, 0xA0	; 160
    1b1c:	49 83       	std	Y+1, r20	; 0x01
		daten[1]= (uint8_t) (*memory_adress>>8);
    1b1e:	49 2f       	mov	r20, r25
    1b20:	5a 2f       	mov	r21, r26
    1b22:	6b 2f       	mov	r22, r27
    1b24:	77 27       	eor	r23, r23
    1b26:	4a 83       	std	Y+2, r20	; 0x02
		daten[2]= (uint8_t) *memory_adress;
    1b28:	8b 83       	std	Y+3, r24	; 0x03
		
		daten[3]=(uint8_t)(values_2->MhytTemp>>8);
    1b2a:	d7 01       	movw	r26, r14
    1b2c:	5d 96       	adiw	r26, 0x1d	; 29
    1b2e:	8d 91       	ld	r24, X+
    1b30:	9c 91       	ld	r25, X
    1b32:	5e 97       	sbiw	r26, 0x1e	; 30
    1b34:	89 2f       	mov	r24, r25
    1b36:	99 0f       	add	r25, r25
    1b38:	99 0b       	sbc	r25, r25
    1b3a:	8c 83       	std	Y+4, r24	; 0x04
		daten[4]=(uint8_t)(values_2->MhytTemp);
    1b3c:	5d 96       	adiw	r26, 0x1d	; 29
    1b3e:	8d 91       	ld	r24, X+
    1b40:	9c 91       	ld	r25, X
    1b42:	5e 97       	sbiw	r26, 0x1e	; 30
    1b44:	8d 83       	std	Y+5, r24	; 0x05
		
		daten[5]=(uint8_t)(values_2->Mfeuchte>>8);
    1b46:	5f 96       	adiw	r26, 0x1f	; 31
    1b48:	8d 91       	ld	r24, X+
    1b4a:	9c 91       	ld	r25, X
    1b4c:	90 97       	sbiw	r26, 0x20	; 32
    1b4e:	89 2f       	mov	r24, r25
    1b50:	99 0f       	add	r25, r25
    1b52:	99 0b       	sbc	r25, r25
    1b54:	8e 83       	std	Y+6, r24	; 0x06
		daten[6]=(uint8_t)(values_2->Mfeuchte);
    1b56:	5f 96       	adiw	r26, 0x1f	; 31
    1b58:	8d 91       	ld	r24, X+
    1b5a:	9c 91       	ld	r25, X
    1b5c:	90 97       	sbiw	r26, 0x20	; 32
    1b5e:	8f 83       	std	Y+7, r24	; 0x07
		
		daten[7]=(uint8_t)(values_2->Mpressure>>24);
    1b60:	91 96       	adiw	r26, 0x21	; 33
    1b62:	8d 91       	ld	r24, X+
    1b64:	9d 91       	ld	r25, X+
    1b66:	0d 90       	ld	r0, X+
    1b68:	bc 91       	ld	r27, X
    1b6a:	a0 2d       	mov	r26, r0
    1b6c:	8b 2f       	mov	r24, r27
    1b6e:	bb 27       	eor	r27, r27
    1b70:	87 fd       	sbrc	r24, 7
    1b72:	b0 95       	com	r27
    1b74:	9b 2f       	mov	r25, r27
    1b76:	ab 2f       	mov	r26, r27
    1b78:	88 87       	std	Y+8, r24	; 0x08
		daten[8]=(uint8_t)(values_2->Mpressure>>16);
    1b7a:	f7 01       	movw	r30, r14
    1b7c:	81 a1       	ldd	r24, Z+33	; 0x21
    1b7e:	92 a1       	ldd	r25, Z+34	; 0x22
    1b80:	a3 a1       	ldd	r26, Z+35	; 0x23
    1b82:	b4 a1       	ldd	r27, Z+36	; 0x24
    1b84:	cd 01       	movw	r24, r26
    1b86:	bb 27       	eor	r27, r27
    1b88:	97 fd       	sbrc	r25, 7
    1b8a:	b0 95       	com	r27
    1b8c:	ab 2f       	mov	r26, r27
    1b8e:	89 87       	std	Y+9, r24	; 0x09
		daten[9]=(uint8_t)(values_2->Mpressure>>8);
    1b90:	81 a1       	ldd	r24, Z+33	; 0x21
    1b92:	92 a1       	ldd	r25, Z+34	; 0x22
    1b94:	a3 a1       	ldd	r26, Z+35	; 0x23
    1b96:	b4 a1       	ldd	r27, Z+36	; 0x24
    1b98:	89 2f       	mov	r24, r25
    1b9a:	9a 2f       	mov	r25, r26
    1b9c:	ab 2f       	mov	r26, r27
    1b9e:	bb 27       	eor	r27, r27
    1ba0:	a7 fd       	sbrc	r26, 7
    1ba2:	ba 95       	dec	r27
    1ba4:	8a 87       	std	Y+10, r24	; 0x0a
		daten[10]=(uint8_t)(values_2->Mpressure);
    1ba6:	81 a1       	ldd	r24, Z+33	; 0x21
    1ba8:	92 a1       	ldd	r25, Z+34	; 0x22
    1baa:	a3 a1       	ldd	r26, Z+35	; 0x23
    1bac:	b4 a1       	ldd	r27, Z+36	; 0x24
    1bae:	8b 87       	std	Y+11, r24	; 0x0b
		
		daten[11]=(uint8_t)(values_2->Mco>>8);
    1bb0:	83 8d       	ldd	r24, Z+27	; 0x1b
    1bb2:	94 8d       	ldd	r25, Z+28	; 0x1c
    1bb4:	89 2f       	mov	r24, r25
    1bb6:	99 0f       	add	r25, r25
    1bb8:	99 0b       	sbc	r25, r25
    1bba:	8c 87       	std	Y+12, r24	; 0x0c
		daten[12]=(uint8_t)values_2->Mco;
    1bbc:	83 8d       	ldd	r24, Z+27	; 0x1b
    1bbe:	94 8d       	ldd	r25, Z+28	; 0x1c
    1bc0:	8d 87       	std	Y+13, r24	; 0x0d
		
		daten[13]=(uint8_t)(values_2->Mppfd>>8);
    1bc2:	81 8d       	ldd	r24, Z+25	; 0x19
    1bc4:	92 8d       	ldd	r25, Z+26	; 0x1a
    1bc6:	89 2f       	mov	r24, r25
    1bc8:	99 0f       	add	r25, r25
    1bca:	99 0b       	sbc	r25, r25
    1bcc:	8e 87       	std	Y+14, r24	; 0x0e
		daten[14]=(uint8_t)(values_2->Mppfd);
    1bce:	81 8d       	ldd	r24, Z+25	; 0x19
    1bd0:	92 8d       	ldd	r25, Z+26	; 0x1a
    1bd2:	8f 87       	std	Y+15, r24	; 0x0f
		
		daten[15]=(uint8_t)(values_2->MVPD>>8);
    1bd4:	85 a5       	ldd	r24, Z+45	; 0x2d
    1bd6:	96 a5       	ldd	r25, Z+46	; 0x2e
    1bd8:	89 2f       	mov	r24, r25
    1bda:	99 0f       	add	r25, r25
    1bdc:	99 0b       	sbc	r25, r25
    1bde:	88 8b       	std	Y+16, r24	; 0x10
		daten[16]=(uint8_t)(values_2->MVPD);
    1be0:	85 a5       	ldd	r24, Z+45	; 0x2d
    1be2:	96 a5       	ldd	r25, Z+46	; 0x2e
    1be4:	89 8b       	std	Y+17, r24	; 0x11
		
		daten[17]=(uint8_t)(values_2->MAF>>8);
    1be6:	83 a5       	ldd	r24, Z+43	; 0x2b
    1be8:	94 a5       	ldd	r25, Z+44	; 0x2c
    1bea:	89 2f       	mov	r24, r25
    1bec:	99 0f       	add	r25, r25
    1bee:	99 0b       	sbc	r25, r25
    1bf0:	8a 8b       	std	Y+18, r24	; 0x12
		daten[18]=(uint8_t)(values_2->MAF);
    1bf2:	83 a5       	ldd	r24, Z+43	; 0x2b
    1bf4:	94 a5       	ldd	r25, Z+44	; 0x2c
    1bf6:	8b 8b       	std	Y+19, r24	; 0x13
    (void)__s;
}

static __inline__ void __iRestore(const  uint8_t *__s)
{
    SREG = *__s;
    1bf8:	2f bf       	out	0x3f, r18	; 63
    __asm__ volatile ("" ::: "memory");
    1bfa:	54 e6       	ldi	r21, 0x64	; 100
    1bfc:	f5 2e       	mov	r15, r21
	}
	i=0;
	do
	{
		i++;
		i2c_comm(daten,19,0,0);
    1bfe:	20 e0       	ldi	r18, 0x00	; 0
    1c00:	40 e0       	ldi	r20, 0x00	; 0
    1c02:	63 e1       	ldi	r22, 0x13	; 19
    1c04:	ce 01       	movw	r24, r28
    1c06:	01 96       	adiw	r24, 0x01	; 1
    1c08:	0e 94 d2 10 	call	0x21a4	; 0x21a4 <i2c_comm>
	} while (I2CBuffer.succesBit && (i<100) );
    1c0c:	80 91 a4 00 	lds	r24, 0x00A4
    1c10:	88 23       	and	r24, r24
    1c12:	11 f0       	breq	.+4      	; 0x1c18 <eprom_write+0x3ba>
    1c14:	fa 94       	dec	r15
    1c16:	99 f7       	brne	.-26     	; 0x1bfe <eprom_write+0x3a0>
	*memory_adress+=16;
    1c18:	f8 01       	movw	r30, r16
    1c1a:	80 81       	ld	r24, Z
    1c1c:	91 81       	ldd	r25, Z+1	; 0x01
    1c1e:	a2 81       	ldd	r26, Z+2	; 0x02
    1c20:	b3 81       	ldd	r27, Z+3	; 0x03
    1c22:	40 96       	adiw	r24, 0x10	; 16
    1c24:	a1 1d       	adc	r26, r1
    1c26:	b1 1d       	adc	r27, r1
    1c28:	80 83       	st	Z, r24
    1c2a:	91 83       	std	Z+1, r25	; 0x01
    1c2c:	a2 83       	std	Z+2, r26	; 0x02
    1c2e:	b3 83       	std	Z+3, r27	; 0x03
	
	
	ATOMIC_BLOCK(ATOMIC_RESTORESTATE)
    1c30:	2f b7       	in	r18, 0x3f	; 63
    return 1;
}

static __inline__ uint8_t __iCliRetVal(void)
{
    cli();
    1c32:	f8 94       	cli
	{
		daten[0]= 160 | (uint8_t) (*memory_adress>>15 & 0b00000010);
    1c34:	80 81       	ld	r24, Z
    1c36:	91 81       	ldd	r25, Z+1	; 0x01
    1c38:	a2 81       	ldd	r26, Z+2	; 0x02
    1c3a:	b3 81       	ldd	r27, Z+3	; 0x03
    1c3c:	ac 01       	movw	r20, r24
    1c3e:	bd 01       	movw	r22, r26
    1c40:	3f e0       	ldi	r19, 0x0F	; 15
    1c42:	76 95       	lsr	r23
    1c44:	67 95       	ror	r22
    1c46:	57 95       	ror	r21
    1c48:	47 95       	ror	r20
    1c4a:	3a 95       	dec	r19
    1c4c:	d1 f7       	brne	.-12     	; 0x1c42 <eprom_write+0x3e4>
    1c4e:	42 70       	andi	r20, 0x02	; 2
    1c50:	55 27       	eor	r21, r21
    1c52:	66 27       	eor	r22, r22
    1c54:	77 27       	eor	r23, r23
    1c56:	40 6a       	ori	r20, 0xA0	; 160
    1c58:	49 83       	std	Y+1, r20	; 0x01
		daten[1]= (uint8_t) (*memory_adress>>8);
    1c5a:	49 2f       	mov	r20, r25
    1c5c:	5a 2f       	mov	r21, r26
    1c5e:	6b 2f       	mov	r22, r27
    1c60:	77 27       	eor	r23, r23
    1c62:	4a 83       	std	Y+2, r20	; 0x02
		daten[2]= (uint8_t) *memory_adress;
    1c64:	8b 83       	std	Y+3, r24	; 0x03
		
		daten[3]=251;
    1c66:	8b ef       	ldi	r24, 0xFB	; 251
    1c68:	8c 83       	std	Y+4, r24	; 0x04
		daten[4]=252;
    1c6a:	8c ef       	ldi	r24, 0xFC	; 252
    1c6c:	8d 83       	std	Y+5, r24	; 0x05
		daten[5]=253;
    1c6e:	8d ef       	ldi	r24, 0xFD	; 253
    1c70:	8e 83       	std	Y+6, r24	; 0x06
		daten[6]=254;
    1c72:	8e ef       	ldi	r24, 0xFE	; 254
    1c74:	8f 83       	std	Y+7, r24	; 0x07
    (void)__s;
}

static __inline__ void __iRestore(const  uint8_t *__s)
{
    SREG = *__s;
    1c76:	2f bf       	out	0x3f, r18	; 63
    __asm__ volatile ("" ::: "memory");
    1c78:	14 e6       	ldi	r17, 0x64	; 100
	}
	i=0;
	do
	{
		i++;
		i2c_comm(daten,7,0,0);
    1c7a:	20 e0       	ldi	r18, 0x00	; 0
    1c7c:	40 e0       	ldi	r20, 0x00	; 0
    1c7e:	67 e0       	ldi	r22, 0x07	; 7
    1c80:	ce 01       	movw	r24, r28
    1c82:	01 96       	adiw	r24, 0x01	; 1
    1c84:	0e 94 d2 10 	call	0x21a4	; 0x21a4 <i2c_comm>
	} while (I2CBuffer.succesBit && (i<100) );
    1c88:	80 91 a4 00 	lds	r24, 0x00A4
    1c8c:	88 23       	and	r24, r24
    1c8e:	11 f0       	breq	.+4      	; 0x1c94 <eprom_write+0x436>
    1c90:	11 50       	subi	r17, 0x01	; 1
    1c92:	99 f7       	brne	.-26     	; 0x1c7a <eprom_write+0x41c>
	
	return 1;
}
    1c94:	81 e0       	ldi	r24, 0x01	; 1
    1c96:	64 96       	adiw	r28, 0x14	; 20
    1c98:	0f b6       	in	r0, 0x3f	; 63
    1c9a:	f8 94       	cli
    1c9c:	de bf       	out	0x3e, r29	; 62
    1c9e:	0f be       	out	0x3f, r0	; 63
    1ca0:	cd bf       	out	0x3d, r28	; 61
    1ca2:	df 91       	pop	r29
    1ca4:	cf 91       	pop	r28
    1ca6:	1f 91       	pop	r17
    1ca8:	0f 91       	pop	r16
    1caa:	ff 90       	pop	r15
    1cac:	ef 90       	pop	r14
    1cae:	df 90       	pop	r13
    1cb0:	cf 90       	pop	r12
    1cb2:	bf 90       	pop	r11
    1cb4:	af 90       	pop	r10
    1cb6:	9f 90       	pop	r9
    1cb8:	8f 90       	pop	r8
    1cba:	08 95       	ret

00001cbc <eprom_read>:


uint8_t eprom_read ()
{
    1cbc:	2f 92       	push	r2
    1cbe:	3f 92       	push	r3
    1cc0:	4f 92       	push	r4
    1cc2:	5f 92       	push	r5
    1cc4:	6f 92       	push	r6
    1cc6:	7f 92       	push	r7
    1cc8:	8f 92       	push	r8
    1cca:	9f 92       	push	r9
    1ccc:	af 92       	push	r10
    1cce:	bf 92       	push	r11
    1cd0:	cf 92       	push	r12
    1cd2:	df 92       	push	r13
    1cd4:	ef 92       	push	r14
    1cd6:	ff 92       	push	r15
    1cd8:	0f 93       	push	r16
    1cda:	1f 93       	push	r17
    1cdc:	cf 93       	push	r28
    1cde:	df 93       	push	r29
    1ce0:	cd b7       	in	r28, 0x3d	; 61
    1ce2:	de b7       	in	r29, 0x3e	; 62
    1ce4:	c6 55       	subi	r28, 0x56	; 86
    1ce6:	d1 09       	sbc	r29, r1
    1ce8:	0f b6       	in	r0, 0x3f	; 63
    1cea:	f8 94       	cli
    1cec:	de bf       	out	0x3e, r29	; 62
    1cee:	0f be       	out	0x3f, r0	; 63
    1cf0:	cd bf       	out	0x3d, r28	; 61
	//uint8_t TCCR0Backup=TCCR0;
	//TCCR0 = 0;
		
	volatile uint32_t adress=64;
    1cf2:	fe 01       	movw	r30, r28
    1cf4:	ef 5b       	subi	r30, 0xBF	; 191
    1cf6:	ff 4f       	sbci	r31, 0xFF	; 255
    1cf8:	80 e4       	ldi	r24, 0x40	; 64
    1cfa:	90 e0       	ldi	r25, 0x00	; 0
    1cfc:	a0 e0       	ldi	r26, 0x00	; 0
    1cfe:	b0 e0       	ldi	r27, 0x00	; 0
    1d00:	80 83       	st	Z, r24
    1d02:	91 83       	std	Z+1, r25	; 0x01
    1d04:	a2 83       	std	Z+2, r26	; 0x02
    1d06:	b3 83       	std	Z+3, r27	; 0x03
	volatile uint8_t *values;
	uint8_t i=0;
	uint8_t lastByte=0;
	char cdaten[8];
	
	AdressDaten[0]=0;
    1d08:	6e 01       	movw	r12, r28
    1d0a:	45 e4       	ldi	r20, 0x45	; 69
    1d0c:	c4 0e       	add	r12, r20
    1d0e:	d1 1c       	adc	r13, r1
    1d10:	d6 01       	movw	r26, r12
    1d12:	1c 92       	st	X, r1
	AdressDaten[1]=0;
    1d14:	11 96       	adiw	r26, 0x01	; 1
    1d16:	1c 92       	st	X, r1
	
	while ( !lastByte )
	{
		AdressDaten[0]= 160 | (uint8_t) ( (adress>>15) & 0b00000010);
    1d18:	8f 01       	movw	r16, r30
    1d1a:	76 01       	movw	r14, r12
		adress+=16;
		
		
		for (int j = 0; j< 16 ; j++)
		{
			daten [j] = *values;
    1d1c:	5e 01       	movw	r10, r28
    1d1e:	b1 e2       	ldi	r27, 0x21	; 33
    1d20:	ab 0e       	add	r10, r27
    1d22:	b1 1c       	adc	r11, r1
	
	return 1;
}


uint8_t eprom_read ()
    1d24:	3e 01       	movw	r6, r28
    1d26:	ed e1       	ldi	r30, 0x1D	; 29
    1d28:	6e 0e       	add	r6, r30
    1d2a:	71 1c       	adc	r7, r1
	char cdaten[8];
	
	AdressDaten[0]=0;
	AdressDaten[1]=0;
	
	while ( !lastByte )
    1d2c:	f2 c1       	rjmp	.+996    	; 0x2112 <eprom_read+0x456>
		
		//Status-Paket + RHO und S
		do
		{
			i++;
			values = i2c_comm(AdressDaten,3,16,1);
    1d2e:	21 e0       	ldi	r18, 0x01	; 1
    1d30:	40 e1       	ldi	r20, 0x10	; 16
    1d32:	63 e0       	ldi	r22, 0x03	; 3
    1d34:	c6 01       	movw	r24, r12
    1d36:	0e 94 d2 10 	call	0x21a4	; 0x21a4 <i2c_comm>
		} while (I2CBuffer.succesBit && (i<100) );
    1d3a:	20 91 a4 00 	lds	r18, 0x00A4
    1d3e:	21 11       	cpse	r18, r1
    1d40:	11 c0       	rjmp	.+34     	; 0x1d64 <eprom_read+0xa8>
		i=0;
		adress+=16;
    1d42:	d8 01       	movw	r26, r16
    1d44:	4d 91       	ld	r20, X+
    1d46:	5d 91       	ld	r21, X+
    1d48:	6d 91       	ld	r22, X+
    1d4a:	7c 91       	ld	r23, X
    1d4c:	40 5f       	subi	r20, 0xF0	; 240
    1d4e:	5f 4f       	sbci	r21, 0xFF	; 255
    1d50:	6f 4f       	sbci	r22, 0xFF	; 255
    1d52:	7f 4f       	sbci	r23, 0xFF	; 255
    1d54:	f8 01       	movw	r30, r16
    1d56:	40 83       	st	Z, r20
    1d58:	51 83       	std	Z+1, r21	; 0x01
    1d5a:	62 83       	std	Z+2, r22	; 0x02
    1d5c:	73 83       	std	Z+3, r23	; 0x03
		
		
		for (int j = 0; j< 16 ; j++)
    1d5e:	20 e0       	ldi	r18, 0x00	; 0
    1d60:	30 e0       	ldi	r19, 0x00	; 0
    1d62:	03 c0       	rjmp	.+6      	; 0x1d6a <eprom_read+0xae>
    1d64:	9a 94       	dec	r9
		//Status-Paket + RHO und S
		do
		{
			i++;
			values = i2c_comm(AdressDaten,3,16,1);
		} while (I2CBuffer.succesBit && (i<100) );
    1d66:	19 f7       	brne	.-58     	; 0x1d2e <eprom_read+0x72>
    1d68:	ec cf       	rjmp	.-40     	; 0x1d42 <eprom_read+0x86>
	
	return 1;
}


uint8_t eprom_read ()
    1d6a:	fc 01       	movw	r30, r24
    1d6c:	e2 0f       	add	r30, r18
    1d6e:	f3 1f       	adc	r31, r19
		adress+=16;
		
		
		for (int j = 0; j< 16 ; j++)
		{
			daten [j] = *values;
    1d70:	40 81       	ld	r20, Z
    1d72:	f5 01       	movw	r30, r10
    1d74:	e2 0f       	add	r30, r18
    1d76:	f3 1f       	adc	r31, r19
    1d78:	40 83       	st	Z, r20
		} while (I2CBuffer.succesBit && (i<100) );
		i=0;
		adress+=16;
		
		
		for (int j = 0; j< 16 ; j++)
    1d7a:	2f 5f       	subi	r18, 0xFF	; 255
    1d7c:	3f 4f       	sbci	r19, 0xFF	; 255
    1d7e:	20 31       	cpi	r18, 0x10	; 16
    1d80:	31 05       	cpc	r19, r1
    1d82:	99 f7       	brne	.-26     	; 0x1d6a <eprom_read+0xae>
		{
			daten [j] = *values;
			values++;
		}
		
		if ((daten[0] == 251) &  (daten[1] == 252) & (daten[2] == 253) &  (daten[3] == 254))
    1d84:	49 a1       	ldd	r20, Y+33	; 0x21
    1d86:	8a a1       	ldd	r24, Y+34	; 0x22
    1d88:	3b a1       	ldd	r19, Y+35	; 0x23
    1d8a:	2c a1       	ldd	r18, Y+36	; 0x24
    1d8c:	91 e0       	ldi	r25, 0x01	; 1
    1d8e:	8c 3f       	cpi	r24, 0xFC	; 252
    1d90:	09 f0       	breq	.+2      	; 0x1d94 <eprom_read+0xd8>
    1d92:	90 e0       	ldi	r25, 0x00	; 0
    1d94:	81 e0       	ldi	r24, 0x01	; 1
    1d96:	4b 3f       	cpi	r20, 0xFB	; 251
    1d98:	09 f0       	breq	.+2      	; 0x1d9c <eprom_read+0xe0>
    1d9a:	80 e0       	ldi	r24, 0x00	; 0
    1d9c:	98 23       	and	r25, r24
    1d9e:	81 e0       	ldi	r24, 0x01	; 1
    1da0:	3d 3f       	cpi	r19, 0xFD	; 253
    1da2:	09 f0       	breq	.+2      	; 0x1da6 <eprom_read+0xea>
    1da4:	80 e0       	ldi	r24, 0x00	; 0
    1da6:	89 23       	and	r24, r25
    1da8:	19 f0       	breq	.+6      	; 0x1db0 <eprom_read+0xf4>
    1daa:	2e 3f       	cpi	r18, 0xFE	; 254
    1dac:	09 f4       	brne	.+2      	; 0x1db0 <eprom_read+0xf4>
    1dae:	d8 c1       	rjmp	.+944    	; 0x2160 <eprom_read+0x4a4>
		{
			break;
		}
		tmp[0]  = ((uint8_t)daten[0])		;
    1db0:	89 a1       	ldd	r24, Y+33	; 0x21
    1db2:	90 e0       	ldi	r25, 0x00	; 0
    1db4:	a0 e0       	ldi	r26, 0x00	; 0
    1db6:	b0 e0       	ldi	r27, 0x00	; 0
    1db8:	89 83       	std	Y+1, r24	; 0x01
    1dba:	9a 83       	std	Y+2, r25	; 0x02
    1dbc:	ab 83       	std	Y+3, r26	; 0x03
    1dbe:	bc 83       	std	Y+4, r27	; 0x04
		
		tmp[1] =  ((uint32_t)daten[1])<<16		;
    1dc0:	3a a1       	ldd	r19, Y+34	; 0x22
		tmp[1] |= ((uint32_t)daten[2])<<8	;
    1dc2:	8b a1       	ldd	r24, Y+35	; 0x23
		tmp[1] |= ((uint32_t)daten[3])			;
    1dc4:	2c a1       	ldd	r18, Y+36	; 0x24
			break;
		}
		tmp[0]  = ((uint8_t)daten[0])		;
		
		tmp[1] =  ((uint32_t)daten[1])<<16		;
		tmp[1] |= ((uint32_t)daten[2])<<8	;
    1dc6:	90 e0       	ldi	r25, 0x00	; 0
    1dc8:	a0 e0       	ldi	r26, 0x00	; 0
    1dca:	b0 e0       	ldi	r27, 0x00	; 0
    1dcc:	ba 2f       	mov	r27, r26
    1dce:	a9 2f       	mov	r26, r25
    1dd0:	98 2f       	mov	r25, r24
    1dd2:	88 27       	eor	r24, r24
    1dd4:	a3 2b       	or	r26, r19
		tmp[1] |= ((uint32_t)daten[3])			;
    1dd6:	82 2b       	or	r24, r18
    1dd8:	8d 83       	std	Y+5, r24	; 0x05
    1dda:	9e 83       	std	Y+6, r25	; 0x06
    1ddc:	af 83       	std	Y+7, r26	; 0x07
    1dde:	b8 87       	std	Y+8, r27	; 0x08
		
		tmp[2] = (int32_t)daten[4]			;
    1de0:	8d a1       	ldd	r24, Y+37	; 0x25
    1de2:	90 e0       	ldi	r25, 0x00	; 0
    1de4:	a0 e0       	ldi	r26, 0x00	; 0
    1de6:	b0 e0       	ldi	r27, 0x00	; 0
    1de8:	89 87       	std	Y+9, r24	; 0x09
    1dea:	9a 87       	std	Y+10, r25	; 0x0a
    1dec:	ab 87       	std	Y+11, r26	; 0x0b
    1dee:	bc 87       	std	Y+12, r27	; 0x0c
		tmp[3] = (int32_t)daten[5]			;
    1df0:	8e a1       	ldd	r24, Y+38	; 0x26
    1df2:	90 e0       	ldi	r25, 0x00	; 0
    1df4:	a0 e0       	ldi	r26, 0x00	; 0
    1df6:	b0 e0       	ldi	r27, 0x00	; 0
    1df8:	8d 87       	std	Y+13, r24	; 0x0d
    1dfa:	9e 87       	std	Y+14, r25	; 0x0e
    1dfc:	af 87       	std	Y+15, r26	; 0x0f
    1dfe:	b8 8b       	std	Y+16, r27	; 0x10
		
		tmp[4] = ((int16_t)daten[6])<<8			;
    1e00:	8f a1       	ldd	r24, Y+39	; 0x27
		tmp[4] |= (int16_t)daten[7]			;
    1e02:	28 a5       	ldd	r18, Y+40	; 0x28
		tmp[1] |= ((uint32_t)daten[3])			;
		
		tmp[2] = (int32_t)daten[4]			;
		tmp[3] = (int32_t)daten[5]			;
		
		tmp[4] = ((int16_t)daten[6])<<8			;
    1e04:	38 2e       	mov	r3, r24
    1e06:	21 2c       	mov	r2, r1
    1e08:	c1 01       	movw	r24, r2
    1e0a:	aa 27       	eor	r26, r26
    1e0c:	97 fd       	sbrc	r25, 7
    1e0e:	a0 95       	com	r26
    1e10:	ba 2f       	mov	r27, r26
		tmp[4] |= (int16_t)daten[7]			;
    1e12:	82 2b       	or	r24, r18
    1e14:	89 8b       	std	Y+17, r24	; 0x11
    1e16:	9a 8b       	std	Y+18, r25	; 0x12
    1e18:	ab 8b       	std	Y+19, r26	; 0x13
    1e1a:	bc 8b       	std	Y+20, r27	; 0x14
		
		tmp[5] = ((int16_t)daten[8])<<8			;
    1e1c:	89 a5       	ldd	r24, Y+41	; 0x29
		tmp[5] |=(int16_t)daten[9]			;
    1e1e:	2a a5       	ldd	r18, Y+42	; 0x2a
		tmp[3] = (int32_t)daten[5]			;
		
		tmp[4] = ((int16_t)daten[6])<<8			;
		tmp[4] |= (int16_t)daten[7]			;
		
		tmp[5] = ((int16_t)daten[8])<<8			;
    1e20:	2b 96       	adiw	r28, 0x0b	; 11
    1e22:	8f af       	std	Y+63, r24	; 0x3f
    1e24:	2b 97       	sbiw	r28, 0x0b	; 11
    1e26:	2a 96       	adiw	r28, 0x0a	; 10
    1e28:	1f ae       	std	Y+63, r1	; 0x3f
    1e2a:	2a 97       	sbiw	r28, 0x0a	; 10
    1e2c:	2b 96       	adiw	r28, 0x0b	; 11
    1e2e:	4e ad       	ldd	r20, Y+62	; 0x3e
    1e30:	5f ad       	ldd	r21, Y+63	; 0x3f
    1e32:	2b 97       	sbiw	r28, 0x0b	; 11
    1e34:	ca 01       	movw	r24, r20
    1e36:	aa 27       	eor	r26, r26
    1e38:	97 fd       	sbrc	r25, 7
    1e3a:	a0 95       	com	r26
    1e3c:	ba 2f       	mov	r27, r26
		tmp[5] |=(int16_t)daten[9]			;
    1e3e:	82 2b       	or	r24, r18
    1e40:	8d 8b       	std	Y+21, r24	; 0x15
    1e42:	9e 8b       	std	Y+22, r25	; 0x16
    1e44:	af 8b       	std	Y+23, r26	; 0x17
    1e46:	b8 8f       	std	Y+24, r27	; 0x18
		
		tmp[6]  = ((int32_t)daten[10])<<24		;
    1e48:	8b a5       	ldd	r24, Y+43	; 0x2b
		tmp[6] |= ((int32_t)daten[11])<<16		;
    1e4a:	4c a5       	ldd	r20, Y+44	; 0x2c
		tmp[6] |= ((int32_t)daten[12])<<8		;
    1e4c:	3d a5       	ldd	r19, Y+45	; 0x2d
		tmp[6] |= (int32_t)daten[13]			;
    1e4e:	2e a5       	ldd	r18, Y+46	; 0x2e
		tmp[4] |= (int16_t)daten[7]			;
		
		tmp[5] = ((int16_t)daten[8])<<8			;
		tmp[5] |=(int16_t)daten[9]			;
		
		tmp[6]  = ((int32_t)daten[10])<<24		;
    1e50:	90 e0       	ldi	r25, 0x00	; 0
    1e52:	a0 e0       	ldi	r26, 0x00	; 0
    1e54:	b0 e0       	ldi	r27, 0x00	; 0
    1e56:	b8 2f       	mov	r27, r24
    1e58:	aa 27       	eor	r26, r26
    1e5a:	99 27       	eor	r25, r25
    1e5c:	88 27       	eor	r24, r24
		tmp[6] |= ((int32_t)daten[11])<<16		;
    1e5e:	a4 2b       	or	r26, r20
		tmp[6] |= ((int32_t)daten[12])<<8		;
    1e60:	93 2b       	or	r25, r19
		tmp[6] |= (int32_t)daten[13]			;
    1e62:	82 2b       	or	r24, r18
    1e64:	89 8f       	std	Y+25, r24	; 0x19
    1e66:	9a 8f       	std	Y+26, r25	; 0x1a
    1e68:	ab 8f       	std	Y+27, r26	; 0x1b
    1e6a:	bc 8f       	std	Y+28, r27	; 0x1c
		
		tmp[7] = ((int16_t)daten[14])<<8			;
    1e6c:	8f a5       	ldd	r24, Y+47	; 0x2f
		tmp[7] |=(int16_t)daten[15]			;
    1e6e:	28 a9       	ldd	r18, Y+48	; 0x30
		tmp[6]  = ((int32_t)daten[10])<<24		;
		tmp[6] |= ((int32_t)daten[11])<<16		;
		tmp[6] |= ((int32_t)daten[12])<<8		;
		tmp[6] |= (int32_t)daten[13]			;
		
		tmp[7] = ((int16_t)daten[14])<<8			;
    1e70:	2d 96       	adiw	r28, 0x0d	; 13
    1e72:	8f af       	std	Y+63, r24	; 0x3f
    1e74:	2d 97       	sbiw	r28, 0x0d	; 13
    1e76:	2c 96       	adiw	r28, 0x0c	; 12
    1e78:	1f ae       	std	Y+63, r1	; 0x3f
    1e7a:	2c 97       	sbiw	r28, 0x0c	; 12
    1e7c:	2d 96       	adiw	r28, 0x0d	; 13
    1e7e:	ee ad       	ldd	r30, Y+62	; 0x3e
    1e80:	ff ad       	ldd	r31, Y+63	; 0x3f
    1e82:	2d 97       	sbiw	r28, 0x0d	; 13
    1e84:	cf 01       	movw	r24, r30
    1e86:	aa 27       	eor	r26, r26
    1e88:	97 fd       	sbrc	r25, 7
    1e8a:	a0 95       	com	r26
    1e8c:	ba 2f       	mov	r27, r26
		tmp[7] |=(int16_t)daten[15]			;
    1e8e:	82 2b       	or	r24, r18
    1e90:	8d 8f       	std	Y+29, r24	; 0x1d
    1e92:	9e 8f       	std	Y+30, r25	; 0x1e
    1e94:	af 8f       	std	Y+31, r26	; 0x1f
    1e96:	b8 a3       	std	Y+32, r27	; 0x20
	
	return 1;
}


uint8_t eprom_read ()
    1e98:	88 24       	eor	r8, r8
    1e9a:	83 94       	inc	r8
    1e9c:	91 2c       	mov	r9, r1
    1e9e:	8c 0e       	add	r8, r28
    1ea0:	9d 1e       	adc	r9, r29
		tmp[7] |=(int16_t)daten[15]			;

		
		for	 (uint8_t k = 0 ; k < 8; k++)
		{
			ltoa ( tmp[k],cdaten,10);
    1ea2:	d4 01       	movw	r26, r8
    1ea4:	6d 91       	ld	r22, X+
    1ea6:	7d 91       	ld	r23, X+
    1ea8:	8d 91       	ld	r24, X+
    1eaa:	9d 91       	ld	r25, X+
    1eac:	4d 01       	movw	r8, r26
    1eae:	2a e0       	ldi	r18, 0x0A	; 10
    1eb0:	30 e0       	ldi	r19, 0x00	; 0
    1eb2:	ae 01       	movw	r20, r28
    1eb4:	47 5c       	subi	r20, 0xC7	; 199
    1eb6:	5f 4f       	sbci	r21, 0xFF	; 255
    1eb8:	0e 94 3a 1b 	call	0x3674	; 0x3674 <ltoa>
			uart_put_s(cdaten);
    1ebc:	ce 01       	movw	r24, r28
    1ebe:	c9 96       	adiw	r24, 0x39	; 57
    1ec0:	0e 94 3b 1a 	call	0x3476	; 0x3476 <uart_put_s>
			uart_put_c(';');
    1ec4:	8b e3       	ldi	r24, 0x3B	; 59
    1ec6:	0e 94 37 1a 	call	0x346e	; 0x346e <uart_put_c>
		
		tmp[7] = ((int16_t)daten[14])<<8			;
		tmp[7] |=(int16_t)daten[15]			;

		
		for	 (uint8_t k = 0 ; k < 8; k++)
    1eca:	8a 14       	cp	r8, r10
    1ecc:	9b 04       	cpc	r9, r11
    1ece:	49 f7       	brne	.-46     	; 0x1ea2 <eprom_read+0x1e6>
    1ed0:	b2 e0       	ldi	r27, 0x02	; 2
    1ed2:	29 96       	adiw	r28, 0x09	; 9
    1ed4:	bf af       	std	Y+63, r27	; 0x3f
    1ed6:	29 97       	sbiw	r28, 0x09	; 9
		}
		
		//Die beiden Daten-Pakete
		for (uint8_t messagecounter=0; messagecounter<2;messagecounter++)
		{
			AdressDaten[0]= 160 | (uint8_t) ( (adress>>15) & 0b00000010);
    1ed8:	f8 01       	movw	r30, r16
    1eda:	80 81       	ld	r24, Z
    1edc:	91 81       	ldd	r25, Z+1	; 0x01
    1ede:	a2 81       	ldd	r26, Z+2	; 0x02
    1ee0:	b3 81       	ldd	r27, Z+3	; 0x03
    1ee2:	7f e0       	ldi	r23, 0x0F	; 15
    1ee4:	b6 95       	lsr	r27
    1ee6:	a7 95       	ror	r26
    1ee8:	97 95       	ror	r25
    1eea:	87 95       	ror	r24
    1eec:	7a 95       	dec	r23
    1eee:	d1 f7       	brne	.-12     	; 0x1ee4 <eprom_read+0x228>
    1ef0:	82 70       	andi	r24, 0x02	; 2
    1ef2:	99 27       	eor	r25, r25
    1ef4:	aa 27       	eor	r26, r26
    1ef6:	bb 27       	eor	r27, r27
    1ef8:	80 6a       	ori	r24, 0xA0	; 160
    1efa:	d7 01       	movw	r26, r14
    1efc:	8c 93       	st	X, r24
			AdressDaten[1]= adress>>8;
    1efe:	80 81       	ld	r24, Z
    1f00:	91 81       	ldd	r25, Z+1	; 0x01
    1f02:	a2 81       	ldd	r26, Z+2	; 0x02
    1f04:	b3 81       	ldd	r27, Z+3	; 0x03
    1f06:	89 2f       	mov	r24, r25
    1f08:	9a 2f       	mov	r25, r26
    1f0a:	ab 2f       	mov	r26, r27
    1f0c:	bb 27       	eor	r27, r27
    1f0e:	f7 01       	movw	r30, r14
    1f10:	81 83       	std	Z+1, r24	; 0x01
			AdressDaten[2]= adress;
    1f12:	f8 01       	movw	r30, r16
    1f14:	80 81       	ld	r24, Z
    1f16:	91 81       	ldd	r25, Z+1	; 0x01
    1f18:	a2 81       	ldd	r26, Z+2	; 0x02
    1f1a:	b3 81       	ldd	r27, Z+3	; 0x03
    1f1c:	f7 01       	movw	r30, r14
    1f1e:	82 83       	std	Z+2, r24	; 0x02
    1f20:	f4 e6       	ldi	r31, 0x64	; 100
    1f22:	9f 2e       	mov	r9, r31
			
			do
			{
				i++;
				values = i2c_comm(AdressDaten,3,16,1);
    1f24:	21 e0       	ldi	r18, 0x01	; 1
    1f26:	40 e1       	ldi	r20, 0x10	; 16
    1f28:	63 e0       	ldi	r22, 0x03	; 3
    1f2a:	c6 01       	movw	r24, r12
    1f2c:	0e 94 d2 10 	call	0x21a4	; 0x21a4 <i2c_comm>
			} while (I2CBuffer.succesBit && (i<100) );
    1f30:	20 91 a4 00 	lds	r18, 0x00A4
    1f34:	21 11       	cpse	r18, r1
    1f36:	11 c0       	rjmp	.+34     	; 0x1f5a <eprom_read+0x29e>
			
			i=0;
			adress+=16;
    1f38:	d8 01       	movw	r26, r16
    1f3a:	4d 91       	ld	r20, X+
    1f3c:	5d 91       	ld	r21, X+
    1f3e:	6d 91       	ld	r22, X+
    1f40:	7c 91       	ld	r23, X
    1f42:	40 5f       	subi	r20, 0xF0	; 240
    1f44:	5f 4f       	sbci	r21, 0xFF	; 255
    1f46:	6f 4f       	sbci	r22, 0xFF	; 255
    1f48:	7f 4f       	sbci	r23, 0xFF	; 255
    1f4a:	f8 01       	movw	r30, r16
    1f4c:	40 83       	st	Z, r20
    1f4e:	51 83       	std	Z+1, r21	; 0x01
    1f50:	62 83       	std	Z+2, r22	; 0x02
    1f52:	73 83       	std	Z+3, r23	; 0x03
			
			
			for (int j = 0; j< 16 ; j++)
    1f54:	20 e0       	ldi	r18, 0x00	; 0
    1f56:	30 e0       	ldi	r19, 0x00	; 0
    1f58:	03 c0       	rjmp	.+6      	; 0x1f60 <eprom_read+0x2a4>
    1f5a:	9a 94       	dec	r9
			
			do
			{
				i++;
				values = i2c_comm(AdressDaten,3,16,1);
			} while (I2CBuffer.succesBit && (i<100) );
    1f5c:	19 f7       	brne	.-58     	; 0x1f24 <eprom_read+0x268>
    1f5e:	ec cf       	rjmp	.-40     	; 0x1f38 <eprom_read+0x27c>
	
	return 1;
}


uint8_t eprom_read ()
    1f60:	fc 01       	movw	r30, r24
    1f62:	e2 0f       	add	r30, r18
    1f64:	f3 1f       	adc	r31, r19
			adress+=16;
			
			
			for (int j = 0; j< 16 ; j++)
			{
				daten [j] = *values;
    1f66:	40 81       	ld	r20, Z
    1f68:	f5 01       	movw	r30, r10
    1f6a:	e2 0f       	add	r30, r18
    1f6c:	f3 1f       	adc	r31, r19
    1f6e:	40 83       	st	Z, r20
			
			i=0;
			adress+=16;
			
			
			for (int j = 0; j< 16 ; j++)
    1f70:	2f 5f       	subi	r18, 0xFF	; 255
    1f72:	3f 4f       	sbci	r19, 0xFF	; 255
    1f74:	20 31       	cpi	r18, 0x10	; 16
    1f76:	31 05       	cpc	r19, r1
    1f78:	99 f7       	brne	.-26     	; 0x1f60 <eprom_read+0x2a4>
			{
				daten [j] = *values;
				values++;
			}
			if ((daten[0] == 251) &  (daten[1] == 252) & (daten[2] == 253) &  (daten[3] == 254))
    1f7a:	49 a1       	ldd	r20, Y+33	; 0x21
    1f7c:	8a a1       	ldd	r24, Y+34	; 0x22
    1f7e:	3b a1       	ldd	r19, Y+35	; 0x23
    1f80:	2c a1       	ldd	r18, Y+36	; 0x24
    1f82:	91 e0       	ldi	r25, 0x01	; 1
    1f84:	8c 3f       	cpi	r24, 0xFC	; 252
    1f86:	09 f0       	breq	.+2      	; 0x1f8a <eprom_read+0x2ce>
    1f88:	90 e0       	ldi	r25, 0x00	; 0
    1f8a:	81 e0       	ldi	r24, 0x01	; 1
    1f8c:	4b 3f       	cpi	r20, 0xFB	; 251
    1f8e:	09 f0       	breq	.+2      	; 0x1f92 <eprom_read+0x2d6>
    1f90:	80 e0       	ldi	r24, 0x00	; 0
    1f92:	98 23       	and	r25, r24
    1f94:	81 e0       	ldi	r24, 0x01	; 1
    1f96:	3d 3f       	cpi	r19, 0xFD	; 253
    1f98:	09 f0       	breq	.+2      	; 0x1f9c <eprom_read+0x2e0>
    1f9a:	80 e0       	ldi	r24, 0x00	; 0
    1f9c:	89 23       	and	r24, r25
    1f9e:	19 f0       	breq	.+6      	; 0x1fa6 <eprom_read+0x2ea>
    1fa0:	2e 3f       	cpi	r18, 0xFE	; 254
    1fa2:	09 f4       	brne	.+2      	; 0x1fa6 <eprom_read+0x2ea>
    1fa4:	b3 c0       	rjmp	.+358    	; 0x210c <eprom_read+0x450>
			{
				break;
			}
			
			tmp[0]  = ((int16_t)daten[0])<<8		;
    1fa6:	89 a1       	ldd	r24, Y+33	; 0x21
			tmp[0] |= (int16_t)daten[1]			;
    1fa8:	2a a1       	ldd	r18, Y+34	; 0x22
			if ((daten[0] == 251) &  (daten[1] == 252) & (daten[2] == 253) &  (daten[3] == 254))
			{
				break;
			}
			
			tmp[0]  = ((int16_t)daten[0])<<8		;
    1faa:	2f 96       	adiw	r28, 0x0f	; 15
    1fac:	8f af       	std	Y+63, r24	; 0x3f
    1fae:	2f 97       	sbiw	r28, 0x0f	; 15
    1fb0:	2e 96       	adiw	r28, 0x0e	; 14
    1fb2:	1f ae       	std	Y+63, r1	; 0x3f
    1fb4:	2e 97       	sbiw	r28, 0x0e	; 14
    1fb6:	2f 96       	adiw	r28, 0x0f	; 15
    1fb8:	4e ad       	ldd	r20, Y+62	; 0x3e
    1fba:	5f ad       	ldd	r21, Y+63	; 0x3f
    1fbc:	2f 97       	sbiw	r28, 0x0f	; 15
    1fbe:	ca 01       	movw	r24, r20
    1fc0:	aa 27       	eor	r26, r26
    1fc2:	97 fd       	sbrc	r25, 7
    1fc4:	a0 95       	com	r26
    1fc6:	ba 2f       	mov	r27, r26
			tmp[0] |= (int16_t)daten[1]			;
    1fc8:	82 2b       	or	r24, r18
    1fca:	89 83       	std	Y+1, r24	; 0x01
    1fcc:	9a 83       	std	Y+2, r25	; 0x02
    1fce:	ab 83       	std	Y+3, r26	; 0x03
    1fd0:	bc 83       	std	Y+4, r27	; 0x04
			
			tmp[1]  = ((int16_t)daten[2])<<8		;
    1fd2:	8b a1       	ldd	r24, Y+35	; 0x23
			tmp[1] |= (int16_t)daten[3]			;
    1fd4:	2c a1       	ldd	r18, Y+36	; 0x24
			}
			
			tmp[0]  = ((int16_t)daten[0])<<8		;
			tmp[0] |= (int16_t)daten[1]			;
			
			tmp[1]  = ((int16_t)daten[2])<<8		;
    1fd6:	61 96       	adiw	r28, 0x11	; 17
    1fd8:	8f af       	std	Y+63, r24	; 0x3f
    1fda:	61 97       	sbiw	r28, 0x11	; 17
    1fdc:	60 96       	adiw	r28, 0x10	; 16
    1fde:	1f ae       	std	Y+63, r1	; 0x3f
    1fe0:	60 97       	sbiw	r28, 0x10	; 16
    1fe2:	61 96       	adiw	r28, 0x11	; 17
    1fe4:	ee ad       	ldd	r30, Y+62	; 0x3e
    1fe6:	ff ad       	ldd	r31, Y+63	; 0x3f
    1fe8:	61 97       	sbiw	r28, 0x11	; 17
    1fea:	cf 01       	movw	r24, r30
    1fec:	aa 27       	eor	r26, r26
    1fee:	97 fd       	sbrc	r25, 7
    1ff0:	a0 95       	com	r26
    1ff2:	ba 2f       	mov	r27, r26
			tmp[1] |= (int16_t)daten[3]			;
    1ff4:	82 2b       	or	r24, r18
    1ff6:	8d 83       	std	Y+5, r24	; 0x05
    1ff8:	9e 83       	std	Y+6, r25	; 0x06
    1ffa:	af 83       	std	Y+7, r26	; 0x07
    1ffc:	b8 87       	std	Y+8, r27	; 0x08
			
			tmp[2]  = ((int32_t)daten[4])<<24		;
    1ffe:	8d a1       	ldd	r24, Y+37	; 0x25
			tmp[2] |= ((int32_t)daten[5])<<16		;
    2000:	4e a1       	ldd	r20, Y+38	; 0x26
			tmp[2] |= ((int32_t)daten[6])<<8		;
    2002:	3f a1       	ldd	r19, Y+39	; 0x27
			tmp[2] |= (int32_t)daten[7]			;
    2004:	28 a5       	ldd	r18, Y+40	; 0x28
			tmp[0] |= (int16_t)daten[1]			;
			
			tmp[1]  = ((int16_t)daten[2])<<8		;
			tmp[1] |= (int16_t)daten[3]			;
			
			tmp[2]  = ((int32_t)daten[4])<<24		;
    2006:	90 e0       	ldi	r25, 0x00	; 0
    2008:	a0 e0       	ldi	r26, 0x00	; 0
    200a:	b0 e0       	ldi	r27, 0x00	; 0
    200c:	b8 2f       	mov	r27, r24
    200e:	aa 27       	eor	r26, r26
    2010:	99 27       	eor	r25, r25
    2012:	88 27       	eor	r24, r24
			tmp[2] |= ((int32_t)daten[5])<<16		;
    2014:	a4 2b       	or	r26, r20
			tmp[2] |= ((int32_t)daten[6])<<8		;
    2016:	93 2b       	or	r25, r19
			tmp[2] |= (int32_t)daten[7]			;
    2018:	82 2b       	or	r24, r18
    201a:	89 87       	std	Y+9, r24	; 0x09
    201c:	9a 87       	std	Y+10, r25	; 0x0a
    201e:	ab 87       	std	Y+11, r26	; 0x0b
    2020:	bc 87       	std	Y+12, r27	; 0x0c
			
			tmp[3]  = ((int16_t)daten[8])<<8		;
    2022:	89 a5       	ldd	r24, Y+41	; 0x29
			tmp[3] |= (int16_t)daten[9]			;
    2024:	2a a5       	ldd	r18, Y+42	; 0x2a
			tmp[2]  = ((int32_t)daten[4])<<24		;
			tmp[2] |= ((int32_t)daten[5])<<16		;
			tmp[2] |= ((int32_t)daten[6])<<8		;
			tmp[2] |= (int32_t)daten[7]			;
			
			tmp[3]  = ((int16_t)daten[8])<<8		;
    2026:	63 96       	adiw	r28, 0x13	; 19
    2028:	8f af       	std	Y+63, r24	; 0x3f
    202a:	63 97       	sbiw	r28, 0x13	; 19
    202c:	62 96       	adiw	r28, 0x12	; 18
    202e:	1f ae       	std	Y+63, r1	; 0x3f
    2030:	62 97       	sbiw	r28, 0x12	; 18
    2032:	63 96       	adiw	r28, 0x13	; 19
    2034:	4e ad       	ldd	r20, Y+62	; 0x3e
    2036:	5f ad       	ldd	r21, Y+63	; 0x3f
    2038:	63 97       	sbiw	r28, 0x13	; 19
    203a:	ca 01       	movw	r24, r20
    203c:	aa 27       	eor	r26, r26
    203e:	97 fd       	sbrc	r25, 7
    2040:	a0 95       	com	r26
    2042:	ba 2f       	mov	r27, r26
			tmp[3] |= (int16_t)daten[9]			;
    2044:	82 2b       	or	r24, r18
    2046:	8d 87       	std	Y+13, r24	; 0x0d
    2048:	9e 87       	std	Y+14, r25	; 0x0e
    204a:	af 87       	std	Y+15, r26	; 0x0f
    204c:	b8 8b       	std	Y+16, r27	; 0x10
			
			tmp[4]  = ((int16_t)daten[10])<<8		;
    204e:	8b a5       	ldd	r24, Y+43	; 0x2b
			tmp[4] |= (int16_t)daten[11]		;
    2050:	2c a5       	ldd	r18, Y+44	; 0x2c
			tmp[2] |= (int32_t)daten[7]			;
			
			tmp[3]  = ((int16_t)daten[8])<<8		;
			tmp[3] |= (int16_t)daten[9]			;
			
			tmp[4]  = ((int16_t)daten[10])<<8		;
    2052:	65 96       	adiw	r28, 0x15	; 21
    2054:	8f af       	std	Y+63, r24	; 0x3f
    2056:	65 97       	sbiw	r28, 0x15	; 21
    2058:	64 96       	adiw	r28, 0x14	; 20
    205a:	1f ae       	std	Y+63, r1	; 0x3f
    205c:	64 97       	sbiw	r28, 0x14	; 20
    205e:	65 96       	adiw	r28, 0x15	; 21
    2060:	ee ad       	ldd	r30, Y+62	; 0x3e
    2062:	ff ad       	ldd	r31, Y+63	; 0x3f
    2064:	65 97       	sbiw	r28, 0x15	; 21
    2066:	cf 01       	movw	r24, r30
    2068:	aa 27       	eor	r26, r26
    206a:	97 fd       	sbrc	r25, 7
    206c:	a0 95       	com	r26
    206e:	ba 2f       	mov	r27, r26
			tmp[4] |= (int16_t)daten[11]		;
    2070:	82 2b       	or	r24, r18
    2072:	89 8b       	std	Y+17, r24	; 0x11
    2074:	9a 8b       	std	Y+18, r25	; 0x12
    2076:	ab 8b       	std	Y+19, r26	; 0x13
    2078:	bc 8b       	std	Y+20, r27	; 0x14
			
			tmp[5]  = ((int16_t)daten[12])<<8		;
    207a:	8d a5       	ldd	r24, Y+45	; 0x2d
			tmp[5] |= (int16_t)daten[13]			;
    207c:	2e a5       	ldd	r18, Y+46	; 0x2e
			tmp[3] |= (int16_t)daten[9]			;
			
			tmp[4]  = ((int16_t)daten[10])<<8		;
			tmp[4] |= (int16_t)daten[11]		;
			
			tmp[5]  = ((int16_t)daten[12])<<8		;
    207e:	67 96       	adiw	r28, 0x17	; 23
    2080:	8f af       	std	Y+63, r24	; 0x3f
    2082:	67 97       	sbiw	r28, 0x17	; 23
    2084:	66 96       	adiw	r28, 0x16	; 22
    2086:	1f ae       	std	Y+63, r1	; 0x3f
    2088:	66 97       	sbiw	r28, 0x16	; 22
    208a:	67 96       	adiw	r28, 0x17	; 23
    208c:	4e ad       	ldd	r20, Y+62	; 0x3e
    208e:	5f ad       	ldd	r21, Y+63	; 0x3f
    2090:	67 97       	sbiw	r28, 0x17	; 23
    2092:	ca 01       	movw	r24, r20
    2094:	aa 27       	eor	r26, r26
    2096:	97 fd       	sbrc	r25, 7
    2098:	a0 95       	com	r26
    209a:	ba 2f       	mov	r27, r26
			tmp[5] |= (int16_t)daten[13]			;
    209c:	82 2b       	or	r24, r18
    209e:	8d 8b       	std	Y+21, r24	; 0x15
    20a0:	9e 8b       	std	Y+22, r25	; 0x16
    20a2:	af 8b       	std	Y+23, r26	; 0x17
    20a4:	b8 8f       	std	Y+24, r27	; 0x18
			
			tmp[6]  = ((int16_t)daten[14])<<8		;
    20a6:	8f a5       	ldd	r24, Y+47	; 0x2f
			tmp[6] |= (int16_t)daten[15]		;
    20a8:	28 a9       	ldd	r18, Y+48	; 0x30
			tmp[4] |= (int16_t)daten[11]		;
			
			tmp[5]  = ((int16_t)daten[12])<<8		;
			tmp[5] |= (int16_t)daten[13]			;
			
			tmp[6]  = ((int16_t)daten[14])<<8		;
    20aa:	58 2e       	mov	r5, r24
    20ac:	41 2c       	mov	r4, r1
    20ae:	c2 01       	movw	r24, r4
    20b0:	aa 27       	eor	r26, r26
    20b2:	97 fd       	sbrc	r25, 7
    20b4:	a0 95       	com	r26
    20b6:	ba 2f       	mov	r27, r26
			tmp[6] |= (int16_t)daten[15]		;
    20b8:	82 2b       	or	r24, r18
    20ba:	89 8f       	std	Y+25, r24	; 0x19
    20bc:	9a 8f       	std	Y+26, r25	; 0x1a
    20be:	ab 8f       	std	Y+27, r26	; 0x1b
    20c0:	bc 8f       	std	Y+28, r27	; 0x1c
	
	return 1;
}


uint8_t eprom_read ()
    20c2:	88 24       	eor	r8, r8
    20c4:	83 94       	inc	r8
    20c6:	91 2c       	mov	r9, r1
    20c8:	8c 0e       	add	r8, r28
    20ca:	9d 1e       	adc	r9, r29
			

			char cdaten[8];
			for	 (uint8_t k = 0 ; k < 7; k++)
			{
				ltoa ( tmp[k],cdaten,10);
    20cc:	d4 01       	movw	r26, r8
    20ce:	6d 91       	ld	r22, X+
    20d0:	7d 91       	ld	r23, X+
    20d2:	8d 91       	ld	r24, X+
    20d4:	9d 91       	ld	r25, X+
    20d6:	4d 01       	movw	r8, r26
    20d8:	2a e0       	ldi	r18, 0x0A	; 10
    20da:	30 e0       	ldi	r19, 0x00	; 0
    20dc:	ae 01       	movw	r20, r28
    20de:	4f 5c       	subi	r20, 0xCF	; 207
    20e0:	5f 4f       	sbci	r21, 0xFF	; 255
    20e2:	0e 94 3a 1b 	call	0x3674	; 0x3674 <ltoa>
				uart_put_s(cdaten);
    20e6:	ce 01       	movw	r24, r28
    20e8:	c1 96       	adiw	r24, 0x31	; 49
    20ea:	0e 94 3b 1a 	call	0x3476	; 0x3476 <uart_put_s>
				uart_put_c(';');
    20ee:	8b e3       	ldi	r24, 0x3B	; 59
    20f0:	0e 94 37 1a 	call	0x346e	; 0x346e <uart_put_c>
			tmp[6]  = ((int16_t)daten[14])<<8		;
			tmp[6] |= (int16_t)daten[15]		;
			

			char cdaten[8];
			for	 (uint8_t k = 0 ; k < 7; k++)
    20f4:	86 14       	cp	r8, r6
    20f6:	97 04       	cpc	r9, r7
    20f8:	49 f7       	brne	.-46     	; 0x20cc <eprom_read+0x410>
    20fa:	29 96       	adiw	r28, 0x09	; 9
    20fc:	bf ad       	ldd	r27, Y+63	; 0x3f
    20fe:	29 97       	sbiw	r28, 0x09	; 9
    2100:	b1 50       	subi	r27, 0x01	; 1
    2102:	29 96       	adiw	r28, 0x09	; 9
    2104:	bf af       	std	Y+63, r27	; 0x3f
    2106:	29 97       	sbiw	r28, 0x09	; 9
			uart_put_s(cdaten);
			uart_put_c(';');
		}
		
		//Die beiden Daten-Pakete
		for (uint8_t messagecounter=0; messagecounter<2;messagecounter++)
    2108:	b1 11       	cpse	r27, r1
    210a:	e6 ce       	rjmp	.-564    	; 0x1ed8 <eprom_read+0x21c>
				ltoa ( tmp[k],cdaten,10);
				uart_put_s(cdaten);
				uart_put_c(';');
			}
		}
		uart_put_c('\n');
    210c:	8a e0       	ldi	r24, 0x0A	; 10
    210e:	0e 94 37 1a 	call	0x346e	; 0x346e <uart_put_c>
	AdressDaten[0]=0;
	AdressDaten[1]=0;
	
	while ( !lastByte )
	{
		AdressDaten[0]= 160 | (uint8_t) ( (adress>>15) & 0b00000010);
    2112:	f8 01       	movw	r30, r16
    2114:	80 81       	ld	r24, Z
    2116:	91 81       	ldd	r25, Z+1	; 0x01
    2118:	a2 81       	ldd	r26, Z+2	; 0x02
    211a:	b3 81       	ldd	r27, Z+3	; 0x03
    211c:	7f e0       	ldi	r23, 0x0F	; 15
    211e:	b6 95       	lsr	r27
    2120:	a7 95       	ror	r26
    2122:	97 95       	ror	r25
    2124:	87 95       	ror	r24
    2126:	7a 95       	dec	r23
    2128:	d1 f7       	brne	.-12     	; 0x211e <eprom_read+0x462>
    212a:	82 70       	andi	r24, 0x02	; 2
    212c:	99 27       	eor	r25, r25
    212e:	aa 27       	eor	r26, r26
    2130:	bb 27       	eor	r27, r27
    2132:	80 6a       	ori	r24, 0xA0	; 160
    2134:	d7 01       	movw	r26, r14
    2136:	8c 93       	st	X, r24
		AdressDaten[1]= adress>>8;
    2138:	80 81       	ld	r24, Z
    213a:	91 81       	ldd	r25, Z+1	; 0x01
    213c:	a2 81       	ldd	r26, Z+2	; 0x02
    213e:	b3 81       	ldd	r27, Z+3	; 0x03
    2140:	89 2f       	mov	r24, r25
    2142:	9a 2f       	mov	r25, r26
    2144:	ab 2f       	mov	r26, r27
    2146:	bb 27       	eor	r27, r27
    2148:	f7 01       	movw	r30, r14
    214a:	81 83       	std	Z+1, r24	; 0x01
		AdressDaten[2]= adress;
    214c:	f8 01       	movw	r30, r16
    214e:	80 81       	ld	r24, Z
    2150:	91 81       	ldd	r25, Z+1	; 0x01
    2152:	a2 81       	ldd	r26, Z+2	; 0x02
    2154:	b3 81       	ldd	r27, Z+3	; 0x03
    2156:	f7 01       	movw	r30, r14
    2158:	82 83       	std	Z+2, r24	; 0x02
    215a:	f4 e6       	ldi	r31, 0x64	; 100
    215c:	9f 2e       	mov	r9, r31
    215e:	e7 cd       	rjmp	.-1074   	; 0x1d2e <eprom_read+0x72>
		uart_put_c('\n');
	}
	
	//TCCR0 = TCCR0Backup;
	return 1;
}
    2160:	81 e0       	ldi	r24, 0x01	; 1
    2162:	ca 5a       	subi	r28, 0xAA	; 170
    2164:	df 4f       	sbci	r29, 0xFF	; 255
    2166:	0f b6       	in	r0, 0x3f	; 63
    2168:	f8 94       	cli
    216a:	de bf       	out	0x3e, r29	; 62
    216c:	0f be       	out	0x3f, r0	; 63
    216e:	cd bf       	out	0x3d, r28	; 61
    2170:	df 91       	pop	r29
    2172:	cf 91       	pop	r28
    2174:	1f 91       	pop	r17
    2176:	0f 91       	pop	r16
    2178:	ff 90       	pop	r15
    217a:	ef 90       	pop	r14
    217c:	df 90       	pop	r13
    217e:	cf 90       	pop	r12
    2180:	bf 90       	pop	r11
    2182:	af 90       	pop	r10
    2184:	9f 90       	pop	r9
    2186:	8f 90       	pop	r8
    2188:	7f 90       	pop	r7
    218a:	6f 90       	pop	r6
    218c:	5f 90       	pop	r5
    218e:	4f 90       	pop	r4
    2190:	3f 90       	pop	r3
    2192:	2f 90       	pop	r2
    2194:	08 95       	ret

00002196 <twi_init>:
//#define DEBUG_TWI  //EEPROM Functions won't work


int twi_init()
{
    TWSR |= (1<<TWPS1);
    2196:	09 9a       	sbi	0x01, 1	; 1
    TWSR |=  (1<<TWPS0);
    2198:	08 9a       	sbi	0x01, 0	; 1
    TWBR = 1;
    219a:	81 e0       	ldi	r24, 0x01	; 1
    219c:	80 b9       	out	0x00, r24	; 0
    return TWSR;
    219e:	81 b1       	in	r24, 0x01	; 1
}
    21a0:	90 e0       	ldi	r25, 0x00	; 0
    21a2:	08 95       	ret

000021a4 <i2c_comm>:


uint8_t* i2c_comm (volatile uint8_t* buffer,uint8_t write_length,uint8_t read_length,uint8_t rs)
{
    I2CBuffer.write_buffer=(uint8_t*)buffer;
    21a4:	90 93 8c 00 	sts	0x008C, r25
    21a8:	80 93 8b 00 	sts	0x008B, r24
    I2CBuffer.inpos=(uint8_t*)buffer;
    21ac:	90 93 a0 00 	sts	0x00A0, r25
    21b0:	80 93 9f 00 	sts	0x009F, r24

    I2CBuffer.rs=rs;
    21b4:	20 93 a5 00 	sts	0x00A5, r18
    I2CBuffer.position=0;
    21b8:	10 92 a3 00 	sts	0x00A3, r1
    I2CBuffer.succesBit=9;
    21bc:	89 e0       	ldi	r24, 0x09	; 9
    21be:	80 93 a4 00 	sts	0x00A4, r24

    I2CBuffer.read_length=read_length;
    21c2:	40 93 a2 00 	sts	0x00A2, r20
    I2CBuffer.write_length=write_length;
    21c6:	60 93 a1 00 	sts	0x00A1, r22

    TWCR = ( (1<<TWEN) | (1<<TWSTA) | (1<<TWINT) | (1<<TWIE) );
    21ca:	85 ea       	ldi	r24, 0xA5	; 165
    21cc:	86 bf       	out	0x36, r24	; 54
	
	milisecCounter2=0;
    21ce:	10 92 6f 01 	sts	0x016F, r1
    21d2:	10 92 6e 01 	sts	0x016E, r1
    while (I2CBuffer.succesBit==9)
    {
		if (milisecCounter2>=20)
		{
			I2CBuffer.succesBit=3;
    21d6:	23 e0       	ldi	r18, 0x03	; 3
    I2CBuffer.write_length=write_length;

    TWCR = ( (1<<TWEN) | (1<<TWSTA) | (1<<TWINT) | (1<<TWIE) );
	
	milisecCounter2=0;
    while (I2CBuffer.succesBit==9)
    21d8:	08 c0       	rjmp	.+16     	; 0x21ea <i2c_comm+0x46>
    {
		if (milisecCounter2>=20)
    21da:	80 91 6e 01 	lds	r24, 0x016E
    21de:	90 91 6f 01 	lds	r25, 0x016F
    21e2:	44 97       	sbiw	r24, 0x14	; 20
    21e4:	14 f0       	brlt	.+4      	; 0x21ea <i2c_comm+0x46>
		{
			I2CBuffer.succesBit=3;
    21e6:	20 93 a4 00 	sts	0x00A4, r18
    I2CBuffer.write_length=write_length;

    TWCR = ( (1<<TWEN) | (1<<TWSTA) | (1<<TWINT) | (1<<TWIE) );
	
	milisecCounter2=0;
    while (I2CBuffer.succesBit==9)
    21ea:	80 91 a4 00 	lds	r24, 0x00A4
    21ee:	89 30       	cpi	r24, 0x09	; 9
    21f0:	a1 f3       	breq	.-24     	; 0x21da <i2c_comm+0x36>
		if (milisecCounter2>=20)
		{
			I2CBuffer.succesBit=3;
		}
    }
	if (I2CBuffer.succesBit)
    21f2:	80 91 a4 00 	lds	r24, 0x00A4
	{
		//TwiReset();
	}
    return (uint8_t*) I2CBuffer.read_buffer;
}
    21f6:	8d e8       	ldi	r24, 0x8D	; 141
    21f8:	90 e0       	ldi	r25, 0x00	; 0
    21fa:	08 95       	ret

000021fc <__vector_19>:


ISR(TWI_vect)
{
    21fc:	1f 92       	push	r1
    21fe:	0f 92       	push	r0
    2200:	0f b6       	in	r0, 0x3f	; 63
    2202:	0f 92       	push	r0
    2204:	11 24       	eor	r1, r1
    2206:	2f 93       	push	r18
    2208:	3f 93       	push	r19
    220a:	8f 93       	push	r24
    220c:	9f 93       	push	r25
    220e:	ef 93       	push	r30
    2210:	ff 93       	push	r31
    uart_put_s(deb);
    uart_put_c('\n');
	#endif
	
	
    uint8_t twi_status = TWSR&0xF8;
    2212:	81 b1       	in	r24, 0x01	; 1
    2214:	88 7f       	andi	r24, 0xF8	; 248
    switch (twi_status)
    2216:	88 32       	cpi	r24, 0x28	; 40
    2218:	09 f4       	brne	.+2      	; 0x221c <__vector_19+0x20>
    221a:	96 c0       	rjmp	.+300    	; 0x2348 <__vector_19+0x14c>
    221c:	90 f4       	brcc	.+36     	; 0x2242 <__vector_19+0x46>
    221e:	80 31       	cpi	r24, 0x10	; 16
    2220:	09 f4       	brne	.+2      	; 0x2224 <__vector_19+0x28>
    2222:	4f c0       	rjmp	.+158    	; 0x22c2 <__vector_19+0xc6>
    2224:	38 f4       	brcc	.+14     	; 0x2234 <__vector_19+0x38>
    2226:	88 23       	and	r24, r24
    2228:	09 f4       	brne	.+2      	; 0x222c <__vector_19+0x30>
    222a:	00 c1       	rjmp	.+512    	; 0x242c <__vector_19+0x230>
    222c:	88 30       	cpi	r24, 0x08	; 8
    222e:	09 f0       	breq	.+2      	; 0x2232 <__vector_19+0x36>
    2230:	fd c0       	rjmp	.+506    	; 0x242c <__vector_19+0x230>
    2232:	1c c0       	rjmp	.+56     	; 0x226c <__vector_19+0x70>
    2234:	88 31       	cpi	r24, 0x18	; 24
    2236:	09 f4       	brne	.+2      	; 0x223a <__vector_19+0x3e>
    2238:	71 c0       	rjmp	.+226    	; 0x231c <__vector_19+0x120>
    223a:	80 32       	cpi	r24, 0x20	; 32
    223c:	09 f0       	breq	.+2      	; 0x2240 <__vector_19+0x44>
    223e:	f6 c0       	rjmp	.+492    	; 0x242c <__vector_19+0x230>
    2240:	cb c0       	rjmp	.+406    	; 0x23d8 <__vector_19+0x1dc>
    2242:	80 34       	cpi	r24, 0x40	; 64
    2244:	09 f4       	brne	.+2      	; 0x2248 <__vector_19+0x4c>
    2246:	c3 c0       	rjmp	.+390    	; 0x23ce <__vector_19+0x1d2>
    2248:	38 f4       	brcc	.+14     	; 0x2258 <__vector_19+0x5c>
    224a:	80 33       	cpi	r24, 0x30	; 48
    224c:	09 f4       	brne	.+2      	; 0x2250 <__vector_19+0x54>
    224e:	c4 c0       	rjmp	.+392    	; 0x23d8 <__vector_19+0x1dc>
    2250:	88 33       	cpi	r24, 0x38	; 56
    2252:	09 f0       	breq	.+2      	; 0x2256 <__vector_19+0x5a>
    2254:	eb c0       	rjmp	.+470    	; 0x242c <__vector_19+0x230>
    2256:	b9 c0       	rjmp	.+370    	; 0x23ca <__vector_19+0x1ce>
    2258:	80 35       	cpi	r24, 0x50	; 80
    225a:	09 f4       	brne	.+2      	; 0x225e <__vector_19+0x62>
    225c:	c1 c0       	rjmp	.+386    	; 0x23e0 <__vector_19+0x1e4>
    225e:	88 35       	cpi	r24, 0x58	; 88
    2260:	09 f4       	brne	.+2      	; 0x2264 <__vector_19+0x68>
    2262:	d8 c0       	rjmp	.+432    	; 0x2414 <__vector_19+0x218>
    2264:	88 34       	cpi	r24, 0x48	; 72
    2266:	09 f0       	breq	.+2      	; 0x226a <__vector_19+0x6e>
    2268:	e1 c0       	rjmp	.+450    	; 0x242c <__vector_19+0x230>
    226a:	b6 c0       	rjmp	.+364    	; 0x23d8 <__vector_19+0x1dc>
    {
    case 0x08:								//start transmitted
        if ( (I2CBuffer.position==I2CBuffer.write_length) && I2CBuffer.read_length)
    226c:	90 91 a3 00 	lds	r25, 0x00A3
    2270:	80 91 a1 00 	lds	r24, 0x00A1
    2274:	98 13       	cpse	r25, r24
    2276:	04 c0       	rjmp	.+8      	; 0x2280 <__vector_19+0x84>
    2278:	80 91 a2 00 	lds	r24, 0x00A2
    227c:	81 11       	cpse	r24, r1
    227e:	2b c0       	rjmp	.+86     	; 0x22d6 <__vector_19+0xda>
            TWDR = *I2CBuffer.write_buffer;
            TWCR = ( (1<<TWINT) | (1<<TWEN) | (1<<TWIE) );
        }
        else
        {
            I2CBuffer.position=0;
    2280:	10 92 a3 00 	sts	0x00A3, r1
            I2CBuffer.write_buffer=I2CBuffer.inpos;
    2284:	80 91 9f 00 	lds	r24, 0x009F
    2288:	90 91 a0 00 	lds	r25, 0x00A0
    228c:	90 93 8c 00 	sts	0x008C, r25
    2290:	80 93 8b 00 	sts	0x008B, r24
            TWDR = *I2CBuffer.write_buffer;
    2294:	e0 91 8b 00 	lds	r30, 0x008B
    2298:	f0 91 8c 00 	lds	r31, 0x008C
    229c:	80 81       	ld	r24, Z
    229e:	83 b9       	out	0x03, r24	; 3
            TWCR = ( (1<<TWINT) | (1<<TWEN) | (1<<TWIE) );
    22a0:	85 e8       	ldi	r24, 0x85	; 133
    22a2:	86 bf       	out	0x36, r24	; 54
            I2CBuffer.write_buffer++;
    22a4:	80 91 8b 00 	lds	r24, 0x008B
    22a8:	90 91 8c 00 	lds	r25, 0x008C
    22ac:	01 96       	adiw	r24, 0x01	; 1
    22ae:	90 93 8c 00 	sts	0x008C, r25
    22b2:	80 93 8b 00 	sts	0x008B, r24
            I2CBuffer.position++;
    22b6:	80 91 a3 00 	lds	r24, 0x00A3
    22ba:	8f 5f       	subi	r24, 0xFF	; 255
    22bc:	80 93 a3 00 	sts	0x00A3, r24
    22c0:	ba c0       	rjmp	.+372    	; 0x2436 <__vector_19+0x23a>
        }
        break;

    case 0x10:
        if (I2CBuffer.position==I2CBuffer.write_length && I2CBuffer.read_length)
    22c2:	90 91 a3 00 	lds	r25, 0x00A3
    22c6:	80 91 a1 00 	lds	r24, 0x00A1
    22ca:	98 13       	cpse	r25, r24
    22cc:	16 c0       	rjmp	.+44     	; 0x22fa <__vector_19+0xfe>
    22ce:	80 91 a2 00 	lds	r24, 0x00A2
    22d2:	88 23       	and	r24, r24
    22d4:	91 f0       	breq	.+36     	; 0x22fa <__vector_19+0xfe>
        {
            I2CBuffer.write_buffer=I2CBuffer.inpos;
    22d6:	80 91 9f 00 	lds	r24, 0x009F
    22da:	90 91 a0 00 	lds	r25, 0x00A0
    22de:	90 93 8c 00 	sts	0x008C, r25
    22e2:	80 93 8b 00 	sts	0x008B, r24
            *I2CBuffer.write_buffer |= 1;
    22e6:	e0 91 8b 00 	lds	r30, 0x008B
    22ea:	f0 91 8c 00 	lds	r31, 0x008C
    22ee:	80 81       	ld	r24, Z
    22f0:	81 60       	ori	r24, 0x01	; 1
    22f2:	80 83       	st	Z, r24
            I2CBuffer.position=0;
    22f4:	10 92 a3 00 	sts	0x00A3, r1
    22f8:	0a c0       	rjmp	.+20     	; 0x230e <__vector_19+0x112>
            TWCR = ( (1<<TWINT) | (1<<TWEN) | (1<<TWIE) );
        }
        else
        {
            //rep start transmitted
            I2CBuffer.position=0;
    22fa:	10 92 a3 00 	sts	0x00A3, r1
            I2CBuffer.write_buffer=I2CBuffer.inpos;
    22fe:	80 91 9f 00 	lds	r24, 0x009F
    2302:	90 91 a0 00 	lds	r25, 0x00A0
    2306:	90 93 8c 00 	sts	0x008C, r25
    230a:	80 93 8b 00 	sts	0x008B, r24
            TWDR = *I2CBuffer.write_buffer;
    230e:	e0 91 8b 00 	lds	r30, 0x008B
    2312:	f0 91 8c 00 	lds	r31, 0x008C
    2316:	80 81       	ld	r24, Z
    2318:	83 b9       	out	0x03, r24	; 3
    231a:	77 c0       	rjmp	.+238    	; 0x240a <__vector_19+0x20e>
            TWCR = ( (1<<TWINT) | (1<<TWEN) | (1<<TWIE) );
        }
        break;

    case 0x18:										//SLA+W transmitted ACK received
        if (I2CBuffer.position==I2CBuffer.write_length && !I2CBuffer.read_length)
    231c:	90 91 a3 00 	lds	r25, 0x00A3
    2320:	80 91 a1 00 	lds	r24, 0x00A1
    2324:	98 13       	cpse	r25, r24
    2326:	05 c0       	rjmp	.+10     	; 0x2332 <__vector_19+0x136>
    2328:	80 91 a2 00 	lds	r24, 0x00A2
    232c:	81 11       	cpse	r24, r1
    232e:	01 c0       	rjmp	.+2      	; 0x2332 <__vector_19+0x136>
    2330:	78 c0       	rjmp	.+240    	; 0x2422 <__vector_19+0x226>
        {
            TWCR = ( (1<<TWINT) | (1<<TWSTO) );
            I2CBuffer.succesBit=0;
        }
        else if (I2CBuffer.position==I2CBuffer.write_length && I2CBuffer.read_length)
    2332:	90 91 a3 00 	lds	r25, 0x00A3
    2336:	80 91 a1 00 	lds	r24, 0x00A1
    233a:	98 13       	cpse	r25, r24
    233c:	31 c0       	rjmp	.+98     	; 0x23a0 <__vector_19+0x1a4>
    233e:	80 91 a2 00 	lds	r24, 0x00A2
    2342:	88 23       	and	r24, r24
    2344:	69 f1       	breq	.+90     	; 0x23a0 <__vector_19+0x1a4>
    2346:	1a c0       	rjmp	.+52     	; 0x237c <__vector_19+0x180>
        TWCR = ( (1<<TWINT) | (1<<TWSTO) );
        I2CBuffer.succesBit=2;
        break;

    case 0x28:										//Data byte transmitted ACK received
        if (I2CBuffer.position==I2CBuffer.write_length && !I2CBuffer.read_length)
    2348:	90 91 a3 00 	lds	r25, 0x00A3
    234c:	80 91 a1 00 	lds	r24, 0x00A1
    2350:	98 13       	cpse	r25, r24
    2352:	06 c0       	rjmp	.+12     	; 0x2360 <__vector_19+0x164>
    2354:	80 91 a2 00 	lds	r24, 0x00A2
    2358:	81 11       	cpse	r24, r1
    235a:	02 c0       	rjmp	.+4      	; 0x2360 <__vector_19+0x164>
        {
            TWCR = ( (1<<TWINT) | (1<<TWSTO) | (1<<TWEN));
    235c:	84 e9       	ldi	r24, 0x94	; 148
    235e:	62 c0       	rjmp	.+196    	; 0x2424 <__vector_19+0x228>
            I2CBuffer.succesBit=0;
        }
        else if (I2CBuffer.position==I2CBuffer.write_length && I2CBuffer.read_length && !I2CBuffer.rs)
    2360:	90 91 a3 00 	lds	r25, 0x00A3
    2364:	80 91 a1 00 	lds	r24, 0x00A1
    2368:	98 13       	cpse	r25, r24
    236a:	0a c0       	rjmp	.+20     	; 0x2380 <__vector_19+0x184>
    236c:	80 91 a2 00 	lds	r24, 0x00A2
    2370:	88 23       	and	r24, r24
    2372:	31 f0       	breq	.+12     	; 0x2380 <__vector_19+0x184>
    2374:	80 91 a5 00 	lds	r24, 0x00A5
    2378:	81 11       	cpse	r24, r1
    237a:	02 c0       	rjmp	.+4      	; 0x2380 <__vector_19+0x184>
        {
            TWCR = ( (1<<TWINT) | (1<<TWSTA)  | (1<<TWSTO)| (1<<TWEN) | (1<<TWIE) );
    237c:	85 eb       	ldi	r24, 0xB5	; 181
    237e:	48 c0       	rjmp	.+144    	; 0x2410 <__vector_19+0x214>
        }
        else if (I2CBuffer.position==I2CBuffer.write_length && I2CBuffer.read_length && I2CBuffer.rs)
    2380:	90 91 a3 00 	lds	r25, 0x00A3
    2384:	80 91 a1 00 	lds	r24, 0x00A1
    2388:	98 13       	cpse	r25, r24
    238a:	0a c0       	rjmp	.+20     	; 0x23a0 <__vector_19+0x1a4>
    238c:	80 91 a2 00 	lds	r24, 0x00A2
    2390:	88 23       	and	r24, r24
    2392:	31 f0       	breq	.+12     	; 0x23a0 <__vector_19+0x1a4>
    2394:	80 91 a5 00 	lds	r24, 0x00A5
    2398:	88 23       	and	r24, r24
    239a:	11 f0       	breq	.+4      	; 0x23a0 <__vector_19+0x1a4>
        {
            TWCR = ( (1<<TWINT) | (1<<TWSTA)  | (1<<TWEN) | (1<<TWIE) );
    239c:	85 ea       	ldi	r24, 0xA5	; 165
    239e:	38 c0       	rjmp	.+112    	; 0x2410 <__vector_19+0x214>
        }
        else
        {
            TWDR = *I2CBuffer.write_buffer;
    23a0:	e0 91 8b 00 	lds	r30, 0x008B
    23a4:	f0 91 8c 00 	lds	r31, 0x008C
    23a8:	80 81       	ld	r24, Z
    23aa:	83 b9       	out	0x03, r24	; 3
            I2CBuffer.write_buffer++;
    23ac:	80 91 8b 00 	lds	r24, 0x008B
    23b0:	90 91 8c 00 	lds	r25, 0x008C
    23b4:	01 96       	adiw	r24, 0x01	; 1
    23b6:	90 93 8c 00 	sts	0x008C, r25
    23ba:	80 93 8b 00 	sts	0x008B, r24
            I2CBuffer.position++;
    23be:	80 91 a3 00 	lds	r24, 0x00A3
    23c2:	8f 5f       	subi	r24, 0xFF	; 255
    23c4:	80 93 a3 00 	sts	0x00A3, r24
    23c8:	20 c0       	rjmp	.+64     	; 0x240a <__vector_19+0x20e>
        I2CBuffer.succesBit=2;

        break;

    case 0x38:										//Arbitration lost in SLA+W or data bytes
        TWCR = (1<<TWINT);
    23ca:	80 e8       	ldi	r24, 0x80	; 128
    23cc:	21 c0       	rjmp	.+66     	; 0x2410 <__vector_19+0x214>
        break;

    case 0x40:										//SLA+R transmitted ACK
        if (I2CBuffer.read_length==1)
    23ce:	80 91 a2 00 	lds	r24, 0x00A2
    23d2:	81 30       	cpi	r24, 0x01	; 1
    23d4:	e1 f4       	brne	.+56     	; 0x240e <__vector_19+0x212>
    23d6:	19 c0       	rjmp	.+50     	; 0x240a <__vector_19+0x20e>
            TWCR = ( (1<<TWINT) | (1<<TWEN) | (1<<TWIE) | (1<<TWEA) );
        }
        break;

    case 0x48: 										//SLA+R transmitted NACK
        TWCR = ( (1<<TWINT) | (1<<TWSTO) );
    23d8:	80 e9       	ldi	r24, 0x90	; 144
    23da:	86 bf       	out	0x36, r24	; 54
        I2CBuffer.succesBit=2;
    23dc:	82 e0       	ldi	r24, 0x02	; 2
    23de:	29 c0       	rjmp	.+82     	; 0x2432 <__vector_19+0x236>
        break;

    case 0x50:										 //Data byte received ACK returned
	
        I2CBuffer.read_buffer[I2CBuffer.position++]=TWDR;
    23e0:	80 91 a3 00 	lds	r24, 0x00A3
    23e4:	e8 2f       	mov	r30, r24
    23e6:	f0 e0       	ldi	r31, 0x00	; 0
    23e8:	93 b1       	in	r25, 0x03	; 3
    23ea:	e5 57       	subi	r30, 0x75	; 117
    23ec:	ff 4f       	sbci	r31, 0xFF	; 255
    23ee:	92 83       	std	Z+2, r25	; 0x02
    23f0:	8f 5f       	subi	r24, 0xFF	; 255
    23f2:	80 93 a3 00 	sts	0x00A3, r24

        if (I2CBuffer.position==I2CBuffer.read_length-1)
    23f6:	20 91 a3 00 	lds	r18, 0x00A3
    23fa:	80 91 a2 00 	lds	r24, 0x00A2
    23fe:	30 e0       	ldi	r19, 0x00	; 0
    2400:	90 e0       	ldi	r25, 0x00	; 0
    2402:	01 97       	sbiw	r24, 0x01	; 1
    2404:	28 17       	cp	r18, r24
    2406:	39 07       	cpc	r19, r25
    2408:	11 f4       	brne	.+4      	; 0x240e <__vector_19+0x212>
        {
            TWCR = ( (1<<TWINT) | (1<<TWEN) | (1<<TWIE) );
    240a:	85 e8       	ldi	r24, 0x85	; 133
    240c:	01 c0       	rjmp	.+2      	; 0x2410 <__vector_19+0x214>
        }
        else
        {
            TWCR = ( (1<<TWINT) | (1<<TWEN) | (1<<TWIE) | (1<<TWEA) );
    240e:	85 ec       	ldi	r24, 0xC5	; 197
    2410:	86 bf       	out	0x36, r24	; 54
    2412:	11 c0       	rjmp	.+34     	; 0x2436 <__vector_19+0x23a>
        }
        break;

    case 0x58:										//Data byte received NACK returned
        I2CBuffer.read_buffer[I2CBuffer.position]=TWDR;
    2414:	e0 91 a3 00 	lds	r30, 0x00A3
    2418:	f0 e0       	ldi	r31, 0x00	; 0
    241a:	83 b1       	in	r24, 0x03	; 3
    241c:	e5 57       	subi	r30, 0x75	; 117
    241e:	ff 4f       	sbci	r31, 0xFF	; 255
    2420:	82 83       	std	Z+2, r24	; 0x02
        TWCR = ( (1<<TWINT) | (1<<TWSTO) );
    2422:	80 e9       	ldi	r24, 0x90	; 144
    2424:	86 bf       	out	0x36, r24	; 54
        I2CBuffer.succesBit=0;
    2426:	10 92 a4 00 	sts	0x00A4, r1
        break;
    242a:	05 c0       	rjmp	.+10     	; 0x2436 <__vector_19+0x23a>
        TWCR = ( (1<<TWINT) | (1<<TWSTO) );
        I2CBuffer.succesBit=1;
        break;

    default:
        TWCR = ( (1<<TWINT) | (1<<TWSTO) );
    242c:	80 e9       	ldi	r24, 0x90	; 144
    242e:	86 bf       	out	0x36, r24	; 54
        I2CBuffer.succesBit=1;
    2430:	81 e0       	ldi	r24, 0x01	; 1
    2432:	80 93 a4 00 	sts	0x00A4, r24
        break;
    }
}
    2436:	ff 91       	pop	r31
    2438:	ef 91       	pop	r30
    243a:	9f 91       	pop	r25
    243c:	8f 91       	pop	r24
    243e:	3f 91       	pop	r19
    2440:	2f 91       	pop	r18
    2442:	0f 90       	pop	r0
    2444:	0f be       	out	0x3f, r0	; 63
    2446:	0f 90       	pop	r0
    2448:	1f 90       	pop	r1
    244a:	18 95       	reti

0000244c <init>:

#include "include/controlBoard.h"

void init ()
{
    244c:	8f 92       	push	r8
    244e:	9f 92       	push	r9
    2450:	af 92       	push	r10
    2452:	cf 92       	push	r12
    2454:	df 92       	push	r13
    2456:	ef 92       	push	r14
    2458:	ff 92       	push	r15
    245a:	0f 93       	push	r16
    245c:	1f 93       	push	r17
    245e:	cf 93       	push	r28
	//Timer0 fuer Zeit:
	TCCR0 |= (1<<WGM01);
    2460:	83 b7       	in	r24, 0x33	; 51
    2462:	88 60       	ori	r24, 0x08	; 8
    2464:	83 bf       	out	0x33, r24	; 51
	TCCR0 |= ( (1<<CS01));// | (1<<CS00) );		//clkT2S/64
    2466:	83 b7       	in	r24, 0x33	; 51
    2468:	82 60       	ori	r24, 0x02	; 2
    246a:	83 bf       	out	0x33, r24	; 51
	TIMSK |= (1<<OCIE0);
    246c:	89 b7       	in	r24, 0x39	; 57
    246e:	82 60       	ori	r24, 0x02	; 2
    2470:	89 bf       	out	0x39, r24	; 57
	OCR0 = 125;
    2472:	8d e7       	ldi	r24, 0x7D	; 125
    2474:	8c bf       	out	0x3c, r24	; 60
	
	//Timer1 fuer Heiz innen und aussen
	TCCR1A |= (1<<COM1A1) | (1<<COM1B1) | (1<<WGM10); //PWM phase correct 8-bit; Clear OC1A+OC1B on compare match when up-counting
    2476:	8f b5       	in	r24, 0x2f	; 47
    2478:	81 6a       	ori	r24, 0xA1	; 161
    247a:	8f bd       	out	0x2f, r24	; 47
	TCCR1B |= (1<<CS10) | (1<<CS12);				//Prescaler = 1024
    247c:	8e b5       	in	r24, 0x2e	; 46
    247e:	85 60       	ori	r24, 0x05	; 5
    2480:	8e bd       	out	0x2e, r24	; 46
	OCR1A=0;
    2482:	1b bc       	out	0x2b, r1	; 43
    2484:	1a bc       	out	0x2a, r1	; 42
	OCR1B=0;
    2486:	19 bc       	out	0x29, r1	; 41
    2488:	18 bc       	out	0x28, r1	; 40
	
	//Timer2 fuer Feucht
	TCCR2 |= (1<<WGM20) | (1<<COM21) | (1<<CS21) ; //PWM phase correct ; Clear OC2 on compare match when up-counting, PS = 8
    248a:	85 b5       	in	r24, 0x25	; 37
    248c:	82 66       	ori	r24, 0x62	; 98
    248e:	85 bd       	out	0x25, r24	; 37
	OCR2=0;
    2490:	13 bc       	out	0x23, r1	; 35
	
	//Timer3:
	TIMER3.TCNT=0;
    2492:	10 92 74 01 	sts	0x0174, r1
	TIMER3.OCRA=0;
    2496:	10 92 75 01 	sts	0x0175, r1
	TIMER3.OCRB=0;
    249a:	10 92 76 01 	sts	0x0176, r1
	TIMER3.OCRC=0;
    249e:	10 92 77 01 	sts	0x0177, r1
	TIMER3.OCRD=100;
    24a2:	84 e6       	ldi	r24, 0x64	; 100
    24a4:	80 93 78 01 	sts	0x0178, r24
	
	//Can Interrupt:
	DDRB  &= ~(1<<DDB2);
    24a8:	ba 98       	cbi	0x17, 2	; 23
	GICR |= (1<<INT2) ;
    24aa:	8b b7       	in	r24, 0x3b	; 59
    24ac:	80 62       	ori	r24, 0x20	; 32
    24ae:	8b bf       	out	0x3b, r24	; 59
	MCUCSR &= ~(1<<ISC2);
    24b0:	84 b7       	in	r24, 0x34	; 52
    24b2:	8f 7b       	andi	r24, 0xBF	; 191
    24b4:	84 bf       	out	0x34, r24	; 52
	
	
	//Taster Interrupt:
	DDRD  &= ~(1<<DDD2) | (1<<DDD3);
    24b6:	8a 98       	cbi	0x11, 2	; 17
	PORTD |=  (1<<PD2) | (1<<PD3);
    24b8:	82 b3       	in	r24, 0x12	; 18
    24ba:	8c 60       	ori	r24, 0x0C	; 12
    24bc:	82 bb       	out	0x12, r24	; 18
	MCUCR |= (1<<ISC00) | (1<<ISC01) | (1<<ISC10) | (1<<ISC11);
    24be:	85 b7       	in	r24, 0x35	; 53
    24c0:	8f 60       	ori	r24, 0x0F	; 15
    24c2:	85 bf       	out	0x35, r24	; 53
	GICR |= (1<<INT0) | (1<<INT1);
    24c4:	8b b7       	in	r24, 0x3b	; 59
    24c6:	80 6c       	ori	r24, 0xC0	; 192
    24c8:	8b bf       	out	0x3b, r24	; 59
	
	//Outputs:
	DDRD |= ( (1<<DDD4) | (1<<DDD5) | (1<<DDD6) | (1<<DDD7) );
    24ca:	81 b3       	in	r24, 0x11	; 17
    24cc:	80 6f       	ori	r24, 0xF0	; 240
    24ce:	81 bb       	out	0x11, r24	; 17
	DDRC |= ( (1<<DDC2) | (1<<DDC4) | (1<<DDC5) | (1<<DDC6) | (1<<DDC7) );
    24d0:	84 b3       	in	r24, 0x14	; 20
    24d2:	84 6f       	ori	r24, 0xF4	; 244
    24d4:	84 bb       	out	0x14, r24	; 20
	
	PORTD &= ~( (1<< PD4) | (1<< PD5) | (1<< PD6) | (1<< PD7) );
    24d6:	82 b3       	in	r24, 0x12	; 18
    24d8:	8f 70       	andi	r24, 0x0F	; 15
    24da:	82 bb       	out	0x12, r24	; 18
	PORTC &= ~( (1<< PC4) | (1<< PC5) | (1<< PC6) | (1<< PC7) );
    24dc:	85 b3       	in	r24, 0x15	; 21
    24de:	8f 70       	andi	r24, 0x0F	; 15
    24e0:	85 bb       	out	0x15, r24	; 21
	
	PORTD |= (1<< PD7);
    24e2:	97 9a       	sbi	0x12, 7	; 18
	PORTC |= (1<< PC2);
    24e4:	aa 9a       	sbi	0x15, 2	; 21
	//PINC  &= ~(1<<PC1);
	//DDRC   &= ~(1<<DDC0);
	//DDRC   &= ~(1<<DDC1);

	//ADC-VRef
	ADMUX  |=  (1<<REFS0) ;
    24e6:	3e 9a       	sbi	0x07, 6	; 7
	ADMUX  &=  ~(1<<REFS1) ;
    24e8:	3f 98       	cbi	0x07, 7	; 7
	ADCSRA |= (1<<ADPS0) | (1<<ADPS1) | (1<<ADPS2) ;
    24ea:	86 b1       	in	r24, 0x06	; 6
    24ec:	87 60       	ori	r24, 0x07	; 7
    24ee:	86 b9       	out	0x06, r24	; 6
	
	
	entprellsperre=0;
    24f0:	10 92 33 01 	sts	0x0133, r1
	HUMmode=specHum_in;
    24f4:	c1 e0       	ldi	r28, 0x01	; 1
    24f6:	c0 93 86 00 	sts	0x0086, r28
	
	init_PID_values(&PID_values_preHeat,48,2,92,0,0,250,1,32,0);  //OCRA1
    24fa:	1f 92       	push	r1
    24fc:	80 e2       	ldi	r24, 0x20	; 32
    24fe:	88 2e       	mov	r8, r24
    2500:	91 2c       	mov	r9, r1
    2502:	aa 24       	eor	r10, r10
    2504:	a3 94       	inc	r10
    2506:	9a ef       	ldi	r25, 0xFA	; 250
    2508:	c9 2e       	mov	r12, r25
    250a:	d1 2c       	mov	r13, r1
    250c:	e1 2c       	mov	r14, r1
    250e:	f1 2c       	mov	r15, r1
    2510:	00 e0       	ldi	r16, 0x00	; 0
    2512:	10 e0       	ldi	r17, 0x00	; 0
    2514:	2c e5       	ldi	r18, 0x5C	; 92
    2516:	30 e0       	ldi	r19, 0x00	; 0
    2518:	42 e0       	ldi	r20, 0x02	; 2
    251a:	60 e3       	ldi	r22, 0x30	; 48
    251c:	70 e0       	ldi	r23, 0x00	; 0
    251e:	8f e0       	ldi	r24, 0x0F	; 15
    2520:	91 e0       	ldi	r25, 0x01	; 1
    2522:	0e 94 5c 18 	call	0x30b8	; 0x30b8 <init_PID_values>
	init_PID_values(&PID_values_inHeat,64,1,512,0,0,250,1,32,0);	//OCR1B
    2526:	1f 92       	push	r1
    2528:	20 e0       	ldi	r18, 0x00	; 0
    252a:	32 e0       	ldi	r19, 0x02	; 2
    252c:	41 e0       	ldi	r20, 0x01	; 1
    252e:	60 e4       	ldi	r22, 0x40	; 64
    2530:	70 e0       	ldi	r23, 0x00	; 0
    2532:	8c e8       	ldi	r24, 0x8C	; 140
    2534:	91 e0       	ldi	r25, 0x01	; 1
    2536:	0e 94 5c 18 	call	0x30b8	; 0x30b8 <init_PID_values>
	init_PID_values(&PID_values_specHum_in,8,0,1,0,10,10000,1,128,0);	//OCR2
    253a:	1f 92       	push	r1
    253c:	20 e8       	ldi	r18, 0x80	; 128
    253e:	82 2e       	mov	r8, r18
    2540:	91 2c       	mov	r9, r1
    2542:	30 e1       	ldi	r19, 0x10	; 16
    2544:	c3 2e       	mov	r12, r19
    2546:	37 e2       	ldi	r19, 0x27	; 39
    2548:	d3 2e       	mov	r13, r19
    254a:	4a e0       	ldi	r20, 0x0A	; 10
    254c:	e4 2e       	mov	r14, r20
    254e:	f1 2c       	mov	r15, r1
    2550:	21 e0       	ldi	r18, 0x01	; 1
    2552:	30 e0       	ldi	r19, 0x00	; 0
    2554:	40 e0       	ldi	r20, 0x00	; 0
    2556:	68 e0       	ldi	r22, 0x08	; 8
    2558:	70 e0       	ldi	r23, 0x00	; 0
    255a:	8c e3       	ldi	r24, 0x3C	; 60
    255c:	91 e0       	ldi	r25, 0x01	; 1
    255e:	0e 94 5c 18 	call	0x30b8	; 0x30b8 <init_PID_values>
	init_PID_values(&PID_values_vpd_in,12,0,128,6000,10,2000,1,16,1);	//OCR2
    2562:	cf 93       	push	r28
    2564:	50 e1       	ldi	r21, 0x10	; 16
    2566:	85 2e       	mov	r8, r21
    2568:	91 2c       	mov	r9, r1
    256a:	60 ed       	ldi	r22, 0xD0	; 208
    256c:	c6 2e       	mov	r12, r22
    256e:	67 e0       	ldi	r22, 0x07	; 7
    2570:	d6 2e       	mov	r13, r22
    2572:	00 e7       	ldi	r16, 0x70	; 112
    2574:	17 e1       	ldi	r17, 0x17	; 23
    2576:	20 e8       	ldi	r18, 0x80	; 128
    2578:	30 e0       	ldi	r19, 0x00	; 0
    257a:	40 e0       	ldi	r20, 0x00	; 0
    257c:	6c e0       	ldi	r22, 0x0C	; 12
    257e:	70 e0       	ldi	r23, 0x00	; 0
    2580:	8b ea       	ldi	r24, 0xAB	; 171
    2582:	90 e0       	ldi	r25, 0x00	; 0
    2584:	0e 94 5c 18 	call	0x30b8	; 0x30b8 <init_PID_values>
	init_PID_values(&PID_values_co2,5,1,3,10,10,3500,1,64,0);
    2588:	1f 92       	push	r1
    258a:	70 e4       	ldi	r23, 0x40	; 64
    258c:	87 2e       	mov	r8, r23
    258e:	91 2c       	mov	r9, r1
    2590:	ec ea       	ldi	r30, 0xAC	; 172
    2592:	ce 2e       	mov	r12, r30
    2594:	ed e0       	ldi	r30, 0x0D	; 13
    2596:	de 2e       	mov	r13, r30
    2598:	0a e0       	ldi	r16, 0x0A	; 10
    259a:	10 e0       	ldi	r17, 0x00	; 0
    259c:	23 e0       	ldi	r18, 0x03	; 3
    259e:	30 e0       	ldi	r19, 0x00	; 0
    25a0:	41 e0       	ldi	r20, 0x01	; 1
    25a2:	65 e0       	ldi	r22, 0x05	; 5
    25a4:	70 e0       	ldi	r23, 0x00	; 0
    25a6:	82 ee       	ldi	r24, 0xE2	; 226
    25a8:	90 e0       	ldi	r25, 0x00	; 0
    25aa:	0e 94 5c 18 	call	0x30b8	; 0x30b8 <init_PID_values>
		
	sei();
    25ae:	78 94       	sei
	
	uart_init(8);
    25b0:	88 e0       	ldi	r24, 0x08	; 8
    25b2:	90 e0       	ldi	r25, 0x00	; 0
    25b4:	0e 94 2b 1a 	call	0x3456	; 0x3456 <uart_init>
	twi_init();
    25b8:	0e 94 cb 10 	call	0x2196	; 0x2196 <twi_init>
	spi_init();
    25bc:	0e 94 17 1a 	call	0x342e	; 0x342e <spi_init>
	delay(1);
    25c0:	81 e0       	ldi	r24, 0x01	; 1
    25c2:	90 e0       	ldi	r25, 0x00	; 0
    25c4:	0e 94 f1 0b 	call	0x17e2	; 0x17e2 <delay>
	mcp2515_init(0,0);
    25c8:	60 e0       	ldi	r22, 0x00	; 0
    25ca:	70 e0       	ldi	r23, 0x00	; 0
    25cc:	80 e0       	ldi	r24, 0x00	; 0
    25ce:	90 e0       	ldi	r25, 0x00	; 0
    25d0:	0e 94 c1 04 	call	0x982	; 0x982 <mcp2515_init>
				
	AC1=0;
    25d4:	10 92 de 00 	sts	0x00DE, r1
    25d8:	10 92 dd 00 	sts	0x00DD, r1
	AC2=0;
    25dc:	10 92 63 01 	sts	0x0163, r1
    25e0:	10 92 62 01 	sts	0x0162, r1
	AC3=0;
    25e4:	10 92 65 01 	sts	0x0165, r1
    25e8:	10 92 64 01 	sts	0x0164, r1
	AC4=0;
    25ec:	10 92 3b 01 	sts	0x013B, r1
    25f0:	10 92 3a 01 	sts	0x013A, r1
	AC5=0;
    25f4:	10 92 37 01 	sts	0x0137, r1
    25f8:	10 92 36 01 	sts	0x0136, r1
	AC6=0;
    25fc:	10 92 e0 00 	sts	0x00E0, r1
    2600:	10 92 df 00 	sts	0x00DF, r1
	B1=0;
    2604:	10 92 bf 01 	sts	0x01BF, r1
    2608:	10 92 be 01 	sts	0x01BE, r1
	B2=0;
    260c:	10 92 6d 01 	sts	0x016D, r1
    2610:	10 92 6c 01 	sts	0x016C, r1
	MB=0;
    2614:	10 92 61 01 	sts	0x0161, r1
    2618:	10 92 60 01 	sts	0x0160, r1
	MC=0;
    261c:	10 92 c2 01 	sts	0x01C2, r1
    2620:	10 92 c1 01 	sts	0x01C1, r1
	MD=0;
    2624:	10 92 aa 00 	sts	0x00AA, r1
    2628:	10 92 a9 00 	sts	0x00A9, r1

	PCF8574_byte=0;
    262c:	10 92 a7 00 	sts	0x00A7, r1
	
	can_new_message=0;
    2630:	10 92 89 00 	sts	0x0089, r1
	can_new_interrupt=0;
    2634:	10 92 87 00 	sts	0x0087, r1
	buffer_update_flag=0;
    2638:	10 92 a8 00 	sts	0x00A8, r1
	
	treatment=0;
    263c:	10 92 38 01 	sts	0x0138, r1
	repetition=0;
    2640:	10 92 79 01 	sts	0x0179, r1
	tick=1;
    2644:	c0 93 6b 01 	sts	0x016B, r28
	saveToEpromEnabled=0;
    2648:	10 92 39 01 	sts	0x0139, r1
	memoryAdress=64;
    264c:	80 e4       	ldi	r24, 0x40	; 64
    264e:	90 e0       	ldi	r25, 0x00	; 0
    2650:	a0 e0       	ldi	r26, 0x00	; 0
    2652:	b0 e0       	ldi	r27, 0x00	; 0
    2654:	80 93 70 01 	sts	0x0170, r24
    2658:	90 93 71 01 	sts	0x0171, r25
    265c:	a0 93 72 01 	sts	0x0172, r26
    2660:	b0 93 73 01 	sts	0x0173, r27
	CanErrorStatus=0;
    2664:	10 92 88 00 	sts	0x0088, r1
	
	sTime.days=0;
    2668:	10 92 06 01 	sts	0x0106, r1
	sTime.daySecs=1;
    266c:	81 e0       	ldi	r24, 0x01	; 1
    266e:	90 e0       	ldi	r25, 0x00	; 0
    2670:	a0 e0       	ldi	r26, 0x00	; 0
    2672:	b0 e0       	ldi	r27, 0x00	; 0
    2674:	80 93 07 01 	sts	0x0107, r24
    2678:	90 93 08 01 	sts	0x0108, r25
    267c:	a0 93 09 01 	sts	0x0109, r26
    2680:	b0 93 0a 01 	sts	0x010A, r27
	sTime.daySecsTEMP=0;
    2684:	10 92 0b 01 	sts	0x010B, r1
    2688:	10 92 0c 01 	sts	0x010C, r1
    268c:	10 92 0d 01 	sts	0x010D, r1
    2690:	10 92 0e 01 	sts	0x010E, r1
    2694:	0f 90       	pop	r0
    2696:	0f 90       	pop	r0
    2698:	0f 90       	pop	r0
    269a:	0f 90       	pop	r0
    269c:	0f 90       	pop	r0
}
    269e:	cf 91       	pop	r28
    26a0:	1f 91       	pop	r17
    26a2:	0f 91       	pop	r16
    26a4:	ff 90       	pop	r15
    26a6:	ef 90       	pop	r14
    26a8:	df 90       	pop	r13
    26aa:	cf 90       	pop	r12
    26ac:	af 90       	pop	r10
    26ae:	9f 90       	pop	r9
    26b0:	8f 90       	pop	r8
    26b2:	08 95       	ret

000026b4 <__vector_10>:

#include "include/interrupts.h"


ISR(TIMER0_COMP_vect)
{
    26b4:	1f 92       	push	r1
    26b6:	0f 92       	push	r0
    26b8:	0f b6       	in	r0, 0x3f	; 63
    26ba:	0f 92       	push	r0
    26bc:	11 24       	eor	r1, r1
    26be:	2f 93       	push	r18
    26c0:	8f 93       	push	r24
    26c2:	9f 93       	push	r25
    26c4:	af 93       	push	r26
    26c6:	bf 93       	push	r27
	milisecCounter++;
    26c8:	80 91 7a 01 	lds	r24, 0x017A
    26cc:	90 91 7b 01 	lds	r25, 0x017B
    26d0:	01 96       	adiw	r24, 0x01	; 1
    26d2:	90 93 7b 01 	sts	0x017B, r25
    26d6:	80 93 7a 01 	sts	0x017A, r24
	if (milisecCounter>=7976)
    26da:	80 91 7a 01 	lds	r24, 0x017A
    26de:	90 91 7b 01 	lds	r25, 0x017B
    26e2:	88 32       	cpi	r24, 0x28	; 40
    26e4:	9f 41       	sbci	r25, 0x1F	; 31
    26e6:	d4 f0       	brlt	.+52     	; 0x271c <__vector_10+0x68>
	{
		milisecCounter=0;
    26e8:	10 92 7b 01 	sts	0x017B, r1
    26ec:	10 92 7a 01 	sts	0x017A, r1
		tick=1;
    26f0:	81 e0       	ldi	r24, 0x01	; 1
    26f2:	80 93 6b 01 	sts	0x016B, r24
		sTime.daySecs++;
    26f6:	80 91 07 01 	lds	r24, 0x0107
    26fa:	90 91 08 01 	lds	r25, 0x0108
    26fe:	a0 91 09 01 	lds	r26, 0x0109
    2702:	b0 91 0a 01 	lds	r27, 0x010A
    2706:	01 96       	adiw	r24, 0x01	; 1
    2708:	a1 1d       	adc	r26, r1
    270a:	b1 1d       	adc	r27, r1
    270c:	80 93 07 01 	sts	0x0107, r24
    2710:	90 93 08 01 	sts	0x0108, r25
    2714:	a0 93 09 01 	sts	0x0109, r26
    2718:	b0 93 0a 01 	sts	0x010A, r27
	}


	if (entprellsperre)
    271c:	80 91 33 01 	lds	r24, 0x0133
    2720:	88 23       	and	r24, r24
    2722:	29 f0       	breq	.+10     	; 0x272e <__vector_10+0x7a>
	{
		entprellsperre--;
    2724:	80 91 33 01 	lds	r24, 0x0133
    2728:	81 50       	subi	r24, 0x01	; 1
    272a:	80 93 33 01 	sts	0x0133, r24
	}

	if (!(milisecCounter%8))
    272e:	80 91 7a 01 	lds	r24, 0x017A
    2732:	90 91 7b 01 	lds	r25, 0x017B
    2736:	87 70       	andi	r24, 0x07	; 7
    2738:	99 27       	eor	r25, r25
    273a:	89 2b       	or	r24, r25
    273c:	d9 f4       	brne	.+54     	; 0x2774 <__vector_10+0xc0>
	{
		milisecCounter2++;
    273e:	80 91 6e 01 	lds	r24, 0x016E
    2742:	90 91 6f 01 	lds	r25, 0x016F
    2746:	01 96       	adiw	r24, 0x01	; 1
    2748:	90 93 6f 01 	sts	0x016F, r25
    274c:	80 93 6e 01 	sts	0x016E, r24
		milisecCounter3++;
    2750:	80 91 8a 01 	lds	r24, 0x018A
    2754:	90 91 8b 01 	lds	r25, 0x018B
    2758:	01 96       	adiw	r24, 0x01	; 1
    275a:	90 93 8b 01 	sts	0x018B, r25
    275e:	80 93 8a 01 	sts	0x018A, r24
		milisecCounter4++;		
    2762:	80 91 34 01 	lds	r24, 0x0134
    2766:	90 91 35 01 	lds	r25, 0x0135
    276a:	01 96       	adiw	r24, 0x01	; 1
    276c:	90 93 35 01 	sts	0x0135, r25
    2770:	80 93 34 01 	sts	0x0134, r24
	}

	
	if (TIMER3.TCNT > 99)
    2774:	80 91 74 01 	lds	r24, 0x0174
    2778:	84 36       	cpi	r24, 0x64	; 100
    277a:	10 f0       	brcs	.+4      	; 0x2780 <__vector_10+0xcc>
	{
		TIMER3.TCNT=0;
    277c:	10 92 74 01 	sts	0x0174, r1
	}
	
	if ( (TIMER3.TCNT>= TIMER3.OCRA) && (TIMER3.OCRA != 100) )
    2780:	80 91 75 01 	lds	r24, 0x0175
    2784:	90 91 74 01 	lds	r25, 0x0174
    2788:	98 17       	cp	r25, r24
    278a:	18 f0       	brcs	.+6      	; 0x2792 <__vector_10+0xde>
    278c:	84 36       	cpi	r24, 0x64	; 100
    278e:	09 f0       	breq	.+2      	; 0x2792 <__vector_10+0xde>
	{
		PORTC &= ~(1<<PC7);
    2790:	af 98       	cbi	0x15, 7	; 21
	}
	if ( (TIMER3.TCNT>= TIMER3.OCRB) && (TIMER3.OCRB != 100) )
    2792:	80 91 76 01 	lds	r24, 0x0176
    2796:	90 91 74 01 	lds	r25, 0x0174
    279a:	98 17       	cp	r25, r24
    279c:	18 f0       	brcs	.+6      	; 0x27a4 <__vector_10+0xf0>
    279e:	84 36       	cpi	r24, 0x64	; 100
    27a0:	09 f0       	breq	.+2      	; 0x27a4 <__vector_10+0xf0>
	{
		PORTC &= ~(1<<PC6);
    27a2:	ae 98       	cbi	0x15, 6	; 21
	}
	if ( (TIMER3.TCNT>= TIMER3.OCRC) && (TIMER3.OCRC != 100) )
    27a4:	80 91 77 01 	lds	r24, 0x0177
    27a8:	90 91 74 01 	lds	r25, 0x0174
    27ac:	98 17       	cp	r25, r24
    27ae:	18 f0       	brcs	.+6      	; 0x27b6 <__vector_10+0x102>
    27b0:	84 36       	cpi	r24, 0x64	; 100
    27b2:	09 f0       	breq	.+2      	; 0x27b6 <__vector_10+0x102>
	{
		PORTC &= ~(1<<PC5);
    27b4:	ad 98       	cbi	0x15, 5	; 21
	}
	if ( (TIMER3.TCNT>= TIMER3.OCRD) && (TIMER3.OCRD != 100) )
    27b6:	90 91 78 01 	lds	r25, 0x0178
    27ba:	80 91 74 01 	lds	r24, 0x0174
    27be:	89 17       	cp	r24, r25
    27c0:	18 f0       	brcs	.+6      	; 0x27c8 <__vector_10+0x114>
    27c2:	94 36       	cpi	r25, 0x64	; 100
    27c4:	09 f0       	breq	.+2      	; 0x27c8 <__vector_10+0x114>
	{
		PORTC &= ~(1<<PC4);
    27c6:	ac 98       	cbi	0x15, 4	; 21
	}

	if (TIMER3.TCNT == 0)
    27c8:	81 11       	cpse	r24, r1
    27ca:	10 c0       	rjmp	.+32     	; 0x27ec <__vector_10+0x138>
	{
		if ( TIMER3.OCRA )
    27cc:	80 91 75 01 	lds	r24, 0x0175
    27d0:	81 11       	cpse	r24, r1
		{
			PORTC |= (1<<PC7);
    27d2:	af 9a       	sbi	0x15, 7	; 21
		}
		if ( TIMER3.OCRB )
    27d4:	80 91 76 01 	lds	r24, 0x0176
    27d8:	81 11       	cpse	r24, r1
		{
			PORTC |= (1<<PC6);
    27da:	ae 9a       	sbi	0x15, 6	; 21
		}
		if ( TIMER3.OCRC )
    27dc:	80 91 77 01 	lds	r24, 0x0177
    27e0:	81 11       	cpse	r24, r1
		{
			PORTC |= (1<<PC5);
    27e2:	ad 9a       	sbi	0x15, 5	; 21
		}
		if ( TIMER3.OCRD )
    27e4:	80 91 78 01 	lds	r24, 0x0178
    27e8:	81 11       	cpse	r24, r1
		{
			PORTC |= (1<<PC4);
    27ea:	ac 9a       	sbi	0x15, 4	; 21
		}
	}
	TIMER3.TCNT++;
    27ec:	80 91 74 01 	lds	r24, 0x0174
    27f0:	8f 5f       	subi	r24, 0xFF	; 255
    27f2:	80 93 74 01 	sts	0x0174, r24
}
    27f6:	bf 91       	pop	r27
    27f8:	af 91       	pop	r26
    27fa:	9f 91       	pop	r25
    27fc:	8f 91       	pop	r24
    27fe:	2f 91       	pop	r18
    2800:	0f 90       	pop	r0
    2802:	0f be       	out	0x3f, r0	; 63
    2804:	0f 90       	pop	r0
    2806:	1f 90       	pop	r1
    2808:	18 95       	reti

0000280a <__vector_1>:


ISR(INT0_vect)
{
    280a:	1f 92       	push	r1
    280c:	0f 92       	push	r0
    280e:	0f b6       	in	r0, 0x3f	; 63
    2810:	0f 92       	push	r0
    2812:	11 24       	eor	r1, r1
    2814:	8f 93       	push	r24
    2816:	9f 93       	push	r25
	if (!entprellsperre)
    2818:	80 91 33 01 	lds	r24, 0x0133
    281c:	81 11       	cpse	r24, r1
    281e:	09 c0       	rjmp	.+18     	; 0x2832 <__vector_1+0x28>
	{
		entprellsperre=200;
    2820:	88 ec       	ldi	r24, 0xC8	; 200
    2822:	80 93 33 01 	sts	0x0133, r24
		saveToEpromEnabled ^= (1<<0);
    2826:	80 91 39 01 	lds	r24, 0x0139
    282a:	91 e0       	ldi	r25, 0x01	; 1
    282c:	89 27       	eor	r24, r25
    282e:	80 93 39 01 	sts	0x0139, r24
	}
	GIFR |= (1<<INTF0);
    2832:	8a b7       	in	r24, 0x3a	; 58
    2834:	80 64       	ori	r24, 0x40	; 64
    2836:	8a bf       	out	0x3a, r24	; 58
}
    2838:	9f 91       	pop	r25
    283a:	8f 91       	pop	r24
    283c:	0f 90       	pop	r0
    283e:	0f be       	out	0x3f, r0	; 63
    2840:	0f 90       	pop	r0
    2842:	1f 90       	pop	r1
    2844:	18 95       	reti

00002846 <__vector_2>:


ISR(INT1_vect)
{
    2846:	1f 92       	push	r1
    2848:	0f 92       	push	r0
    284a:	0f b6       	in	r0, 0x3f	; 63
    284c:	0f 92       	push	r0
    284e:	11 24       	eor	r1, r1
    2850:	8f 93       	push	r24
	if (!entprellsperre)
    2852:	80 91 33 01 	lds	r24, 0x0133
    2856:	81 11       	cpse	r24, r1
    2858:	06 c0       	rjmp	.+12     	; 0x2866 <__vector_2+0x20>
	{
		entprellsperre=200;
    285a:	88 ec       	ldi	r24, 0xC8	; 200
    285c:	80 93 33 01 	sts	0x0133, r24
		PORTD ^= (1<< PD7);
    2860:	82 b3       	in	r24, 0x12	; 18
    2862:	80 58       	subi	r24, 0x80	; 128
    2864:	82 bb       	out	0x12, r24	; 18
	}
	GIFR |= (1<<INTF1);
    2866:	8a b7       	in	r24, 0x3a	; 58
    2868:	80 68       	ori	r24, 0x80	; 128
    286a:	8a bf       	out	0x3a, r24	; 58
}
    286c:	8f 91       	pop	r24
    286e:	0f 90       	pop	r0
    2870:	0f be       	out	0x3f, r0	; 63
    2872:	0f 90       	pop	r0
    2874:	1f 90       	pop	r1
    2876:	18 95       	reti

00002878 <__vector_3>:


ISR(INT2_vect)
{
    2878:	1f 92       	push	r1
    287a:	0f 92       	push	r0
    287c:	0f b6       	in	r0, 0x3f	; 63
    287e:	0f 92       	push	r0
    2880:	11 24       	eor	r1, r1
    2882:	8f 93       	push	r24
	can_new_interrupt=1;
    2884:	81 e0       	ldi	r24, 0x01	; 1
    2886:	80 93 87 00 	sts	0x0087, r24
}
    288a:	8f 91       	pop	r24
    288c:	0f 90       	pop	r0
    288e:	0f be       	out	0x3f, r0	; 63
    2890:	0f 90       	pop	r0
    2892:	1f 90       	pop	r1
    2894:	18 95       	reti

00002896 <recieve_command>:

#include "include/recieve_command.h"


void recieve_command(volatile sensValues* values_1,volatile sensValues* values_2,volatile eepromValues* eValues)
{
    2896:	bf 92       	push	r11
    2898:	cf 92       	push	r12
    289a:	df 92       	push	r13
    289c:	ef 92       	push	r14
    289e:	ff 92       	push	r15
    28a0:	0f 93       	push	r16
    28a2:	1f 93       	push	r17
    28a4:	cf 93       	push	r28
    28a6:	df 93       	push	r29
    28a8:	cd b7       	in	r28, 0x3d	; 61
    28aa:	de b7       	in	r29, 0x3e	; 62
    28ac:	65 97       	sbiw	r28, 0x15	; 21
    28ae:	0f b6       	in	r0, 0x3f	; 63
    28b0:	f8 94       	cli
    28b2:	de bf       	out	0x3e, r29	; 62
    28b4:	0f be       	out	0x3f, r0	; 63
    28b6:	cd bf       	out	0x3d, r28	; 61
    28b8:	8a 01       	movw	r16, r20
	unsigned char category = uart_struct.uart_buffer[0];
    28ba:	b0 90 72 00 	lds	r11, 0x0072
	unsigned char cValue[9];
	int32_t value=0;
	unsigned char i=0;
    28be:	90 e0       	ldi	r25, 0x00	; 0

	while (uart_struct.uart_buffer[i]!='\0')
    28c0:	0e c0       	rjmp	.+28     	; 0x28de <recieve_command+0x48>
	{
		i++;
    28c2:	9f 5f       	subi	r25, 0xFF	; 255
		cValue[i-1]=uart_struct.uart_buffer[i];
    28c4:	29 2f       	mov	r18, r25
    28c6:	30 e0       	ldi	r19, 0x00	; 0
    28c8:	f9 01       	movw	r30, r18
    28ca:	e0 59       	subi	r30, 0x90	; 144
    28cc:	ff 4f       	sbci	r31, 0xFF	; 255
    28ce:	82 81       	ldd	r24, Z+2	; 0x02
    28d0:	ec e0       	ldi	r30, 0x0C	; 12
    28d2:	f0 e0       	ldi	r31, 0x00	; 0
    28d4:	ec 0f       	add	r30, r28
    28d6:	fd 1f       	adc	r31, r29
    28d8:	e2 0f       	add	r30, r18
    28da:	f3 1f       	adc	r31, r19
    28dc:	80 83       	st	Z, r24
	unsigned char category = uart_struct.uart_buffer[0];
	unsigned char cValue[9];
	int32_t value=0;
	unsigned char i=0;

	while (uart_struct.uart_buffer[i]!='\0')
    28de:	e9 2f       	mov	r30, r25
    28e0:	f0 e0       	ldi	r31, 0x00	; 0
    28e2:	e0 59       	subi	r30, 0x90	; 144
    28e4:	ff 4f       	sbci	r31, 0xFF	; 255
    28e6:	82 81       	ldd	r24, Z+2	; 0x02
    28e8:	81 11       	cpse	r24, r1
    28ea:	eb cf       	rjmp	.-42     	; 0x28c2 <recieve_command+0x2c>
	{
		i++;
		cValue[i-1]=uart_struct.uart_buffer[i];
	}
	value=atol ( (char*)cValue);
    28ec:	ce 01       	movw	r24, r28
    28ee:	0d 96       	adiw	r24, 0x0d	; 13
    28f0:	0e 94 13 1b 	call	0x3626	; 0x3626 <atol>
    28f4:	6b 01       	movw	r12, r22
    28f6:	7c 01       	movw	r14, r24


	switch(category)
    28f8:	8b 2d       	mov	r24, r11
    28fa:	90 e0       	ldi	r25, 0x00	; 0
    28fc:	fc 01       	movw	r30, r24
    28fe:	e1 54       	subi	r30, 0x41	; 65
    2900:	f1 09       	sbc	r31, r1
    2902:	ea 33       	cpi	r30, 0x3A	; 58
    2904:	f1 05       	cpc	r31, r1
    2906:	08 f0       	brcs	.+2      	; 0x290a <recieve_command+0x74>
    2908:	78 c2       	rjmp	.+1264   	; 0x2dfa <recieve_command+0x564>
    290a:	e6 5d       	subi	r30, 0xD6	; 214
    290c:	ff 4f       	sbci	r31, 0xFF	; 255
    290e:	0c 94 cc 1a 	jmp	0x3598	; 0x3598 <__tablejump2__>
	{
		
		
		case 'a':
		if ( (value>=0) && (value<=2560) )
    2912:	21 e0       	ldi	r18, 0x01	; 1
    2914:	c2 16       	cp	r12, r18
    2916:	2a e0       	ldi	r18, 0x0A	; 10
    2918:	d2 06       	cpc	r13, r18
    291a:	e1 04       	cpc	r14, r1
    291c:	f1 04       	cpc	r15, r1
    291e:	08 f0       	brcs	.+2      	; 0x2922 <recieve_command+0x8c>
    2920:	70 c2       	rjmp	.+1248   	; 0x2e02 <recieve_command+0x56c>
		{
			PID_values_preHeat.P=value;
    2922:	c0 92 20 01 	sts	0x0120, r12
    2926:	d0 92 21 01 	sts	0x0121, r13
    292a:	e0 92 22 01 	sts	0x0122, r14
    292e:	f0 92 23 01 	sts	0x0123, r15
    2932:	67 c2       	rjmp	.+1230   	; 0x2e02 <recieve_command+0x56c>
		}
		break;
		
		case 'b':
		if ( (value>=0) && (value<=2560) )
    2934:	81 e0       	ldi	r24, 0x01	; 1
    2936:	c8 16       	cp	r12, r24
    2938:	8a e0       	ldi	r24, 0x0A	; 10
    293a:	d8 06       	cpc	r13, r24
    293c:	e1 04       	cpc	r14, r1
    293e:	f1 04       	cpc	r15, r1
    2940:	08 f0       	brcs	.+2      	; 0x2944 <recieve_command+0xae>
    2942:	5f c2       	rjmp	.+1214   	; 0x2e02 <recieve_command+0x56c>
		{
			PID_values_preHeat.I=value;
    2944:	c0 92 24 01 	sts	0x0124, r12
    2948:	d0 92 25 01 	sts	0x0125, r13
    294c:	e0 92 26 01 	sts	0x0126, r14
    2950:	f0 92 27 01 	sts	0x0127, r15
    2954:	56 c2       	rjmp	.+1196   	; 0x2e02 <recieve_command+0x56c>
		}
		break;
		
		case 'c':
		if ( (value>=0) && (value<=2560) )
    2956:	21 e0       	ldi	r18, 0x01	; 1
    2958:	c2 16       	cp	r12, r18
    295a:	2a e0       	ldi	r18, 0x0A	; 10
    295c:	d2 06       	cpc	r13, r18
    295e:	e1 04       	cpc	r14, r1
    2960:	f1 04       	cpc	r15, r1
    2962:	08 f0       	brcs	.+2      	; 0x2966 <recieve_command+0xd0>
    2964:	4e c2       	rjmp	.+1180   	; 0x2e02 <recieve_command+0x56c>
		{
			PID_values_preHeat.D=value;
    2966:	c0 92 28 01 	sts	0x0128, r12
    296a:	d0 92 29 01 	sts	0x0129, r13
    296e:	e0 92 2a 01 	sts	0x012A, r14
    2972:	f0 92 2b 01 	sts	0x012B, r15
    2976:	45 c2       	rjmp	.+1162   	; 0x2e02 <recieve_command+0x56c>
		}
		break;
		
		case 'd':
		if ( (value>=0) && (value<=4000) )
    2978:	81 ea       	ldi	r24, 0xA1	; 161
    297a:	c8 16       	cp	r12, r24
    297c:	8f e0       	ldi	r24, 0x0F	; 15
    297e:	d8 06       	cpc	r13, r24
    2980:	e1 04       	cpc	r14, r1
    2982:	f1 04       	cpc	r15, r1
    2984:	08 f0       	brcs	.+2      	; 0x2988 <recieve_command+0xf2>
    2986:	3d c2       	rjmp	.+1146   	; 0x2e02 <recieve_command+0x56c>
		{
			PID_values_preHeat.setValue=value;
    2988:	d0 92 1f 01 	sts	0x011F, r13
    298c:	c0 92 1e 01 	sts	0x011E, r12
    2990:	38 c2       	rjmp	.+1136   	; 0x2e02 <recieve_command+0x56c>
		}
		break;
		
		case 'e':
		if ( (value>=0) && (value<=2560) )
    2992:	21 e0       	ldi	r18, 0x01	; 1
    2994:	c2 16       	cp	r12, r18
    2996:	2a e0       	ldi	r18, 0x0A	; 10
    2998:	d2 06       	cpc	r13, r18
    299a:	e1 04       	cpc	r14, r1
    299c:	f1 04       	cpc	r15, r1
    299e:	08 f0       	brcs	.+2      	; 0x29a2 <recieve_command+0x10c>
    29a0:	30 c2       	rjmp	.+1120   	; 0x2e02 <recieve_command+0x56c>
		{
			PID_values_inHeat.P=value;
    29a2:	c0 92 9d 01 	sts	0x019D, r12
    29a6:	d0 92 9e 01 	sts	0x019E, r13
    29aa:	e0 92 9f 01 	sts	0x019F, r14
    29ae:	f0 92 a0 01 	sts	0x01A0, r15
    29b2:	27 c2       	rjmp	.+1102   	; 0x2e02 <recieve_command+0x56c>
		}
		break;
		
		case 'f':
		if ( (value>=0) && (value<=2560) )
    29b4:	81 e0       	ldi	r24, 0x01	; 1
    29b6:	c8 16       	cp	r12, r24
    29b8:	8a e0       	ldi	r24, 0x0A	; 10
    29ba:	d8 06       	cpc	r13, r24
    29bc:	e1 04       	cpc	r14, r1
    29be:	f1 04       	cpc	r15, r1
    29c0:	08 f0       	brcs	.+2      	; 0x29c4 <recieve_command+0x12e>
    29c2:	1f c2       	rjmp	.+1086   	; 0x2e02 <recieve_command+0x56c>
		{
			PID_values_inHeat.I=value;
    29c4:	c0 92 a1 01 	sts	0x01A1, r12
    29c8:	d0 92 a2 01 	sts	0x01A2, r13
    29cc:	e0 92 a3 01 	sts	0x01A3, r14
    29d0:	f0 92 a4 01 	sts	0x01A4, r15
    29d4:	16 c2       	rjmp	.+1068   	; 0x2e02 <recieve_command+0x56c>
		}
		break;
		
		case 'g':
		if ( (value>=0) && (value<=2560) )
    29d6:	21 e0       	ldi	r18, 0x01	; 1
    29d8:	c2 16       	cp	r12, r18
    29da:	2a e0       	ldi	r18, 0x0A	; 10
    29dc:	d2 06       	cpc	r13, r18
    29de:	e1 04       	cpc	r14, r1
    29e0:	f1 04       	cpc	r15, r1
    29e2:	08 f0       	brcs	.+2      	; 0x29e6 <recieve_command+0x150>
    29e4:	0e c2       	rjmp	.+1052   	; 0x2e02 <recieve_command+0x56c>
		{
			PID_values_inHeat.D=value;
    29e6:	c0 92 a5 01 	sts	0x01A5, r12
    29ea:	d0 92 a6 01 	sts	0x01A6, r13
    29ee:	e0 92 a7 01 	sts	0x01A7, r14
    29f2:	f0 92 a8 01 	sts	0x01A8, r15
    29f6:	05 c2       	rjmp	.+1034   	; 0x2e02 <recieve_command+0x56c>
		}
		break;
		
		case 'h':
		if ( (value>=0) && (value<=4000) )
    29f8:	81 ea       	ldi	r24, 0xA1	; 161
    29fa:	c8 16       	cp	r12, r24
    29fc:	8f e0       	ldi	r24, 0x0F	; 15
    29fe:	d8 06       	cpc	r13, r24
    2a00:	e1 04       	cpc	r14, r1
    2a02:	f1 04       	cpc	r15, r1
    2a04:	08 f0       	brcs	.+2      	; 0x2a08 <recieve_command+0x172>
    2a06:	fd c1       	rjmp	.+1018   	; 0x2e02 <recieve_command+0x56c>
		{
			PID_values_inHeat.setValue=value;
    2a08:	d0 92 9c 01 	sts	0x019C, r13
    2a0c:	c0 92 9b 01 	sts	0x019B, r12
    2a10:	f8 c1       	rjmp	.+1008   	; 0x2e02 <recieve_command+0x56c>
		}
		break;
		
		case 'i':
		if ( (value>=0) && (value<=2560) )
    2a12:	21 e0       	ldi	r18, 0x01	; 1
    2a14:	c2 16       	cp	r12, r18
    2a16:	2a e0       	ldi	r18, 0x0A	; 10
    2a18:	d2 06       	cpc	r13, r18
    2a1a:	e1 04       	cpc	r14, r1
    2a1c:	f1 04       	cpc	r15, r1
    2a1e:	08 f0       	brcs	.+2      	; 0x2a22 <recieve_command+0x18c>
    2a20:	f0 c1       	rjmp	.+992    	; 0x2e02 <recieve_command+0x56c>
		{
			PID_values_specHum_in.P=value;
    2a22:	c0 92 4d 01 	sts	0x014D, r12
    2a26:	d0 92 4e 01 	sts	0x014E, r13
    2a2a:	e0 92 4f 01 	sts	0x014F, r14
    2a2e:	f0 92 50 01 	sts	0x0150, r15
    2a32:	e7 c1       	rjmp	.+974    	; 0x2e02 <recieve_command+0x56c>
		}
		break;
		
		case 'j':
		if ( (value>=0) && (value<=2560) )
    2a34:	81 e0       	ldi	r24, 0x01	; 1
    2a36:	c8 16       	cp	r12, r24
    2a38:	8a e0       	ldi	r24, 0x0A	; 10
    2a3a:	d8 06       	cpc	r13, r24
    2a3c:	e1 04       	cpc	r14, r1
    2a3e:	f1 04       	cpc	r15, r1
    2a40:	08 f0       	brcs	.+2      	; 0x2a44 <recieve_command+0x1ae>
    2a42:	df c1       	rjmp	.+958    	; 0x2e02 <recieve_command+0x56c>
		{
			PID_values_specHum_in.I=value;
    2a44:	c0 92 51 01 	sts	0x0151, r12
    2a48:	d0 92 52 01 	sts	0x0152, r13
    2a4c:	e0 92 53 01 	sts	0x0153, r14
    2a50:	f0 92 54 01 	sts	0x0154, r15
    2a54:	d6 c1       	rjmp	.+940    	; 0x2e02 <recieve_command+0x56c>
		}
		break;
		
		case 'k':
		if ( (value>=0) && (value<=2560) )
    2a56:	21 e0       	ldi	r18, 0x01	; 1
    2a58:	c2 16       	cp	r12, r18
    2a5a:	2a e0       	ldi	r18, 0x0A	; 10
    2a5c:	d2 06       	cpc	r13, r18
    2a5e:	e1 04       	cpc	r14, r1
    2a60:	f1 04       	cpc	r15, r1
    2a62:	08 f0       	brcs	.+2      	; 0x2a66 <recieve_command+0x1d0>
    2a64:	ce c1       	rjmp	.+924    	; 0x2e02 <recieve_command+0x56c>
		{
			PID_values_specHum_in.D=value;
    2a66:	c0 92 55 01 	sts	0x0155, r12
    2a6a:	d0 92 56 01 	sts	0x0156, r13
    2a6e:	e0 92 57 01 	sts	0x0157, r14
    2a72:	f0 92 58 01 	sts	0x0158, r15
    2a76:	c5 c1       	rjmp	.+906    	; 0x2e02 <recieve_command+0x56c>
		}
		break;
		
		case 'l':
		if ( (value>=0) && (value<=40000) )
    2a78:	81 e4       	ldi	r24, 0x41	; 65
    2a7a:	c8 16       	cp	r12, r24
    2a7c:	8c e9       	ldi	r24, 0x9C	; 156
    2a7e:	d8 06       	cpc	r13, r24
    2a80:	e1 04       	cpc	r14, r1
    2a82:	f1 04       	cpc	r15, r1
    2a84:	08 f0       	brcs	.+2      	; 0x2a88 <recieve_command+0x1f2>
    2a86:	bd c1       	rjmp	.+890    	; 0x2e02 <recieve_command+0x56c>
		{
			PID_values_specHum_in.setValue=value;
    2a88:	d0 92 4c 01 	sts	0x014C, r13
    2a8c:	c0 92 4b 01 	sts	0x014B, r12
    2a90:	b8 c1       	rjmp	.+880    	; 0x2e02 <recieve_command+0x56c>
		}
		break;
		
		case 'm':
		if ( (value>=0) && (value<=255) )
    2a92:	2f ef       	ldi	r18, 0xFF	; 255
    2a94:	c2 16       	cp	r12, r18
    2a96:	d1 04       	cpc	r13, r1
    2a98:	e1 04       	cpc	r14, r1
    2a9a:	f1 04       	cpc	r15, r1
    2a9c:	11 f0       	breq	.+4      	; 0x2aa2 <recieve_command+0x20c>
    2a9e:	08 f0       	brcs	.+2      	; 0x2aa2 <recieve_command+0x20c>
    2aa0:	b0 c1       	rjmp	.+864    	; 0x2e02 <recieve_command+0x56c>
		{
			PID_values_specHum_in.min=value;
    2aa2:	d0 92 5a 01 	sts	0x015A, r13
    2aa6:	c0 92 59 01 	sts	0x0159, r12
    2aaa:	ab c1       	rjmp	.+854    	; 0x2e02 <recieve_command+0x56c>
		}
		break;
		
		case 'n':
		if ( (value>=0) && (value<=255) )
    2aac:	8f ef       	ldi	r24, 0xFF	; 255
    2aae:	c8 16       	cp	r12, r24
    2ab0:	d1 04       	cpc	r13, r1
    2ab2:	e1 04       	cpc	r14, r1
    2ab4:	f1 04       	cpc	r15, r1
    2ab6:	11 f0       	breq	.+4      	; 0x2abc <recieve_command+0x226>
    2ab8:	08 f0       	brcs	.+2      	; 0x2abc <recieve_command+0x226>
    2aba:	a3 c1       	rjmp	.+838    	; 0x2e02 <recieve_command+0x56c>
		{
			sTime.days=value;
    2abc:	c0 92 06 01 	sts	0x0106, r12
    2ac0:	a0 c1       	rjmp	.+832    	; 0x2e02 <recieve_command+0x56c>
		}
		break;
		
		case 'o':
		if ( (value>=0) && (value<=255) )
    2ac2:	2f ef       	ldi	r18, 0xFF	; 255
    2ac4:	c2 16       	cp	r12, r18
    2ac6:	d1 04       	cpc	r13, r1
    2ac8:	e1 04       	cpc	r14, r1
    2aca:	f1 04       	cpc	r15, r1
    2acc:	11 f0       	breq	.+4      	; 0x2ad2 <recieve_command+0x23c>
    2ace:	08 f0       	brcs	.+2      	; 0x2ad2 <recieve_command+0x23c>
    2ad0:	98 c1       	rjmp	.+816    	; 0x2e02 <recieve_command+0x56c>
		{
			treatment=value;
    2ad2:	c0 92 38 01 	sts	0x0138, r12
    2ad6:	95 c1       	rjmp	.+810    	; 0x2e02 <recieve_command+0x56c>
		}
		break;
		
		case 'p':
		if ( (value>=0) && (value<=255) )
    2ad8:	8f ef       	ldi	r24, 0xFF	; 255
    2ada:	c8 16       	cp	r12, r24
    2adc:	d1 04       	cpc	r13, r1
    2ade:	e1 04       	cpc	r14, r1
    2ae0:	f1 04       	cpc	r15, r1
    2ae2:	11 f0       	breq	.+4      	; 0x2ae8 <recieve_command+0x252>
    2ae4:	08 f0       	brcs	.+2      	; 0x2ae8 <recieve_command+0x252>
    2ae6:	8d c1       	rjmp	.+794    	; 0x2e02 <recieve_command+0x56c>
		{
			repetition=value;
    2ae8:	c0 92 79 01 	sts	0x0179, r12
    2aec:	8a c1       	rjmp	.+788    	; 0x2e02 <recieve_command+0x56c>
		break;
		
		
		case 'q': //read values from eprom
		{
			eprom_read();
    2aee:	0e 94 5e 0e 	call	0x1cbc	; 0x1cbc <eprom_read>
		}
		break;
    2af2:	87 c1       	rjmp	.+782    	; 0x2e02 <recieve_command+0x56c>
		
		
		case 'r':		  //set intervall for Values
		if ( (value>=1) && (value<=3600) )
    2af4:	d7 01       	movw	r26, r14
    2af6:	c6 01       	movw	r24, r12
    2af8:	01 97       	sbiw	r24, 0x01	; 1
    2afa:	a1 09       	sbc	r26, r1
    2afc:	b1 09       	sbc	r27, r1
    2afe:	80 31       	cpi	r24, 0x10	; 16
    2b00:	9e 40       	sbci	r25, 0x0E	; 14
    2b02:	a1 05       	cpc	r26, r1
    2b04:	b1 05       	cpc	r27, r1
    2b06:	08 f0       	brcs	.+2      	; 0x2b0a <recieve_command+0x274>
    2b08:	7c c1       	rjmp	.+760    	; 0x2e02 <recieve_command+0x56c>
		{
			eValues->intervall_Buffer=value;
    2b0a:	f8 01       	movw	r30, r16
    2b0c:	e3 5a       	subi	r30, 0xA3	; 163
    2b0e:	fe 4f       	sbci	r31, 0xFE	; 254
    2b10:	d1 82       	std	Z+1, r13	; 0x01
    2b12:	c0 82       	st	Z, r12
    2b14:	14 c0       	rjmp	.+40     	; 0x2b3e <recieve_command+0x2a8>
			buffer_update_flag=1;
		}
		break;
		
		case 's':		  //set delay time
		if  (value<=eValues->intervall_Buffer-10)
    2b16:	f8 01       	movw	r30, r16
    2b18:	e3 5a       	subi	r30, 0xA3	; 163
    2b1a:	fe 4f       	sbci	r31, 0xFE	; 254
    2b1c:	80 81       	ld	r24, Z
    2b1e:	91 81       	ldd	r25, Z+1	; 0x01
    2b20:	0a 97       	sbiw	r24, 0x0a	; 10
    2b22:	aa 27       	eor	r26, r26
    2b24:	97 fd       	sbrc	r25, 7
    2b26:	a0 95       	com	r26
    2b28:	ba 2f       	mov	r27, r26
    2b2a:	8c 15       	cp	r24, r12
    2b2c:	9d 05       	cpc	r25, r13
    2b2e:	ae 05       	cpc	r26, r14
    2b30:	bf 05       	cpc	r27, r15
    2b32:	0c f4       	brge	.+2      	; 0x2b36 <recieve_command+0x2a0>
    2b34:	66 c1       	rjmp	.+716    	; 0x2e02 <recieve_command+0x56c>
		{
			eValues->signalRunTimeBuffer=value;
    2b36:	f8 01       	movw	r30, r16
    2b38:	e6 5a       	subi	r30, 0xA6	; 166
    2b3a:	fe 4f       	sbci	r31, 0xFE	; 254
    2b3c:	c0 82       	st	Z, r12
			buffer_update_flag=1;
    2b3e:	81 e0       	ldi	r24, 0x01	; 1
    2b40:	80 93 a8 00 	sts	0x00A8, r24
    2b44:	5e c1       	rjmp	.+700    	; 0x2e02 <recieve_command+0x56c>
		}
		break;
		

		case 't':
		saveToEpromEnabled ^= (1<<0);
    2b46:	80 91 39 01 	lds	r24, 0x0139
    2b4a:	91 e0       	ldi	r25, 0x01	; 1
    2b4c:	89 27       	eor	r24, r25
    2b4e:	80 93 39 01 	sts	0x0139, r24
		break;
    2b52:	57 c1       	rjmp	.+686    	; 0x2e02 <recieve_command+0x56c>
		cValue[i-1]=uart_struct.uart_buffer[i];
	}
	value=atol ( (char*)cValue);


	switch(category)
    2b54:	12 e0       	ldi	r17, 0x02	; 2
		
		case 'u':
		{
			for (uint8_t i=2; i<9; i+=2)
			{
				lightValues[0]=i;
    2b56:	10 93 66 01 	sts	0x0166, r17
				sent_to_panel(lightValues);
    2b5a:	86 e6       	ldi	r24, 0x66	; 102
    2b5c:	91 e0       	ldi	r25, 0x01	; 1
    2b5e:	0e 94 84 07 	call	0xf08	; 0xf08 <sent_to_panel>
		break;
		
		
		case 'u':
		{
			for (uint8_t i=2; i<9; i+=2)
    2b62:	1e 5f       	subi	r17, 0xFE	; 254
    2b64:	1a 30       	cpi	r17, 0x0A	; 10
    2b66:	b9 f7       	brne	.-18     	; 0x2b56 <recieve_command+0x2c0>
    2b68:	4c c1       	rjmp	.+664    	; 0x2e02 <recieve_command+0x56c>
		}
		break;
		
		case 'v':
		{
			if ( (value>=0) && (value<=255) )
    2b6a:	8f ef       	ldi	r24, 0xFF	; 255
    2b6c:	c8 16       	cp	r12, r24
    2b6e:	d1 04       	cpc	r13, r1
    2b70:	e1 04       	cpc	r14, r1
    2b72:	f1 04       	cpc	r15, r1
    2b74:	11 f0       	breq	.+4      	; 0x2b7a <recieve_command+0x2e4>
    2b76:	08 f0       	brcs	.+2      	; 0x2b7a <recieve_command+0x2e4>
    2b78:	44 c1       	rjmp	.+648    	; 0x2e02 <recieve_command+0x56c>
			{
				lightValues[1]=value;
    2b7a:	c0 92 67 01 	sts	0x0167, r12
    2b7e:	41 c1       	rjmp	.+642    	; 0x2e02 <recieve_command+0x56c>
		}
		break;
		
		case 'w':
		{
			if ( (value>=0) && (value<=255) )
    2b80:	2f ef       	ldi	r18, 0xFF	; 255
    2b82:	c2 16       	cp	r12, r18
    2b84:	d1 04       	cpc	r13, r1
    2b86:	e1 04       	cpc	r14, r1
    2b88:	f1 04       	cpc	r15, r1
    2b8a:	11 f0       	breq	.+4      	; 0x2b90 <recieve_command+0x2fa>
    2b8c:	08 f0       	brcs	.+2      	; 0x2b90 <recieve_command+0x2fa>
    2b8e:	39 c1       	rjmp	.+626    	; 0x2e02 <recieve_command+0x56c>
			{
				lightValues[2]=value;
    2b90:	c0 92 68 01 	sts	0x0168, r12
    2b94:	36 c1       	rjmp	.+620    	; 0x2e02 <recieve_command+0x56c>
		}
		break;
		
		case 'x':
		{
			if ( (value>=0) && (value<=255) )
    2b96:	8f ef       	ldi	r24, 0xFF	; 255
    2b98:	c8 16       	cp	r12, r24
    2b9a:	d1 04       	cpc	r13, r1
    2b9c:	e1 04       	cpc	r14, r1
    2b9e:	f1 04       	cpc	r15, r1
    2ba0:	11 f0       	breq	.+4      	; 0x2ba6 <recieve_command+0x310>
    2ba2:	08 f0       	brcs	.+2      	; 0x2ba6 <recieve_command+0x310>
    2ba4:	2e c1       	rjmp	.+604    	; 0x2e02 <recieve_command+0x56c>
			{
				lightValues[3]=value;
    2ba6:	c0 92 69 01 	sts	0x0169, r12
    2baa:	2b c1       	rjmp	.+598    	; 0x2e02 <recieve_command+0x56c>
		}
		break;
		
		case 'y':
		{
			if ( (value>=0) && (value<=255) )
    2bac:	2f ef       	ldi	r18, 0xFF	; 255
    2bae:	c2 16       	cp	r12, r18
    2bb0:	d1 04       	cpc	r13, r1
    2bb2:	e1 04       	cpc	r14, r1
    2bb4:	f1 04       	cpc	r15, r1
    2bb6:	11 f0       	breq	.+4      	; 0x2bbc <recieve_command+0x326>
    2bb8:	08 f0       	brcs	.+2      	; 0x2bbc <recieve_command+0x326>
    2bba:	23 c1       	rjmp	.+582    	; 0x2e02 <recieve_command+0x56c>
			{
				lightValues[4]=value;
    2bbc:	c0 92 6a 01 	sts	0x016A, r12
    2bc0:	20 c1       	rjmp	.+576    	; 0x2e02 <recieve_command+0x56c>
			//FREI
		}
		break;
		
		case 'A':
		if ( (value>=0) && (value<=10000) )
    2bc2:	81 e1       	ldi	r24, 0x11	; 17
    2bc4:	c8 16       	cp	r12, r24
    2bc6:	87 e2       	ldi	r24, 0x27	; 39
    2bc8:	d8 06       	cpc	r13, r24
    2bca:	e1 04       	cpc	r14, r1
    2bcc:	f1 04       	cpc	r15, r1
    2bce:	08 f0       	brcs	.+2      	; 0x2bd2 <recieve_command+0x33c>
    2bd0:	18 c1       	rjmp	.+560    	; 0x2e02 <recieve_command+0x56c>
		{
			PID_values_co2.setValue = value;
    2bd2:	d0 92 f2 00 	sts	0x00F2, r13
    2bd6:	c0 92 f1 00 	sts	0x00F1, r12
    2bda:	13 c1       	rjmp	.+550    	; 0x2e02 <recieve_command+0x56c>
		}
		break;
		
		case 'B':
		if ( (value>=0) && (value<=10000) )
    2bdc:	21 e1       	ldi	r18, 0x11	; 17
    2bde:	c2 16       	cp	r12, r18
    2be0:	27 e2       	ldi	r18, 0x27	; 39
    2be2:	d2 06       	cpc	r13, r18
    2be4:	e1 04       	cpc	r14, r1
    2be6:	f1 04       	cpc	r15, r1
    2be8:	08 f0       	brcs	.+2      	; 0x2bec <recieve_command+0x356>
    2bea:	0b c1       	rjmp	.+534    	; 0x2e02 <recieve_command+0x56c>
		{
			PID_values_vpd_in.setValue=value;
    2bec:	d0 92 bb 00 	sts	0x00BB, r13
    2bf0:	c0 92 ba 00 	sts	0x00BA, r12
    2bf4:	06 c1       	rjmp	.+524    	; 0x2e02 <recieve_command+0x56c>
		}
		break;
		
		case 'C':
		if ( (value>=1) && (value<=2) )
    2bf6:	d7 01       	movw	r26, r14
    2bf8:	c6 01       	movw	r24, r12
    2bfa:	01 97       	sbiw	r24, 0x01	; 1
    2bfc:	a1 09       	sbc	r26, r1
    2bfe:	b1 09       	sbc	r27, r1
    2c00:	02 97       	sbiw	r24, 0x02	; 2
    2c02:	a1 05       	cpc	r26, r1
    2c04:	b1 05       	cpc	r27, r1
    2c06:	08 f0       	brcs	.+2      	; 0x2c0a <recieve_command+0x374>
    2c08:	fc c0       	rjmp	.+504    	; 0x2e02 <recieve_command+0x56c>
		{
			HUMmode=value;
    2c0a:	c0 92 86 00 	sts	0x0086, r12
    2c0e:	f9 c0       	rjmp	.+498    	; 0x2e02 <recieve_command+0x56c>
		}
		break;
		
		case 'D':
		{
			memoryAdress=64;
    2c10:	80 e4       	ldi	r24, 0x40	; 64
    2c12:	90 e0       	ldi	r25, 0x00	; 0
    2c14:	a0 e0       	ldi	r26, 0x00	; 0
    2c16:	b0 e0       	ldi	r27, 0x00	; 0
    2c18:	80 93 70 01 	sts	0x0170, r24
    2c1c:	90 93 71 01 	sts	0x0171, r25
    2c20:	a0 93 72 01 	sts	0x0172, r26
    2c24:	b0 93 73 01 	sts	0x0173, r27
		}
		break;
    2c28:	ec c0       	rjmp	.+472    	; 0x2e02 <recieve_command+0x56c>
		
		case 'E':
		{
			if ( (value>=0) && (value<=100) )
    2c2a:	85 e6       	ldi	r24, 0x65	; 101
    2c2c:	c8 16       	cp	r12, r24
    2c2e:	d1 04       	cpc	r13, r1
    2c30:	e1 04       	cpc	r14, r1
    2c32:	f1 04       	cpc	r15, r1
    2c34:	08 f0       	brcs	.+2      	; 0x2c38 <recieve_command+0x3a2>
    2c36:	e5 c0       	rjmp	.+458    	; 0x2e02 <recieve_command+0x56c>
			{
				TIMER3.OCRA=value;
    2c38:	c0 92 75 01 	sts	0x0175, r12
    2c3c:	e2 c0       	rjmp	.+452    	; 0x2e02 <recieve_command+0x56c>
		}
		break;
		
		case 'F':
		{
			if ( (value>=0) && (value<=100) )
    2c3e:	25 e6       	ldi	r18, 0x65	; 101
    2c40:	c2 16       	cp	r12, r18
    2c42:	d1 04       	cpc	r13, r1
    2c44:	e1 04       	cpc	r14, r1
    2c46:	f1 04       	cpc	r15, r1
    2c48:	08 f0       	brcs	.+2      	; 0x2c4c <recieve_command+0x3b6>
    2c4a:	db c0       	rjmp	.+438    	; 0x2e02 <recieve_command+0x56c>
			{
				TIMER3.OCRB=value;
    2c4c:	c0 92 76 01 	sts	0x0176, r12
    2c50:	d8 c0       	rjmp	.+432    	; 0x2e02 <recieve_command+0x56c>
		}
		break;
		
		case 'G':
		{
			if ( (value>=0) && (value<=100) )
    2c52:	85 e6       	ldi	r24, 0x65	; 101
    2c54:	c8 16       	cp	r12, r24
    2c56:	d1 04       	cpc	r13, r1
    2c58:	e1 04       	cpc	r14, r1
    2c5a:	f1 04       	cpc	r15, r1
    2c5c:	08 f0       	brcs	.+2      	; 0x2c60 <recieve_command+0x3ca>
    2c5e:	d1 c0       	rjmp	.+418    	; 0x2e02 <recieve_command+0x56c>
			{
				TIMER3.OCRC=value;
    2c60:	c0 92 77 01 	sts	0x0177, r12
    2c64:	ce c0       	rjmp	.+412    	; 0x2e02 <recieve_command+0x56c>
		}
		break;
		
		case 'H':
		{
			if ( (value>=0) && (value<=100) )
    2c66:	25 e6       	ldi	r18, 0x65	; 101
    2c68:	c2 16       	cp	r12, r18
    2c6a:	d1 04       	cpc	r13, r1
    2c6c:	e1 04       	cpc	r14, r1
    2c6e:	f1 04       	cpc	r15, r1
    2c70:	08 f0       	brcs	.+2      	; 0x2c74 <recieve_command+0x3de>
    2c72:	c7 c0       	rjmp	.+398    	; 0x2e02 <recieve_command+0x56c>
			{
				TIMER3.OCRD=value;
    2c74:	c0 92 78 01 	sts	0x0178, r12
    2c78:	c4 c0       	rjmp	.+392    	; 0x2e02 <recieve_command+0x56c>
		
		// I bis J FREI
		
		case 'K':
		{
			if (value==0)
    2c7a:	c1 14       	cp	r12, r1
    2c7c:	d1 04       	cpc	r13, r1
    2c7e:	e1 04       	cpc	r14, r1
    2c80:	f1 04       	cpc	r15, r1
    2c82:	19 f4       	brne	.+6      	; 0x2c8a <recieve_command+0x3f4>
			{
				stop_and_reset_program(&spec_hum_in_program);
    2c84:	8c e7       	ldi	r24, 0x7C	; 124
    2c86:	91 e0       	ldi	r25, 0x01	; 1
    2c88:	20 c0       	rjmp	.+64     	; 0x2cca <recieve_command+0x434>
			}
			else if ( (value>=10) && (value<=43200) )
    2c8a:	d7 01       	movw	r26, r14
    2c8c:	c6 01       	movw	r24, r12
    2c8e:	0a 97       	sbiw	r24, 0x0a	; 10
    2c90:	a1 09       	sbc	r26, r1
    2c92:	b1 09       	sbc	r27, r1
    2c94:	87 3b       	cpi	r24, 0xB7	; 183
    2c96:	98 4a       	sbci	r25, 0xA8	; 168
    2c98:	a1 05       	cpc	r26, r1
    2c9a:	b1 05       	cpc	r27, r1
    2c9c:	08 f0       	brcs	.+2      	; 0x2ca0 <recieve_command+0x40a>
    2c9e:	b1 c0       	rjmp	.+354    	; 0x2e02 <recieve_command+0x56c>
			{
				stop_and_reset_program(&vpd_in_program);
    2ca0:	80 eb       	ldi	r24, 0xB0	; 176
    2ca2:	91 e0       	ldi	r25, 0x01	; 1
    2ca4:	0e 94 af 00 	call	0x15e	; 0x15e <stop_and_reset_program>
				set_program(&spec_hum_in_program,5000,18000,3000,value);
    2ca8:	86 01       	movw	r16, r12
    2caa:	28 eb       	ldi	r18, 0xB8	; 184
    2cac:	3b e0       	ldi	r19, 0x0B	; 11
    2cae:	40 e5       	ldi	r20, 0x50	; 80
    2cb0:	56 e4       	ldi	r21, 0x46	; 70
    2cb2:	68 e8       	ldi	r22, 0x88	; 136
    2cb4:	73 e1       	ldi	r23, 0x13	; 19
    2cb6:	8c e7       	ldi	r24, 0x7C	; 124
    2cb8:	91 e0       	ldi	r25, 0x01	; 1
    2cba:	1e c0       	rjmp	.+60     	; 0x2cf8 <recieve_command+0x462>
		}
		break;
		
		case 'L':
		{
			if (value==0)
    2cbc:	c1 14       	cp	r12, r1
    2cbe:	d1 04       	cpc	r13, r1
    2cc0:	e1 04       	cpc	r14, r1
    2cc2:	f1 04       	cpc	r15, r1
    2cc4:	29 f4       	brne	.+10     	; 0x2cd0 <recieve_command+0x43a>
			{
				stop_and_reset_program(&preHeat_program);
    2cc6:	8f ec       	ldi	r24, 0xCF	; 207
    2cc8:	90 e0       	ldi	r25, 0x00	; 0
    2cca:	0e 94 af 00 	call	0x15e	; 0x15e <stop_and_reset_program>
    2cce:	99 c0       	rjmp	.+306    	; 0x2e02 <recieve_command+0x56c>
			}
			else if ( (value>=10) && (value<=43200) )
    2cd0:	d7 01       	movw	r26, r14
    2cd2:	c6 01       	movw	r24, r12
    2cd4:	0a 97       	sbiw	r24, 0x0a	; 10
    2cd6:	a1 09       	sbc	r26, r1
    2cd8:	b1 09       	sbc	r27, r1
    2cda:	87 3b       	cpi	r24, 0xB7	; 183
    2cdc:	98 4a       	sbci	r25, 0xA8	; 168
    2cde:	a1 05       	cpc	r26, r1
    2ce0:	b1 05       	cpc	r27, r1
    2ce2:	08 f0       	brcs	.+2      	; 0x2ce6 <recieve_command+0x450>
    2ce4:	8e c0       	rjmp	.+284    	; 0x2e02 <recieve_command+0x56c>
			{
				set_program(&preHeat_program,2800,3200,100,value);
    2ce6:	86 01       	movw	r16, r12
    2ce8:	24 e6       	ldi	r18, 0x64	; 100
    2cea:	30 e0       	ldi	r19, 0x00	; 0
    2cec:	40 e8       	ldi	r20, 0x80	; 128
    2cee:	5c e0       	ldi	r21, 0x0C	; 12
    2cf0:	60 ef       	ldi	r22, 0xF0	; 240
    2cf2:	7a e0       	ldi	r23, 0x0A	; 10
    2cf4:	8f ec       	ldi	r24, 0xCF	; 207
    2cf6:	90 e0       	ldi	r25, 0x00	; 0
    2cf8:	0e 94 9a 00 	call	0x134	; 0x134 <set_program>
    2cfc:	82 c0       	rjmp	.+260    	; 0x2e02 <recieve_command+0x56c>
		}
		break;
		
		case 'M':
		{
			if (value==0)
    2cfe:	c1 14       	cp	r12, r1
    2d00:	d1 04       	cpc	r13, r1
    2d02:	e1 04       	cpc	r14, r1
    2d04:	f1 04       	cpc	r15, r1
    2d06:	19 f4       	brne	.+6      	; 0x2d0e <recieve_command+0x478>
			{
				stop_and_reset_program(&inHeat_program);
    2d08:	83 ec       	ldi	r24, 0xC3	; 195
    2d0a:	91 e0       	ldi	r25, 0x01	; 1
    2d0c:	de cf       	rjmp	.-68     	; 0x2cca <recieve_command+0x434>
			}
			else if ( (value>=10) && (value<=43200) )
    2d0e:	d7 01       	movw	r26, r14
    2d10:	c6 01       	movw	r24, r12
    2d12:	0a 97       	sbiw	r24, 0x0a	; 10
    2d14:	a1 09       	sbc	r26, r1
    2d16:	b1 09       	sbc	r27, r1
    2d18:	87 3b       	cpi	r24, 0xB7	; 183
    2d1a:	98 4a       	sbci	r25, 0xA8	; 168
    2d1c:	a1 05       	cpc	r26, r1
    2d1e:	b1 05       	cpc	r27, r1
    2d20:	08 f0       	brcs	.+2      	; 0x2d24 <recieve_command+0x48e>
    2d22:	6f c0       	rjmp	.+222    	; 0x2e02 <recieve_command+0x56c>
			{
				set_program(&inHeat_program,2800,3200,50,value);
    2d24:	86 01       	movw	r16, r12
    2d26:	22 e3       	ldi	r18, 0x32	; 50
    2d28:	30 e0       	ldi	r19, 0x00	; 0
    2d2a:	40 e8       	ldi	r20, 0x80	; 128
    2d2c:	5c e0       	ldi	r21, 0x0C	; 12
    2d2e:	60 ef       	ldi	r22, 0xF0	; 240
    2d30:	7a e0       	ldi	r23, 0x0A	; 10
    2d32:	83 ec       	ldi	r24, 0xC3	; 195
    2d34:	91 e0       	ldi	r25, 0x01	; 1
    2d36:	e0 cf       	rjmp	.-64     	; 0x2cf8 <recieve_command+0x462>
		}
		break;

		case 'N':
		{
			if (value==0)
    2d38:	c1 14       	cp	r12, r1
    2d3a:	d1 04       	cpc	r13, r1
    2d3c:	e1 04       	cpc	r14, r1
    2d3e:	f1 04       	cpc	r15, r1
    2d40:	19 f4       	brne	.+6      	; 0x2d48 <recieve_command+0x4b2>
			{
				stop_and_reset_program(&vpd_in_program);
    2d42:	80 eb       	ldi	r24, 0xB0	; 176
    2d44:	91 e0       	ldi	r25, 0x01	; 1
    2d46:	c1 cf       	rjmp	.-126    	; 0x2cca <recieve_command+0x434>
			}
			else if ( (value>=10) && (value<=43200) )
    2d48:	d7 01       	movw	r26, r14
    2d4a:	c6 01       	movw	r24, r12
    2d4c:	0a 97       	sbiw	r24, 0x0a	; 10
    2d4e:	a1 09       	sbc	r26, r1
    2d50:	b1 09       	sbc	r27, r1
    2d52:	87 3b       	cpi	r24, 0xB7	; 183
    2d54:	98 4a       	sbci	r25, 0xA8	; 168
    2d56:	a1 05       	cpc	r26, r1
    2d58:	b1 05       	cpc	r27, r1
    2d5a:	08 f0       	brcs	.+2      	; 0x2d5e <recieve_command+0x4c8>
    2d5c:	52 c0       	rjmp	.+164    	; 0x2e02 <recieve_command+0x56c>
			{
				stop_and_reset_program(&spec_hum_in_program);
    2d5e:	8c e7       	ldi	r24, 0x7C	; 124
    2d60:	91 e0       	ldi	r25, 0x01	; 1
    2d62:	0e 94 af 00 	call	0x15e	; 0x15e <stop_and_reset_program>
				set_program(&vpd_in_program,500,4000,100,value);
    2d66:	86 01       	movw	r16, r12
    2d68:	24 e6       	ldi	r18, 0x64	; 100
    2d6a:	30 e0       	ldi	r19, 0x00	; 0
    2d6c:	40 ea       	ldi	r20, 0xA0	; 160
    2d6e:	5f e0       	ldi	r21, 0x0F	; 15
    2d70:	64 ef       	ldi	r22, 0xF4	; 244
    2d72:	71 e0       	ldi	r23, 0x01	; 1
    2d74:	80 eb       	ldi	r24, 0xB0	; 176
    2d76:	91 e0       	ldi	r25, 0x01	; 1
    2d78:	bf cf       	rjmp	.-130    	; 0x2cf8 <recieve_command+0x462>
			}
		}
		break;
				
		case 'X': //External (!) set intervall value of sender 1
		if (value>=0 && value<=86399)
    2d7a:	80 e8       	ldi	r24, 0x80	; 128
    2d7c:	c8 16       	cp	r12, r24
    2d7e:	81 e5       	ldi	r24, 0x51	; 81
    2d80:	d8 06       	cpc	r13, r24
    2d82:	81 e0       	ldi	r24, 0x01	; 1
    2d84:	e8 06       	cpc	r14, r24
    2d86:	f1 04       	cpc	r15, r1
    2d88:	e0 f5       	brcc	.+120    	; 0x2e02 <recieve_command+0x56c>
		{
			CANMessage intervallMessage;
			intervallMessage.id = (uint16_t) (1<<4);  //set sender ID
    2d8a:	80 e1       	ldi	r24, 0x10	; 16
    2d8c:	90 e0       	ldi	r25, 0x00	; 0
    2d8e:	9a 83       	std	Y+2, r25	; 0x02
    2d90:	89 83       	std	Y+1, r24	; 0x01
			intervallMessage.rtr = 0;
    2d92:	1b 82       	std	Y+3, r1	; 0x03
			intervallMessage.length = 5;
    2d94:	85 e0       	ldi	r24, 0x05	; 5
    2d96:	8c 83       	std	Y+4, r24	; 0x04
			intervallMessage.data[0]=2;	//set intervall
    2d98:	82 e0       	ldi	r24, 0x02	; 2
    2d9a:	8d 83       	std	Y+5, r24	; 0x05
			intervallMessage.data[1]=(uint8_t)(value>>16);//intervall value...
    2d9c:	ee 82       	std	Y+6, r14	; 0x06
			intervallMessage.data[2]=(uint8_t)(value>>8);
    2d9e:	df 82       	std	Y+7, r13	; 0x07
			intervallMessage.data[3]=(uint8_t)value;
    2da0:	c8 86       	std	Y+8, r12	; 0x08
			uint8_t count=0;
    2da2:	10 e0       	ldi	r17, 0x00	; 0
			while(!(can_send_message(&intervallMessage)) & (count<10) )
    2da4:	01 c0       	rjmp	.+2      	; 0x2da8 <recieve_command+0x512>
			{
				count++;
    2da6:	1f 5f       	subi	r17, 0xFF	; 255
			intervallMessage.data[0]=2;	//set intervall
			intervallMessage.data[1]=(uint8_t)(value>>16);//intervall value...
			intervallMessage.data[2]=(uint8_t)(value>>8);
			intervallMessage.data[3]=(uint8_t)value;
			uint8_t count=0;
			while(!(can_send_message(&intervallMessage)) & (count<10) )
    2da8:	ce 01       	movw	r24, r28
    2daa:	01 96       	adiw	r24, 0x01	; 1
    2dac:	0e 94 6d 05 	call	0xada	; 0xada <can_send_message>
    2db0:	1a 30       	cpi	r17, 0x0A	; 10
    2db2:	38 f5       	brcc	.+78     	; 0x2e02 <recieve_command+0x56c>
    2db4:	88 23       	and	r24, r24
    2db6:	b9 f3       	breq	.-18     	; 0x2da6 <recieve_command+0x510>
    2db8:	24 c0       	rjmp	.+72     	; 0x2e02 <recieve_command+0x56c>
		

		
		
		case 'Z': //set External (!) intervall value of sender 2
		if (value>=0 && value<=86399)
    2dba:	20 e8       	ldi	r18, 0x80	; 128
    2dbc:	c2 16       	cp	r12, r18
    2dbe:	21 e5       	ldi	r18, 0x51	; 81
    2dc0:	d2 06       	cpc	r13, r18
    2dc2:	21 e0       	ldi	r18, 0x01	; 1
    2dc4:	e2 06       	cpc	r14, r18
    2dc6:	f1 04       	cpc	r15, r1
    2dc8:	e0 f4       	brcc	.+56     	; 0x2e02 <recieve_command+0x56c>
		{
			CANMessage intervallMessage;
			intervallMessage.id = (uint16_t) (2<<4);  //set sender ID
    2dca:	80 e2       	ldi	r24, 0x20	; 32
    2dcc:	90 e0       	ldi	r25, 0x00	; 0
    2dce:	9a 83       	std	Y+2, r25	; 0x02
    2dd0:	89 83       	std	Y+1, r24	; 0x01
			intervallMessage.rtr = 0;
    2dd2:	1b 82       	std	Y+3, r1	; 0x03
			intervallMessage.length = 5;
    2dd4:	85 e0       	ldi	r24, 0x05	; 5
    2dd6:	8c 83       	std	Y+4, r24	; 0x04
			intervallMessage.data[0]=2;	//set intervall
    2dd8:	82 e0       	ldi	r24, 0x02	; 2
    2dda:	8d 83       	std	Y+5, r24	; 0x05
			intervallMessage.data[1]=(uint8_t)(value>>16);//intervall value...
    2ddc:	ee 82       	std	Y+6, r14	; 0x06
			intervallMessage.data[2]=(uint8_t)(value>>8);
    2dde:	df 82       	std	Y+7, r13	; 0x07
			intervallMessage.data[3]=(uint8_t)value;
    2de0:	c8 86       	std	Y+8, r12	; 0x08
			uint8_t count=0;
    2de2:	10 e0       	ldi	r17, 0x00	; 0
			while(!(can_send_message(&intervallMessage)) & (count<10) )
    2de4:	01 c0       	rjmp	.+2      	; 0x2de8 <recieve_command+0x552>
			{
				count++;
    2de6:	1f 5f       	subi	r17, 0xFF	; 255
			intervallMessage.data[0]=2;	//set intervall
			intervallMessage.data[1]=(uint8_t)(value>>16);//intervall value...
			intervallMessage.data[2]=(uint8_t)(value>>8);
			intervallMessage.data[3]=(uint8_t)value;
			uint8_t count=0;
			while(!(can_send_message(&intervallMessage)) & (count<10) )
    2de8:	ce 01       	movw	r24, r28
    2dea:	01 96       	adiw	r24, 0x01	; 1
    2dec:	0e 94 6d 05 	call	0xada	; 0xada <can_send_message>
    2df0:	1a 30       	cpi	r17, 0x0A	; 10
    2df2:	38 f4       	brcc	.+14     	; 0x2e02 <recieve_command+0x56c>
    2df4:	88 23       	and	r24, r24
    2df6:	b9 f3       	breq	.-18     	; 0x2de6 <recieve_command+0x550>
    2df8:	04 c0       	rjmp	.+8      	; 0x2e02 <recieve_command+0x56c>
		
		#ifdef Special_Functions
		#endif
		
		default:
		uart_put_s("bullshit string");
    2dfa:	80 e6       	ldi	r24, 0x60	; 96
    2dfc:	90 e0       	ldi	r25, 0x00	; 0
    2dfe:	0e 94 3b 1a 	call	0x3476	; 0x3476 <uart_put_s>
	}
	uart_struct.uart_state=no_string;
    2e02:	10 92 70 00 	sts	0x0070, r1
}
    2e06:	65 96       	adiw	r28, 0x15	; 21
    2e08:	0f b6       	in	r0, 0x3f	; 63
    2e0a:	f8 94       	cli
    2e0c:	de bf       	out	0x3e, r29	; 62
    2e0e:	0f be       	out	0x3f, r0	; 63
    2e10:	cd bf       	out	0x3d, r28	; 61
    2e12:	df 91       	pop	r29
    2e14:	cf 91       	pop	r28
    2e16:	1f 91       	pop	r17
    2e18:	0f 91       	pop	r16
    2e1a:	ff 90       	pop	r15
    2e1c:	ef 90       	pop	r14
    2e1e:	df 90       	pop	r13
    2e20:	cf 90       	pop	r12
    2e22:	bf 90       	pop	r11
    2e24:	08 95       	ret

00002e26 <calculate_pid>:

#include "include/regelung.h"


uint8_t calculate_pid(PID_values* values, int16_t temp)
{
    2e26:	4f 92       	push	r4
    2e28:	5f 92       	push	r5
    2e2a:	6f 92       	push	r6
    2e2c:	7f 92       	push	r7
    2e2e:	9f 92       	push	r9
    2e30:	af 92       	push	r10
    2e32:	bf 92       	push	r11
    2e34:	cf 92       	push	r12
    2e36:	df 92       	push	r13
    2e38:	ef 92       	push	r14
    2e3a:	ff 92       	push	r15
    2e3c:	0f 93       	push	r16
    2e3e:	1f 93       	push	r17
    2e40:	cf 93       	push	r28
    2e42:	df 93       	push	r29
    2e44:	ec 01       	movw	r28, r24
	if (values->invert)
    2e46:	9b a0       	ldd	r9, Y+35	; 0x23
    2e48:	99 20       	and	r9, r9
    2e4a:	51 f0       	breq	.+20     	; 0x2e60 <calculate_pid+0x3a>
	{
		temp=temp*-1;
    2e4c:	71 95       	neg	r23
    2e4e:	61 95       	neg	r22
    2e50:	71 09       	sbc	r23, r1
		values->setValue=values->setValue*-1;
    2e52:	8f 85       	ldd	r24, Y+15	; 0x0f
    2e54:	98 89       	ldd	r25, Y+16	; 0x10
    2e56:	91 95       	neg	r25
    2e58:	81 95       	neg	r24
    2e5a:	91 09       	sbc	r25, r1
    2e5c:	98 8b       	std	Y+16, r25	; 0x10
    2e5e:	8f 87       	std	Y+15, r24	; 0x0f
	}
	
	if ( (values->setValue - temp ) >values->deadband)
    2e60:	af 84       	ldd	r10, Y+15	; 0x0f
    2e62:	b8 88       	ldd	r11, Y+16	; 0x10
    2e64:	85 01       	movw	r16, r10
    2e66:	06 1b       	sub	r16, r22
    2e68:	17 0b       	sbc	r17, r23
    2e6a:	8f 8d       	ldd	r24, Y+31	; 0x1f
    2e6c:	98 a1       	ldd	r25, Y+32	; 0x20
    2e6e:	80 17       	cp	r24, r16
    2e70:	91 07       	cpc	r25, r17
    2e72:	0c f4       	brge	.+2      	; 0x2e76 <calculate_pid+0x50>
    2e74:	d2 c0       	rjmp	.+420    	; 0x301a <calculate_pid+0x1f4>
	{
		values->pidoutput=65534;
	}
	else if ( (values->setValue - temp) < 0 - values->deadband)
    2e76:	91 95       	neg	r25
    2e78:	81 95       	neg	r24
    2e7a:	91 09       	sbc	r25, r1
    2e7c:	08 17       	cp	r16, r24
    2e7e:	19 07       	cpc	r17, r25
    2e80:	0c f4       	brge	.+2      	; 0x2e84 <calculate_pid+0x5e>
    2e82:	d6 c0       	rjmp	.+428    	; 0x3030 <calculate_pid+0x20a>
		values->pidoutput=0;
	}

	else
	{
		values->err[2] = values->err[1];
    2e84:	8a 81       	ldd	r24, Y+2	; 0x02
    2e86:	9b 81       	ldd	r25, Y+3	; 0x03
    2e88:	9d 83       	std	Y+5, r25	; 0x05
    2e8a:	8c 83       	std	Y+4, r24	; 0x04
		values->err[1] = values->err[0];
    2e8c:	88 81       	ld	r24, Y
    2e8e:	99 81       	ldd	r25, Y+1	; 0x01
    2e90:	9b 83       	std	Y+3, r25	; 0x03
    2e92:	8a 83       	std	Y+2, r24	; 0x02
		values->err[0] = values->setValue - temp;
    2e94:	19 83       	std	Y+1, r17	; 0x01
    2e96:	08 83       	st	Y, r16
    2e98:	98 01       	movw	r18, r16
    2e9a:	44 27       	eor	r20, r20
    2e9c:	37 fd       	sbrc	r19, 7
    2e9e:	40 95       	com	r20
    2ea0:	54 2f       	mov	r21, r20
		
		if ( ( (values->err[0]>0) && (values->err[1]<0) ) || ( (values->err[0]<0) && (values->err[1]>0) ) || ( (values->err[0]==0) ) )
    2ea2:	10 16       	cp	r1, r16
    2ea4:	11 06       	cpc	r1, r17
    2ea6:	1c f4       	brge	.+6      	; 0x2eae <calculate_pid+0x88>
    2ea8:	97 ff       	sbrs	r25, 7
    2eaa:	0c c0       	rjmp	.+24     	; 0x2ec4 <calculate_pid+0x9e>
    2eac:	06 c0       	rjmp	.+12     	; 0x2eba <calculate_pid+0x94>
    2eae:	01 15       	cp	r16, r1
    2eb0:	11 05       	cpc	r17, r1
    2eb2:	19 f0       	breq	.+6      	; 0x2eba <calculate_pid+0x94>
    2eb4:	18 16       	cp	r1, r24
    2eb6:	19 06       	cpc	r1, r25
    2eb8:	2c f4       	brge	.+10     	; 0x2ec4 <calculate_pid+0x9e>
		{
			values->esum=0;
    2eba:	1f 82       	std	Y+7, r1	; 0x07
    2ebc:	18 86       	std	Y+8, r1	; 0x08
    2ebe:	19 86       	std	Y+9, r1	; 0x09
    2ec0:	1a 86       	std	Y+10, r1	; 0x0a
    2ec2:	1d c0       	rjmp	.+58     	; 0x2efe <calculate_pid+0xd8>
		}
		else if ( (values->esum < 1000) && (values->esum > -1000) )
    2ec4:	8f 81       	ldd	r24, Y+7	; 0x07
    2ec6:	98 85       	ldd	r25, Y+8	; 0x08
    2ec8:	a9 85       	ldd	r26, Y+9	; 0x09
    2eca:	ba 85       	ldd	r27, Y+10	; 0x0a
    2ecc:	77 ee       	ldi	r23, 0xE7	; 231
    2ece:	c7 2e       	mov	r12, r23
    2ed0:	73 e0       	ldi	r23, 0x03	; 3
    2ed2:	d7 2e       	mov	r13, r23
    2ed4:	e1 2c       	mov	r14, r1
    2ed6:	f1 2c       	mov	r15, r1
    2ed8:	c8 0e       	add	r12, r24
    2eda:	d9 1e       	adc	r13, r25
    2edc:	ea 1e       	adc	r14, r26
    2ede:	fb 1e       	adc	r15, r27
    2ee0:	6f ec       	ldi	r22, 0xCF	; 207
    2ee2:	c6 16       	cp	r12, r22
    2ee4:	67 e0       	ldi	r22, 0x07	; 7
    2ee6:	d6 06       	cpc	r13, r22
    2ee8:	e1 04       	cpc	r14, r1
    2eea:	f1 04       	cpc	r15, r1
    2eec:	40 f4       	brcc	.+16     	; 0x2efe <calculate_pid+0xd8>
		{
			values->esum+=values->err[0];
    2eee:	82 0f       	add	r24, r18
    2ef0:	93 1f       	adc	r25, r19
    2ef2:	a4 1f       	adc	r26, r20
    2ef4:	b5 1f       	adc	r27, r21
    2ef6:	8f 83       	std	Y+7, r24	; 0x07
    2ef8:	98 87       	std	Y+8, r25	; 0x08
    2efa:	a9 87       	std	Y+9, r26	; 0x09
    2efc:	ba 87       	std	Y+10, r27	; 0x0a
		}

		
		int32_t P_value = ( values->P *  ( values->err[0]) ) /values->scale;
    2efe:	49 a0       	ldd	r4, Y+33	; 0x21
    2f00:	5a a0       	ldd	r5, Y+34	; 0x22
    2f02:	66 24       	eor	r6, r6
    2f04:	57 fc       	sbrc	r5, 7
    2f06:	60 94       	com	r6
    2f08:	76 2c       	mov	r7, r6
    2f0a:	69 89       	ldd	r22, Y+17	; 0x11
    2f0c:	7a 89       	ldd	r23, Y+18	; 0x12
    2f0e:	8b 89       	ldd	r24, Y+19	; 0x13
    2f10:	9c 89       	ldd	r25, Y+20	; 0x14
    2f12:	0e 94 a0 1a 	call	0x3540	; 0x3540 <__mulsi3>
    2f16:	a3 01       	movw	r20, r6
    2f18:	92 01       	movw	r18, r4
    2f1a:	0e 94 b0 1a 	call	0x3560	; 0x3560 <__divmodsi4>
    2f1e:	69 01       	movw	r12, r18
    2f20:	7a 01       	movw	r14, r20
    2f22:	c1 14       	cp	r12, r1
    2f24:	8e ef       	ldi	r24, 0xFE	; 254
    2f26:	d8 06       	cpc	r13, r24
    2f28:	8f ef       	ldi	r24, 0xFF	; 255
    2f2a:	e8 06       	cpc	r14, r24
    2f2c:	f8 06       	cpc	r15, r24
    2f2e:	34 f4       	brge	.+12     	; 0x2f3c <calculate_pid+0x116>
    2f30:	c1 2c       	mov	r12, r1
    2f32:	6e ef       	ldi	r22, 0xFE	; 254
    2f34:	d6 2e       	mov	r13, r22
    2f36:	ee 24       	eor	r14, r14
    2f38:	ea 94       	dec	r14
    2f3a:	fe 2c       	mov	r15, r14
		else if (P_value< (-512) )
		{
			P_value=-512;
		}
		
		int32_t I_value = (values->I * ( values->esum ) ) /values->scale;
    2f3c:	2d 89       	ldd	r18, Y+21	; 0x15
    2f3e:	3e 89       	ldd	r19, Y+22	; 0x16
    2f40:	4f 89       	ldd	r20, Y+23	; 0x17
    2f42:	58 8d       	ldd	r21, Y+24	; 0x18
    2f44:	6f 81       	ldd	r22, Y+7	; 0x07
    2f46:	78 85       	ldd	r23, Y+8	; 0x08
    2f48:	89 85       	ldd	r24, Y+9	; 0x09
    2f4a:	9a 85       	ldd	r25, Y+10	; 0x0a
    2f4c:	0e 94 a0 1a 	call	0x3540	; 0x3540 <__mulsi3>
    2f50:	a3 01       	movw	r20, r6
    2f52:	92 01       	movw	r18, r4
    2f54:	0e 94 b0 1a 	call	0x3560	; 0x3560 <__divmodsi4>
    2f58:	29 01       	movw	r4, r18
    2f5a:	3a 01       	movw	r6, r20
    2f5c:	41 14       	cp	r4, r1
    2f5e:	2f ef       	ldi	r18, 0xFF	; 255
    2f60:	52 06       	cpc	r5, r18
    2f62:	62 06       	cpc	r6, r18
    2f64:	72 06       	cpc	r7, r18
    2f66:	2c f4       	brge	.+10     	; 0x2f72 <calculate_pid+0x14c>
    2f68:	41 2c       	mov	r4, r1
    2f6a:	55 24       	eor	r5, r5
    2f6c:	5a 94       	dec	r5
    2f6e:	65 2c       	mov	r6, r5
    2f70:	75 2c       	mov	r7, r5
		else if (I_value< -256 )
		{
			I_value=-256;
		}
		
		int32_t D_value = (values->D * ( values->err[0] - values->err[values->tau] ) );
    2f72:	8e 81       	ldd	r24, Y+6	; 0x06
    2f74:	fe 01       	movw	r30, r28
    2f76:	e8 0f       	add	r30, r24
    2f78:	f1 1d       	adc	r31, r1
    2f7a:	e8 0f       	add	r30, r24
    2f7c:	f1 1d       	adc	r31, r1
    2f7e:	80 81       	ld	r24, Z
    2f80:	91 81       	ldd	r25, Z+1	; 0x01
    2f82:	d8 01       	movw	r26, r16
    2f84:	a8 1b       	sub	r26, r24
    2f86:	b9 0b       	sbc	r27, r25
    2f88:	29 8d       	ldd	r18, Y+25	; 0x19
    2f8a:	3a 8d       	ldd	r19, Y+26	; 0x1a
    2f8c:	4b 8d       	ldd	r20, Y+27	; 0x1b
    2f8e:	5c 8d       	ldd	r21, Y+28	; 0x1c
    2f90:	0e 94 dd 1a 	call	0x35ba	; 0x35ba <__mulshisi3>
    2f94:	61 15       	cp	r22, r1
    2f96:	2c ef       	ldi	r18, 0xFC	; 252
    2f98:	72 07       	cpc	r23, r18
    2f9a:	2f ef       	ldi	r18, 0xFF	; 255
    2f9c:	82 07       	cpc	r24, r18
    2f9e:	92 07       	cpc	r25, r18
    2fa0:	24 f4       	brge	.+8      	; 0x2faa <calculate_pid+0x184>
    2fa2:	60 e0       	ldi	r22, 0x00	; 0
    2fa4:	7c ef       	ldi	r23, 0xFC	; 252
    2fa6:	8f ef       	ldi	r24, 0xFF	; 255
    2fa8:	9f ef       	ldi	r25, 0xFF	; 255
			D_value=-1024;
		}
		

		// calculate new output
		int32_t pidouttemp =  ( values->pidoutput + ( (P_value + I_value + D_value)) );
    2faa:	21 e0       	ldi	r18, 0x01	; 1
    2fac:	c2 16       	cp	r12, r18
    2fae:	22 e0       	ldi	r18, 0x02	; 2
    2fb0:	d2 06       	cpc	r13, r18
    2fb2:	e1 04       	cpc	r14, r1
    2fb4:	f1 04       	cpc	r15, r1
    2fb6:	2c f0       	brlt	.+10     	; 0x2fc2 <calculate_pid+0x19c>
    2fb8:	c1 2c       	mov	r12, r1
    2fba:	42 e0       	ldi	r20, 0x02	; 2
    2fbc:	d4 2e       	mov	r13, r20
    2fbe:	e1 2c       	mov	r14, r1
    2fc0:	f1 2c       	mov	r15, r1
    2fc2:	21 e0       	ldi	r18, 0x01	; 1
    2fc4:	42 16       	cp	r4, r18
    2fc6:	52 06       	cpc	r5, r18
    2fc8:	61 04       	cpc	r6, r1
    2fca:	71 04       	cpc	r7, r1
    2fcc:	24 f0       	brlt	.+8      	; 0x2fd6 <calculate_pid+0x1b0>
    2fce:	41 2c       	mov	r4, r1
    2fd0:	51 2c       	mov	r5, r1
    2fd2:	32 01       	movw	r6, r4
    2fd4:	53 94       	inc	r5
    2fd6:	c4 0c       	add	r12, r4
    2fd8:	d5 1c       	adc	r13, r5
    2fda:	e6 1c       	adc	r14, r6
    2fdc:	f7 1c       	adc	r15, r7
    2fde:	dc 01       	movw	r26, r24
    2fe0:	cb 01       	movw	r24, r22
    2fe2:	81 30       	cpi	r24, 0x01	; 1
    2fe4:	64 e0       	ldi	r22, 0x04	; 4
    2fe6:	96 07       	cpc	r25, r22
    2fe8:	a1 05       	cpc	r26, r1
    2fea:	b1 05       	cpc	r27, r1
    2fec:	24 f0       	brlt	.+8      	; 0x2ff6 <calculate_pid+0x1d0>
    2fee:	80 e0       	ldi	r24, 0x00	; 0
    2ff0:	94 e0       	ldi	r25, 0x04	; 4
    2ff2:	a0 e0       	ldi	r26, 0x00	; 0
    2ff4:	b0 e0       	ldi	r27, 0x00	; 0
    2ff6:	c8 0e       	add	r12, r24
    2ff8:	d9 1e       	adc	r13, r25
    2ffa:	ea 1e       	adc	r14, r26
    2ffc:	fb 1e       	adc	r15, r27
    2ffe:	8b 85       	ldd	r24, Y+11	; 0x0b
    3000:	9c 85       	ldd	r25, Y+12	; 0x0c
    3002:	ad 85       	ldd	r26, Y+13	; 0x0d
    3004:	be 85       	ldd	r27, Y+14	; 0x0e
    3006:	c8 0e       	add	r12, r24
    3008:	d9 1e       	adc	r13, r25
    300a:	ea 1e       	adc	r14, r26
    300c:	fb 1e       	adc	r15, r27

		
		if (pidouttemp>65534)
    300e:	8f ef       	ldi	r24, 0xFF	; 255
    3010:	c8 16       	cp	r12, r24
    3012:	d8 06       	cpc	r13, r24
    3014:	e1 04       	cpc	r14, r1
    3016:	f1 04       	cpc	r15, r1
    3018:	4c f0       	brlt	.+18     	; 0x302c <calculate_pid+0x206>
		{
			values->pidoutput=65534;
    301a:	8e ef       	ldi	r24, 0xFE	; 254
    301c:	9f ef       	ldi	r25, 0xFF	; 255
    301e:	a0 e0       	ldi	r26, 0x00	; 0
    3020:	b0 e0       	ldi	r27, 0x00	; 0
    3022:	8b 87       	std	Y+11, r24	; 0x0b
    3024:	9c 87       	std	Y+12, r25	; 0x0c
    3026:	ad 87       	std	Y+13, r26	; 0x0d
    3028:	be 87       	std	Y+14, r27	; 0x0e
    302a:	0b c0       	rjmp	.+22     	; 0x3042 <calculate_pid+0x21c>
		}
		else if (pidouttemp < 0)
    302c:	f7 fe       	sbrs	r15, 7
    302e:	05 c0       	rjmp	.+10     	; 0x303a <calculate_pid+0x214>
		{
			values->pidoutput=0;
    3030:	1b 86       	std	Y+11, r1	; 0x0b
    3032:	1c 86       	std	Y+12, r1	; 0x0c
    3034:	1d 86       	std	Y+13, r1	; 0x0d
    3036:	1e 86       	std	Y+14, r1	; 0x0e
    3038:	04 c0       	rjmp	.+8      	; 0x3042 <calculate_pid+0x21c>
		}
		else
		{
			values->pidoutput=pidouttemp;
    303a:	cb 86       	std	Y+11, r12	; 0x0b
    303c:	dc 86       	std	Y+12, r13	; 0x0c
    303e:	ed 86       	std	Y+13, r14	; 0x0d
    3040:	fe 86       	std	Y+14, r15	; 0x0e
		//uart_put_s(ltoa(D_value,Cdebug,10) );
		//uart_put_c('\n');

	}

	if (values->invert)
    3042:	99 20       	and	r9, r9
    3044:	29 f0       	breq	.+10     	; 0x3050 <calculate_pid+0x22a>
	{
		values->setValue=values->setValue*-1;
    3046:	b1 94       	neg	r11
    3048:	a1 94       	neg	r10
    304a:	b1 08       	sbc	r11, r1
    304c:	b8 8a       	std	Y+16, r11	; 0x10
    304e:	af 86       	std	Y+15, r10	; 0x0f
	}
	
	if  ( ( (values->pidoutput+128)/256 )  < values->min )
    3050:	4b 84       	ldd	r4, Y+11	; 0x0b
    3052:	5c 84       	ldd	r5, Y+12	; 0x0c
    3054:	6d 84       	ldd	r6, Y+13	; 0x0d
    3056:	7e 84       	ldd	r7, Y+14	; 0x0e
    3058:	c3 01       	movw	r24, r6
    305a:	b2 01       	movw	r22, r4
    305c:	60 58       	subi	r22, 0x80	; 128
    305e:	7f 4f       	sbci	r23, 0xFF	; 255
    3060:	8f 4f       	sbci	r24, 0xFF	; 255
    3062:	9f 4f       	sbci	r25, 0xFF	; 255
    3064:	c1 2c       	mov	r12, r1
    3066:	d1 2c       	mov	r13, r1
    3068:	76 01       	movw	r14, r12
    306a:	d3 94       	inc	r13
    306c:	a7 01       	movw	r20, r14
    306e:	96 01       	movw	r18, r12
    3070:	0e 94 b0 1a 	call	0x3560	; 0x3560 <__divmodsi4>
    3074:	8d 8d       	ldd	r24, Y+29	; 0x1d
    3076:	9e 8d       	ldd	r25, Y+30	; 0x1e
    3078:	a0 e0       	ldi	r26, 0x00	; 0
    307a:	b0 e0       	ldi	r27, 0x00	; 0
    307c:	28 17       	cp	r18, r24
    307e:	39 07       	cpc	r19, r25
    3080:	4a 07       	cpc	r20, r26
    3082:	5b 07       	cpc	r21, r27
    3084:	44 f0       	brlt	.+16     	; 0x3096 <calculate_pid+0x270>
	{
		return 0;
	}
	else
	{
		return (values->pidoutput/256);
    3086:	c3 01       	movw	r24, r6
    3088:	b2 01       	movw	r22, r4
    308a:	a7 01       	movw	r20, r14
    308c:	96 01       	movw	r18, r12
    308e:	0e 94 b0 1a 	call	0x3560	; 0x3560 <__divmodsi4>
    3092:	82 2f       	mov	r24, r18
    3094:	01 c0       	rjmp	.+2      	; 0x3098 <calculate_pid+0x272>
		values->setValue=values->setValue*-1;
	}
	
	if  ( ( (values->pidoutput+128)/256 )  < values->min )
	{
		return 0;
    3096:	80 e0       	ldi	r24, 0x00	; 0
	else
	{
		return (values->pidoutput/256);
	}

}
    3098:	df 91       	pop	r29
    309a:	cf 91       	pop	r28
    309c:	1f 91       	pop	r17
    309e:	0f 91       	pop	r16
    30a0:	ff 90       	pop	r15
    30a2:	ef 90       	pop	r14
    30a4:	df 90       	pop	r13
    30a6:	cf 90       	pop	r12
    30a8:	bf 90       	pop	r11
    30aa:	af 90       	pop	r10
    30ac:	9f 90       	pop	r9
    30ae:	7f 90       	pop	r7
    30b0:	6f 90       	pop	r6
    30b2:	5f 90       	pop	r5
    30b4:	4f 90       	pop	r4
    30b6:	08 95       	ret

000030b8 <init_PID_values>:


void init_PID_values(PID_values* values,uint16_t p, uint8_t i, uint16_t d,uint16_t stellValue, uint16_t min,uint16_t Deadband,uint8_t Tau, uint16_t Scale,uint8_t Invert)
{
    30b8:	8f 92       	push	r8
    30ba:	9f 92       	push	r9
    30bc:	af 92       	push	r10
    30be:	cf 92       	push	r12
    30c0:	df 92       	push	r13
    30c2:	ef 92       	push	r14
    30c4:	ff 92       	push	r15
    30c6:	0f 93       	push	r16
    30c8:	1f 93       	push	r17
    30ca:	cf 93       	push	r28
    30cc:	df 93       	push	r29
    30ce:	cd b7       	in	r28, 0x3d	; 61
    30d0:	de b7       	in	r29, 0x3e	; 62
    30d2:	fc 01       	movw	r30, r24
    30d4:	84 2f       	mov	r24, r20
    30d6:	a9 01       	movw	r20, r18
	values->err[0]=0;
    30d8:	11 82       	std	Z+1, r1	; 0x01
    30da:	10 82       	st	Z, r1
	values->err[1]=0;
    30dc:	13 82       	std	Z+3, r1	; 0x03
    30de:	12 82       	std	Z+2, r1	; 0x02
	values->err[2]=0;
    30e0:	15 82       	std	Z+5, r1	; 0x05
    30e2:	14 82       	std	Z+4, r1	; 0x04
	
	values->pidoutput=0;
    30e4:	13 86       	std	Z+11, r1	; 0x0b
    30e6:	14 86       	std	Z+12, r1	; 0x0c
    30e8:	15 86       	std	Z+13, r1	; 0x0d
    30ea:	16 86       	std	Z+14, r1	; 0x0e
	values->tau=Tau;
    30ec:	a6 82       	std	Z+6, r10	; 0x06
	values->setValue=stellValue;
    30ee:	10 8b       	std	Z+16, r17	; 0x10
    30f0:	07 87       	std	Z+15, r16	; 0x0f
	values->P=p;
    30f2:	8b 01       	movw	r16, r22
    30f4:	20 e0       	ldi	r18, 0x00	; 0
    30f6:	30 e0       	ldi	r19, 0x00	; 0
    30f8:	01 8b       	std	Z+17, r16	; 0x11
    30fa:	12 8b       	std	Z+18, r17	; 0x12
    30fc:	23 8b       	std	Z+19, r18	; 0x13
    30fe:	34 8b       	std	Z+20, r19	; 0x14
	values->I=i;
    3100:	90 e0       	ldi	r25, 0x00	; 0
    3102:	a0 e0       	ldi	r26, 0x00	; 0
    3104:	b0 e0       	ldi	r27, 0x00	; 0
    3106:	85 8b       	std	Z+21, r24	; 0x15
    3108:	96 8b       	std	Z+22, r25	; 0x16
    310a:	a7 8b       	std	Z+23, r26	; 0x17
    310c:	b0 8f       	std	Z+24, r27	; 0x18
	values->D=d;
    310e:	60 e0       	ldi	r22, 0x00	; 0
    3110:	70 e0       	ldi	r23, 0x00	; 0
    3112:	41 8f       	std	Z+25, r20	; 0x19
    3114:	52 8f       	std	Z+26, r21	; 0x1a
    3116:	63 8f       	std	Z+27, r22	; 0x1b
    3118:	74 8f       	std	Z+28, r23	; 0x1c
	values->esum=0;
    311a:	17 82       	std	Z+7, r1	; 0x07
    311c:	10 86       	std	Z+8, r1	; 0x08
    311e:	11 86       	std	Z+9, r1	; 0x09
    3120:	12 86       	std	Z+10, r1	; 0x0a
	values->min=min;
    3122:	f6 8e       	std	Z+30, r15	; 0x1e
    3124:	e5 8e       	std	Z+29, r14	; 0x1d
	values->deadband=Deadband;
    3126:	d0 a2       	std	Z+32, r13	; 0x20
    3128:	c7 8e       	std	Z+31, r12	; 0x1f
	values->scale=Scale;
    312a:	92 a2       	std	Z+34, r9	; 0x22
    312c:	81 a2       	std	Z+33, r8	; 0x21
	values->invert=Invert;
    312e:	8e 85       	ldd	r24, Y+14	; 0x0e
    3130:	83 a3       	std	Z+35, r24	; 0x23
    3132:	df 91       	pop	r29
    3134:	cf 91       	pop	r28
    3136:	1f 91       	pop	r17
    3138:	0f 91       	pop	r16
    313a:	ff 90       	pop	r15
    313c:	ef 90       	pop	r14
    313e:	df 90       	pop	r13
    3140:	cf 90       	pop	r12
    3142:	af 90       	pop	r10
    3144:	9f 90       	pop	r9
    3146:	8f 90       	pop	r8
    3148:	08 95       	ret

0000314a <init_sensValues>:
 *  Author: knoerk
 */ 
#include "include/sensValues.h"

void init_sensValues(volatile sensValues* values)
{
    314a:	fc 01       	movw	r30, r24
	values->boschTemp=-9999;
    314c:	81 ef       	ldi	r24, 0xF1	; 241
    314e:	98 ed       	ldi	r25, 0xD8	; 216
    3150:	95 87       	std	Z+13, r25	; 0x0d
    3152:	84 87       	std	Z+12, r24	; 0x0c
	values->co=-9999;
    3154:	93 83       	std	Z+3, r25	; 0x03
    3156:	82 83       	std	Z+2, r24	; 0x02
	values->feuchte=-9999;
    3158:	97 83       	std	Z+7, r25	; 0x07
    315a:	86 83       	std	Z+6, r24	; 0x06
	values->hytTemp=-9999;
    315c:	95 83       	std	Z+5, r25	; 0x05
    315e:	84 83       	std	Z+4, r24	; 0x04
	values->k30Status=0;
    3160:	16 86       	std	Z+14, r1	; 0x0e
	values->ppfd=0;
    3162:	11 82       	std	Z+1, r1	; 0x01
    3164:	10 82       	st	Z, r1
	values->pressure=-9999;
    3166:	41 ef       	ldi	r20, 0xF1	; 241
    3168:	58 ed       	ldi	r21, 0xD8	; 216
    316a:	6f ef       	ldi	r22, 0xFF	; 255
    316c:	7f ef       	ldi	r23, 0xFF	; 255
    316e:	40 87       	std	Z+8, r20	; 0x08
    3170:	51 87       	std	Z+9, r21	; 0x09
    3172:	62 87       	std	Z+10, r22	; 0x0a
    3174:	73 87       	std	Z+11, r23	; 0x0b
	values->RHO=-9999;
    3176:	90 8b       	std	Z+16, r25	; 0x10
    3178:	87 87       	std	Z+15, r24	; 0x0f
	values->S=-9999;
    317a:	92 8b       	std	Z+18, r25	; 0x12
    317c:	81 8b       	std	Z+17, r24	; 0x11
	values->AF=-9999;
    317e:	94 8b       	std	Z+20, r25	; 0x14
    3180:	83 8b       	std	Z+19, r24	; 0x13
	values->VPD=-9999;
    3182:	96 8b       	std	Z+22, r25	; 0x16
    3184:	85 8b       	std	Z+21, r24	; 0x15
	values->inH=-9999;
    3186:	90 8f       	std	Z+24, r25	; 0x18
    3188:	87 8b       	std	Z+23, r24	; 0x17
	
	values->Mppfd=-9999;
    318a:	92 8f       	std	Z+26, r25	; 0x1a
    318c:	81 8f       	std	Z+25, r24	; 0x19
	values->Mco=-9999;
    318e:	94 8f       	std	Z+28, r25	; 0x1c
    3190:	83 8f       	std	Z+27, r24	; 0x1b
	values->MhytTemp=-9999;
    3192:	96 8f       	std	Z+30, r25	; 0x1e
    3194:	85 8f       	std	Z+29, r24	; 0x1d
	values->Mfeuchte=-9999;
    3196:	90 a3       	std	Z+32, r25	; 0x20
    3198:	87 8f       	std	Z+31, r24	; 0x1f
	values->Mpressure=-9999;
    319a:	41 a3       	std	Z+33, r20	; 0x21
    319c:	52 a3       	std	Z+34, r21	; 0x22
    319e:	63 a3       	std	Z+35, r22	; 0x23
    31a0:	74 a3       	std	Z+36, r23	; 0x24
	values->MboschTemp=-9999;
    31a2:	96 a3       	std	Z+38, r25	; 0x26
    31a4:	85 a3       	std	Z+37, r24	; 0x25
	values->MRHO=-9999;
    31a6:	90 a7       	std	Z+40, r25	; 0x28
    31a8:	87 a3       	std	Z+39, r24	; 0x27
	values->MS=-9999;
    31aa:	92 a7       	std	Z+42, r25	; 0x2a
    31ac:	81 a7       	std	Z+41, r24	; 0x29
	values->MAF=-9999;
    31ae:	94 a7       	std	Z+44, r25	; 0x2c
    31b0:	83 a7       	std	Z+43, r24	; 0x2b
	values->MVPD=-9999;
    31b2:	96 a7       	std	Z+46, r25	; 0x2e
    31b4:	85 a7       	std	Z+45, r24	; 0x2d
	values->MinH=-9999;
    31b6:	90 ab       	std	Z+48, r25	; 0x30
    31b8:	87 a7       	std	Z+47, r24	; 0x2f
	
	values->Bppfd=0;
    31ba:	11 aa       	std	Z+49, r1	; 0x31
    31bc:	12 aa       	std	Z+50, r1	; 0x32
    31be:	13 aa       	std	Z+51, r1	; 0x33
    31c0:	14 aa       	std	Z+52, r1	; 0x34
	values->Bco=0;
    31c2:	15 aa       	std	Z+53, r1	; 0x35
    31c4:	16 aa       	std	Z+54, r1	; 0x36
    31c6:	17 aa       	std	Z+55, r1	; 0x37
    31c8:	10 ae       	std	Z+56, r1	; 0x38
	values->BhytTemp=0;
    31ca:	11 ae       	std	Z+57, r1	; 0x39
    31cc:	12 ae       	std	Z+58, r1	; 0x3a
    31ce:	13 ae       	std	Z+59, r1	; 0x3b
    31d0:	14 ae       	std	Z+60, r1	; 0x3c
	values->Bfeuchte=0;
    31d2:	df 01       	movw	r26, r30
    31d4:	dd 96       	adiw	r26, 0x3d	; 61
    31d6:	1d 92       	st	X+, r1
    31d8:	1d 92       	st	X+, r1
    31da:	1d 92       	st	X+, r1
    31dc:	1c 92       	st	X, r1
    31de:	13 97       	sbiw	r26, 0x03	; 3
	values->Bpressure=0;
    31e0:	df 01       	movw	r26, r30
    31e2:	af 5b       	subi	r26, 0xBF	; 191
    31e4:	bf 4f       	sbci	r27, 0xFF	; 255
    31e6:	1d 92       	st	X+, r1
    31e8:	1d 92       	st	X+, r1
    31ea:	1d 92       	st	X+, r1
    31ec:	1c 92       	st	X, r1
    31ee:	13 97       	sbiw	r26, 0x03	; 3
	values->BboschTemp=0;
    31f0:	df 01       	movw	r26, r30
    31f2:	ab 5b       	subi	r26, 0xBB	; 187
    31f4:	bf 4f       	sbci	r27, 0xFF	; 255
    31f6:	1d 92       	st	X+, r1
    31f8:	1d 92       	st	X+, r1
    31fa:	1d 92       	st	X+, r1
    31fc:	1c 92       	st	X, r1
    31fe:	13 97       	sbiw	r26, 0x03	; 3
	values->BRHO=0;
    3200:	df 01       	movw	r26, r30
    3202:	a7 5b       	subi	r26, 0xB7	; 183
    3204:	bf 4f       	sbci	r27, 0xFF	; 255
    3206:	1d 92       	st	X+, r1
    3208:	1d 92       	st	X+, r1
    320a:	1d 92       	st	X+, r1
    320c:	1c 92       	st	X, r1
    320e:	13 97       	sbiw	r26, 0x03	; 3
	values->BS=0;
    3210:	df 01       	movw	r26, r30
    3212:	a3 5b       	subi	r26, 0xB3	; 179
    3214:	bf 4f       	sbci	r27, 0xFF	; 255
    3216:	1d 92       	st	X+, r1
    3218:	1d 92       	st	X+, r1
    321a:	1d 92       	st	X+, r1
    321c:	1c 92       	st	X, r1
    321e:	13 97       	sbiw	r26, 0x03	; 3
	values->BAF=0;
    3220:	df 01       	movw	r26, r30
    3222:	af 5a       	subi	r26, 0xAF	; 175
    3224:	bf 4f       	sbci	r27, 0xFF	; 255
    3226:	1d 92       	st	X+, r1
    3228:	1d 92       	st	X+, r1
    322a:	1d 92       	st	X+, r1
    322c:	1c 92       	st	X, r1
    322e:	13 97       	sbiw	r26, 0x03	; 3
	values->BVPD=0;
    3230:	df 01       	movw	r26, r30
    3232:	ab 5a       	subi	r26, 0xAB	; 171
    3234:	bf 4f       	sbci	r27, 0xFF	; 255
    3236:	1d 92       	st	X+, r1
    3238:	1d 92       	st	X+, r1
    323a:	1d 92       	st	X+, r1
    323c:	1c 92       	st	X, r1
    323e:	13 97       	sbiw	r26, 0x03	; 3
	values->BinH=0;
    3240:	df 01       	movw	r26, r30
    3242:	a7 5a       	subi	r26, 0xA7	; 167
    3244:	bf 4f       	sbci	r27, 0xFF	; 255
    3246:	1d 92       	st	X+, r1
    3248:	1d 92       	st	X+, r1
    324a:	1d 92       	st	X+, r1
    324c:	1c 92       	st	X, r1
    324e:	13 97       	sbiw	r26, 0x03	; 3
	
	values->BppfdCounter=0;
    3250:	df 01       	movw	r26, r30
    3252:	a3 5a       	subi	r26, 0xA3	; 163
    3254:	bf 4f       	sbci	r27, 0xFF	; 255
    3256:	11 96       	adiw	r26, 0x01	; 1
    3258:	1c 92       	st	X, r1
    325a:	1e 92       	st	-X, r1
	values->BcoCounter=0;
    325c:	df 01       	movw	r26, r30
    325e:	a1 5a       	subi	r26, 0xA1	; 161
    3260:	bf 4f       	sbci	r27, 0xFF	; 255
    3262:	11 96       	adiw	r26, 0x01	; 1
    3264:	1c 92       	st	X, r1
    3266:	1e 92       	st	-X, r1
	values->BhytTempCounter=0;
    3268:	df 01       	movw	r26, r30
    326a:	af 59       	subi	r26, 0x9F	; 159
    326c:	bf 4f       	sbci	r27, 0xFF	; 255
    326e:	11 96       	adiw	r26, 0x01	; 1
    3270:	1c 92       	st	X, r1
    3272:	1e 92       	st	-X, r1
	values->BfeuchteCounter=0;
    3274:	df 01       	movw	r26, r30
    3276:	ad 59       	subi	r26, 0x9D	; 157
    3278:	bf 4f       	sbci	r27, 0xFF	; 255
    327a:	11 96       	adiw	r26, 0x01	; 1
    327c:	1c 92       	st	X, r1
    327e:	1e 92       	st	-X, r1
	values->BpressureCounter=0;
    3280:	df 01       	movw	r26, r30
    3282:	ab 59       	subi	r26, 0x9B	; 155
    3284:	bf 4f       	sbci	r27, 0xFF	; 255
    3286:	11 96       	adiw	r26, 0x01	; 1
    3288:	1c 92       	st	X, r1
    328a:	1e 92       	st	-X, r1
	values->BboschTempCounter=0;
    328c:	df 01       	movw	r26, r30
    328e:	a9 59       	subi	r26, 0x99	; 153
    3290:	bf 4f       	sbci	r27, 0xFF	; 255
    3292:	11 96       	adiw	r26, 0x01	; 1
    3294:	1c 92       	st	X, r1
    3296:	1e 92       	st	-X, r1
	values->BRHOCounter=0;
    3298:	df 01       	movw	r26, r30
    329a:	a7 59       	subi	r26, 0x97	; 151
    329c:	bf 4f       	sbci	r27, 0xFF	; 255
    329e:	11 96       	adiw	r26, 0x01	; 1
    32a0:	1c 92       	st	X, r1
    32a2:	1e 92       	st	-X, r1
	values->BSCounter=0;
    32a4:	df 01       	movw	r26, r30
    32a6:	a5 59       	subi	r26, 0x95	; 149
    32a8:	bf 4f       	sbci	r27, 0xFF	; 255
    32aa:	11 96       	adiw	r26, 0x01	; 1
    32ac:	1c 92       	st	X, r1
    32ae:	1e 92       	st	-X, r1
	values->BAFCounter=0;
    32b0:	df 01       	movw	r26, r30
    32b2:	a3 59       	subi	r26, 0x93	; 147
    32b4:	bf 4f       	sbci	r27, 0xFF	; 255
    32b6:	11 96       	adiw	r26, 0x01	; 1
    32b8:	1c 92       	st	X, r1
    32ba:	1e 92       	st	-X, r1
	values->BVPDCounter=0;
    32bc:	df 01       	movw	r26, r30
    32be:	a1 59       	subi	r26, 0x91	; 145
    32c0:	bf 4f       	sbci	r27, 0xFF	; 255
    32c2:	11 96       	adiw	r26, 0x01	; 1
    32c4:	1c 92       	st	X, r1
    32c6:	1e 92       	st	-X, r1
	values->BinHCounter=0;
    32c8:	ef 58       	subi	r30, 0x8F	; 143
    32ca:	ff 4f       	sbci	r31, 0xFF	; 255
    32cc:	11 82       	std	Z+1, r1	; 0x01
    32ce:	10 82       	st	Z, r1
    32d0:	08 95       	ret

000032d2 <zero_sensValues>:
	
}

void zero_sensValues(volatile sensValues* values)
{
    32d2:	fc 01       	movw	r30, r24
	values->boschTemp=-8888;
    32d4:	88 e4       	ldi	r24, 0x48	; 72
    32d6:	9d ed       	ldi	r25, 0xDD	; 221
    32d8:	95 87       	std	Z+13, r25	; 0x0d
    32da:	84 87       	std	Z+12, r24	; 0x0c
	values->co=-8888;
    32dc:	93 83       	std	Z+3, r25	; 0x03
    32de:	82 83       	std	Z+2, r24	; 0x02
	values->feuchte=-8888;
    32e0:	97 83       	std	Z+7, r25	; 0x07
    32e2:	86 83       	std	Z+6, r24	; 0x06
	values->hytTemp=-8888;
    32e4:	95 83       	std	Z+5, r25	; 0x05
    32e6:	84 83       	std	Z+4, r24	; 0x04
	values->k30Status=0;
    32e8:	16 86       	std	Z+14, r1	; 0x0e
	values->ppfd=-8888;
    32ea:	91 83       	std	Z+1, r25	; 0x01
    32ec:	80 83       	st	Z, r24
	values->pressure=-8888;
    32ee:	48 e4       	ldi	r20, 0x48	; 72
    32f0:	5d ed       	ldi	r21, 0xDD	; 221
    32f2:	6f ef       	ldi	r22, 0xFF	; 255
    32f4:	7f ef       	ldi	r23, 0xFF	; 255
    32f6:	40 87       	std	Z+8, r20	; 0x08
    32f8:	51 87       	std	Z+9, r21	; 0x09
    32fa:	62 87       	std	Z+10, r22	; 0x0a
    32fc:	73 87       	std	Z+11, r23	; 0x0b
	values->RHO=-8888;
    32fe:	90 8b       	std	Z+16, r25	; 0x10
    3300:	87 87       	std	Z+15, r24	; 0x0f
	values->S=-8888;
    3302:	92 8b       	std	Z+18, r25	; 0x12
    3304:	81 8b       	std	Z+17, r24	; 0x11
	values->AF=-8888;
    3306:	94 8b       	std	Z+20, r25	; 0x14
    3308:	83 8b       	std	Z+19, r24	; 0x13
	values->VPD=-8888;
    330a:	96 8b       	std	Z+22, r25	; 0x16
    330c:	85 8b       	std	Z+21, r24	; 0x15
	values->inH=-8888;
    330e:	90 8f       	std	Z+24, r25	; 0x18
    3310:	87 8b       	std	Z+23, r24	; 0x17
    3312:	08 95       	ret

00003314 <zeroMeansInsensValues>:
}

void zeroMeansInsensValues(volatile sensValues* values)
{
    3314:	fc 01       	movw	r30, r24
	{
		values->Bppfd=0;
    3316:	11 aa       	std	Z+49, r1	; 0x31
    3318:	12 aa       	std	Z+50, r1	; 0x32
    331a:	13 aa       	std	Z+51, r1	; 0x33
    331c:	14 aa       	std	Z+52, r1	; 0x34
		values->Bco=0;
    331e:	15 aa       	std	Z+53, r1	; 0x35
    3320:	16 aa       	std	Z+54, r1	; 0x36
    3322:	17 aa       	std	Z+55, r1	; 0x37
    3324:	10 ae       	std	Z+56, r1	; 0x38
		values->BhytTemp=0;
    3326:	11 ae       	std	Z+57, r1	; 0x39
    3328:	12 ae       	std	Z+58, r1	; 0x3a
    332a:	13 ae       	std	Z+59, r1	; 0x3b
    332c:	14 ae       	std	Z+60, r1	; 0x3c
		values->Bfeuchte=0;
    332e:	dc 01       	movw	r26, r24
    3330:	dd 96       	adiw	r26, 0x3d	; 61
    3332:	1d 92       	st	X+, r1
    3334:	1d 92       	st	X+, r1
    3336:	1d 92       	st	X+, r1
    3338:	1c 92       	st	X, r1
    333a:	13 97       	sbiw	r26, 0x03	; 3
		values->Bpressure=0;
    333c:	dc 01       	movw	r26, r24
    333e:	af 5b       	subi	r26, 0xBF	; 191
    3340:	bf 4f       	sbci	r27, 0xFF	; 255
    3342:	1d 92       	st	X+, r1
    3344:	1d 92       	st	X+, r1
    3346:	1d 92       	st	X+, r1
    3348:	1c 92       	st	X, r1
    334a:	13 97       	sbiw	r26, 0x03	; 3
		values->BboschTemp=0;
    334c:	dc 01       	movw	r26, r24
    334e:	ab 5b       	subi	r26, 0xBB	; 187
    3350:	bf 4f       	sbci	r27, 0xFF	; 255
    3352:	1d 92       	st	X+, r1
    3354:	1d 92       	st	X+, r1
    3356:	1d 92       	st	X+, r1
    3358:	1c 92       	st	X, r1
    335a:	13 97       	sbiw	r26, 0x03	; 3
		values->BRHO=0;
    335c:	dc 01       	movw	r26, r24
    335e:	a7 5b       	subi	r26, 0xB7	; 183
    3360:	bf 4f       	sbci	r27, 0xFF	; 255
    3362:	1d 92       	st	X+, r1
    3364:	1d 92       	st	X+, r1
    3366:	1d 92       	st	X+, r1
    3368:	1c 92       	st	X, r1
    336a:	13 97       	sbiw	r26, 0x03	; 3
		values->BS=0;
    336c:	dc 01       	movw	r26, r24
    336e:	a3 5b       	subi	r26, 0xB3	; 179
    3370:	bf 4f       	sbci	r27, 0xFF	; 255
    3372:	1d 92       	st	X+, r1
    3374:	1d 92       	st	X+, r1
    3376:	1d 92       	st	X+, r1
    3378:	1c 92       	st	X, r1
    337a:	13 97       	sbiw	r26, 0x03	; 3
		values->BAF=0;
    337c:	dc 01       	movw	r26, r24
    337e:	af 5a       	subi	r26, 0xAF	; 175
    3380:	bf 4f       	sbci	r27, 0xFF	; 255
    3382:	1d 92       	st	X+, r1
    3384:	1d 92       	st	X+, r1
    3386:	1d 92       	st	X+, r1
    3388:	1c 92       	st	X, r1
    338a:	13 97       	sbiw	r26, 0x03	; 3
		values->BVPD=0;
    338c:	dc 01       	movw	r26, r24
    338e:	ab 5a       	subi	r26, 0xAB	; 171
    3390:	bf 4f       	sbci	r27, 0xFF	; 255
    3392:	1d 92       	st	X+, r1
    3394:	1d 92       	st	X+, r1
    3396:	1d 92       	st	X+, r1
    3398:	1c 92       	st	X, r1
    339a:	13 97       	sbiw	r26, 0x03	; 3
		values->BinH=0;
    339c:	dc 01       	movw	r26, r24
    339e:	a7 5a       	subi	r26, 0xA7	; 167
    33a0:	bf 4f       	sbci	r27, 0xFF	; 255
    33a2:	1d 92       	st	X+, r1
    33a4:	1d 92       	st	X+, r1
    33a6:	1d 92       	st	X+, r1
    33a8:	1c 92       	st	X, r1
    33aa:	13 97       	sbiw	r26, 0x03	; 3
		
		values->BppfdCounter=0;
    33ac:	dc 01       	movw	r26, r24
    33ae:	a3 5a       	subi	r26, 0xA3	; 163
    33b0:	bf 4f       	sbci	r27, 0xFF	; 255
    33b2:	11 96       	adiw	r26, 0x01	; 1
    33b4:	1c 92       	st	X, r1
    33b6:	1e 92       	st	-X, r1
		values->BcoCounter=0;
    33b8:	dc 01       	movw	r26, r24
    33ba:	a1 5a       	subi	r26, 0xA1	; 161
    33bc:	bf 4f       	sbci	r27, 0xFF	; 255
    33be:	11 96       	adiw	r26, 0x01	; 1
    33c0:	1c 92       	st	X, r1
    33c2:	1e 92       	st	-X, r1
		values->BhytTempCounter=0;
    33c4:	dc 01       	movw	r26, r24
    33c6:	af 59       	subi	r26, 0x9F	; 159
    33c8:	bf 4f       	sbci	r27, 0xFF	; 255
    33ca:	11 96       	adiw	r26, 0x01	; 1
    33cc:	1c 92       	st	X, r1
    33ce:	1e 92       	st	-X, r1
		values->BfeuchteCounter=0;
    33d0:	dc 01       	movw	r26, r24
    33d2:	ad 59       	subi	r26, 0x9D	; 157
    33d4:	bf 4f       	sbci	r27, 0xFF	; 255
    33d6:	11 96       	adiw	r26, 0x01	; 1
    33d8:	1c 92       	st	X, r1
    33da:	1e 92       	st	-X, r1
		values->BpressureCounter=0;
    33dc:	dc 01       	movw	r26, r24
    33de:	ab 59       	subi	r26, 0x9B	; 155
    33e0:	bf 4f       	sbci	r27, 0xFF	; 255
    33e2:	11 96       	adiw	r26, 0x01	; 1
    33e4:	1c 92       	st	X, r1
    33e6:	1e 92       	st	-X, r1
		values->BboschTempCounter=0;
    33e8:	dc 01       	movw	r26, r24
    33ea:	a9 59       	subi	r26, 0x99	; 153
    33ec:	bf 4f       	sbci	r27, 0xFF	; 255
    33ee:	11 96       	adiw	r26, 0x01	; 1
    33f0:	1c 92       	st	X, r1
    33f2:	1e 92       	st	-X, r1
		values->BRHOCounter=0;
    33f4:	dc 01       	movw	r26, r24
    33f6:	a7 59       	subi	r26, 0x97	; 151
    33f8:	bf 4f       	sbci	r27, 0xFF	; 255
    33fa:	11 96       	adiw	r26, 0x01	; 1
    33fc:	1c 92       	st	X, r1
    33fe:	1e 92       	st	-X, r1
		values->BSCounter=0;
    3400:	dc 01       	movw	r26, r24
    3402:	a5 59       	subi	r26, 0x95	; 149
    3404:	bf 4f       	sbci	r27, 0xFF	; 255
    3406:	11 96       	adiw	r26, 0x01	; 1
    3408:	1c 92       	st	X, r1
    340a:	1e 92       	st	-X, r1
		values->BAFCounter=0;
    340c:	dc 01       	movw	r26, r24
    340e:	a3 59       	subi	r26, 0x93	; 147
    3410:	bf 4f       	sbci	r27, 0xFF	; 255
    3412:	11 96       	adiw	r26, 0x01	; 1
    3414:	1c 92       	st	X, r1
    3416:	1e 92       	st	-X, r1
		values->BVPDCounter=0;
    3418:	dc 01       	movw	r26, r24
    341a:	a1 59       	subi	r26, 0x91	; 145
    341c:	bf 4f       	sbci	r27, 0xFF	; 255
    341e:	11 96       	adiw	r26, 0x01	; 1
    3420:	1c 92       	st	X, r1
    3422:	1e 92       	st	-X, r1
		values->BinHCounter=0;
    3424:	ef 58       	subi	r30, 0x8F	; 143
    3426:	ff 4f       	sbci	r31, 0xFF	; 255
    3428:	11 82       	std	Z+1, r1	; 0x01
    342a:	10 82       	st	Z, r1
    342c:	08 95       	ret

0000342e <spi_init>:

void spi_init()
{
	// Aktivieren der Pins fr das SPI Interface
	
	DDRB   |= (1<<DDB4);
    342e:	bc 9a       	sbi	0x17, 4	; 23
	PORTB  |= (1<<PB4);	
    3430:	c4 9a       	sbi	0x18, 4	; 24
	
	DDRB  |= (1<<DDB5) | (1<<DDB7);
    3432:	87 b3       	in	r24, 0x17	; 23
    3434:	80 6a       	ori	r24, 0xA0	; 160
    3436:	87 bb       	out	0x17, r24	; 23
	PORTB &= ~( (1<<PB5) | (1<<PB6) | (1<<PB7) );
    3438:	88 b3       	in	r24, 0x18	; 24
    343a:	8f 71       	andi	r24, 0x1F	; 31
    343c:	88 bb       	out	0x18, r24	; 24
	

	
	// Aktivieren des SPI Master Interfaces, fosc = fclk / 16
	SPCR = ( (1<<SPE) | (1<<MSTR)  |(0<<SPR0) );
    343e:	80 e5       	ldi	r24, 0x50	; 80
    3440:	8d b9       	out	0x0d, r24	; 13
	SPSR = (1<<SPI2X);
    3442:	81 e0       	ldi	r24, 0x01	; 1
    3444:	8e b9       	out	0x0e, r24	; 14
    3446:	08 95       	ret

00003448 <spi_put_c>:
}


uint8_t spi_put_c( uint8_t data )
{
		while( ( SPSR & (1<<SPIF) ) )
    3448:	77 99       	sbic	0x0e, 7	; 14
    344a:	fe cf       	rjmp	.-4      	; 0x3448 <spi_put_c>
		{
		}
	
		SPDR = data;
    344c:	8f b9       	out	0x0f, r24	; 15

		while( !( SPSR & (1<<SPIF) ) )
    344e:	77 9b       	sbis	0x0e, 7	; 14
    3450:	fe cf       	rjmp	.-4      	; 0x344e <spi_put_c+0x6>
		{
		}
				
		return SPDR;
    3452:	8f b1       	in	r24, 0x0f	; 15
}
    3454:	08 95       	ret

00003456 <uart_init>:

#include "include/uart.h"

void uart_init (uint16_t ubrr)
{
    UBRRH &= ~(1<<URSEL);
    3456:	20 b5       	in	r18, 0x20	; 32
    3458:	2f 77       	andi	r18, 0x7F	; 127
    345a:	20 bd       	out	0x20, r18	; 32
	UBRRH = (unsigned char)(ubrr>>8);
    345c:	90 bd       	out	0x20, r25	; 32
    UBRRL = (unsigned char)ubrr;
    345e:	89 b9       	out	0x09, r24	; 9
    UCSRB |= ( (1<<RXEN) | (1<<TXEN) | (1<<RXCIE) );
    3460:	8a b1       	in	r24, 0x0a	; 10
    3462:	88 69       	ori	r24, 0x98	; 152
    3464:	8a b9       	out	0x0a, r24	; 10
    UCSRC |= ( (1<<URSEL) | (1<<UCSZ1) | (1<<UCSZ0) | (1<<USBS)); // URSEL = 1 when writing to UCSRC!!
    3466:	80 b5       	in	r24, 0x20	; 32
    3468:	8e 68       	ori	r24, 0x8E	; 142
    346a:	80 bd       	out	0x20, r24	; 32
    346c:	08 95       	ret

0000346e <uart_put_c>:
    //OSCCAL=110;
}

void uart_put_c(char c)
{
    while (!(UCSRA & (1<<UDRE)))
    346e:	5d 9b       	sbis	0x0b, 5	; 11
    3470:	fe cf       	rjmp	.-4      	; 0x346e <uart_put_c>
    {
    }
    UDR = c;
    3472:	8c b9       	out	0x0c, r24	; 12
    3474:	08 95       	ret

00003476 <uart_put_s>:
}

void uart_put_s (char *s)
{
    3476:	cf 93       	push	r28
    3478:	df 93       	push	r29
    347a:	ec 01       	movw	r28, r24
    while (*s)
    347c:	02 c0       	rjmp	.+4      	; 0x3482 <uart_put_s+0xc>
    {
        uart_put_c(*s);
    347e:	0e 94 37 1a 	call	0x346e	; 0x346e <uart_put_c>
    UDR = c;
}

void uart_put_s (char *s)
{
    while (*s)
    3482:	89 91       	ld	r24, Y+
    3484:	81 11       	cpse	r24, r1
    3486:	fb cf       	rjmp	.-10     	; 0x347e <uart_put_s+0x8>
    {
        uart_put_c(*s);
        s++;
    }
}
    3488:	df 91       	pop	r29
    348a:	cf 91       	pop	r28
    348c:	08 95       	ret

0000348e <__vector_13>:
    }
    return UDR;
}

ISR(USART_RXC_vect)
{
    348e:	1f 92       	push	r1
    3490:	0f 92       	push	r0
    3492:	0f b6       	in	r0, 0x3f	; 63
    3494:	0f 92       	push	r0
    3496:	11 24       	eor	r1, r1
    3498:	8f 93       	push	r24
    349a:	9f 93       	push	r25
    349c:	ef 93       	push	r30
    349e:	ff 93       	push	r31
    unsigned char temp=UDR;
    34a0:	8c b1       	in	r24, 0x0c	; 12

    switch (temp)
    34a2:	88 23       	and	r24, r24
    34a4:	31 f0       	breq	.+12     	; 0x34b2 <__vector_13+0x24>
    34a6:	83 32       	cpi	r24, 0x23	; 35
    34a8:	19 f5       	brne	.+70     	; 0x34f0 <__vector_13+0x62>
    {
    case '#':
        uart_struct.uart_state=rec_value;
    34aa:	81 e0       	ldi	r24, 0x01	; 1
    34ac:	80 93 70 00 	sts	0x0070, r24
    34b0:	3c c0       	rjmp	.+120    	; 0x352a <__vector_13+0x9c>
        uart_struct.buffer_count=0;
        break;

    case '\0':
        if (uart_struct.uart_state==rec_value && uart_struct.buffer_count>=1)
    34b2:	80 91 70 00 	lds	r24, 0x0070
    34b6:	81 30       	cpi	r24, 0x01	; 1
    34b8:	91 f4       	brne	.+36     	; 0x34de <__vector_13+0x50>
    34ba:	80 91 71 00 	lds	r24, 0x0071
    34be:	88 23       	and	r24, r24
    34c0:	71 f0       	breq	.+28     	; 0x34de <__vector_13+0x50>
        {
            uart_struct.uart_buffer[uart_struct.buffer_count]=temp;
    34c2:	e0 91 71 00 	lds	r30, 0x0071
    34c6:	f0 e0       	ldi	r31, 0x00	; 0
    34c8:	e0 59       	subi	r30, 0x90	; 144
    34ca:	ff 4f       	sbci	r31, 0xFF	; 255
    34cc:	12 82       	std	Z+2, r1	; 0x02
            uart_struct.uart_state=string_complete;
    34ce:	82 e0       	ldi	r24, 0x02	; 2
    34d0:	80 93 70 00 	sts	0x0070, r24
            uart_struct.buffer_count++;
    34d4:	80 91 71 00 	lds	r24, 0x0071
    34d8:	8f 5f       	subi	r24, 0xFF	; 255
    34da:	80 93 71 00 	sts	0x0071, r24
        }
        if (uart_struct.uart_state==rec_value && uart_struct.buffer_count<1)
    34de:	80 91 70 00 	lds	r24, 0x0070
    34e2:	81 30       	cpi	r24, 0x01	; 1
    34e4:	21 f5       	brne	.+72     	; 0x352e <__vector_13+0xa0>
    34e6:	80 91 71 00 	lds	r24, 0x0071
    34ea:	81 11       	cpse	r24, r1
    34ec:	20 c0       	rjmp	.+64     	; 0x352e <__vector_13+0xa0>
    34ee:	1b c0       	rjmp	.+54     	; 0x3526 <__vector_13+0x98>
        }
        break;

    default:

        if (uart_struct.uart_state==rec_value && uart_struct.buffer_count<=19)
    34f0:	90 91 70 00 	lds	r25, 0x0070
    34f4:	91 30       	cpi	r25, 0x01	; 1
    34f6:	79 f4       	brne	.+30     	; 0x3516 <__vector_13+0x88>
    34f8:	90 91 71 00 	lds	r25, 0x0071
    34fc:	94 31       	cpi	r25, 0x14	; 20
    34fe:	58 f4       	brcc	.+22     	; 0x3516 <__vector_13+0x88>
        {
            uart_struct.uart_buffer[uart_struct.buffer_count]=temp;
    3500:	e0 91 71 00 	lds	r30, 0x0071
    3504:	f0 e0       	ldi	r31, 0x00	; 0
    3506:	e0 59       	subi	r30, 0x90	; 144
    3508:	ff 4f       	sbci	r31, 0xFF	; 255
    350a:	82 83       	std	Z+2, r24	; 0x02
            uart_struct.buffer_count++;
    350c:	80 91 71 00 	lds	r24, 0x0071
    3510:	8f 5f       	subi	r24, 0xFF	; 255
    3512:	80 93 71 00 	sts	0x0071, r24
        }
        if (uart_struct.uart_state==rec_value && uart_struct.buffer_count>9)
    3516:	80 91 70 00 	lds	r24, 0x0070
    351a:	81 30       	cpi	r24, 0x01	; 1
    351c:	41 f4       	brne	.+16     	; 0x352e <__vector_13+0xa0>
    351e:	80 91 71 00 	lds	r24, 0x0071
    3522:	8a 30       	cpi	r24, 0x0A	; 10
    3524:	20 f0       	brcs	.+8      	; 0x352e <__vector_13+0xa0>
        {
            uart_struct.uart_state=no_string;
    3526:	10 92 70 00 	sts	0x0070, r1
            uart_struct.buffer_count=0;
    352a:	10 92 71 00 	sts	0x0071, r1
        }
    }
}
    352e:	ff 91       	pop	r31
    3530:	ef 91       	pop	r30
    3532:	9f 91       	pop	r25
    3534:	8f 91       	pop	r24
    3536:	0f 90       	pop	r0
    3538:	0f be       	out	0x3f, r0	; 63
    353a:	0f 90       	pop	r0
    353c:	1f 90       	pop	r1
    353e:	18 95       	reti

00003540 <__mulsi3>:
    3540:	db 01       	movw	r26, r22
    3542:	8f 93       	push	r24
    3544:	9f 93       	push	r25
    3546:	0e 94 d2 1a 	call	0x35a4	; 0x35a4 <__muluhisi3>
    354a:	bf 91       	pop	r27
    354c:	af 91       	pop	r26
    354e:	a2 9f       	mul	r26, r18
    3550:	80 0d       	add	r24, r0
    3552:	91 1d       	adc	r25, r1
    3554:	a3 9f       	mul	r26, r19
    3556:	90 0d       	add	r25, r0
    3558:	b2 9f       	mul	r27, r18
    355a:	90 0d       	add	r25, r0
    355c:	11 24       	eor	r1, r1
    355e:	08 95       	ret

00003560 <__divmodsi4>:
    3560:	05 2e       	mov	r0, r21
    3562:	97 fb       	bst	r25, 7
    3564:	16 f4       	brtc	.+4      	; 0x356a <__divmodsi4+0xa>
    3566:	00 94       	com	r0
    3568:	07 d0       	rcall	.+14     	; 0x3578 <__divmodsi4_neg1>
    356a:	57 fd       	sbrc	r21, 7
    356c:	0d d0       	rcall	.+26     	; 0x3588 <__divmodsi4_neg2>
    356e:	0e 94 e5 1a 	call	0x35ca	; 0x35ca <__udivmodsi4>
    3572:	07 fc       	sbrc	r0, 7
    3574:	09 d0       	rcall	.+18     	; 0x3588 <__divmodsi4_neg2>
    3576:	7e f4       	brtc	.+30     	; 0x3596 <__divmodsi4_exit>

00003578 <__divmodsi4_neg1>:
    3578:	90 95       	com	r25
    357a:	80 95       	com	r24
    357c:	70 95       	com	r23
    357e:	61 95       	neg	r22
    3580:	7f 4f       	sbci	r23, 0xFF	; 255
    3582:	8f 4f       	sbci	r24, 0xFF	; 255
    3584:	9f 4f       	sbci	r25, 0xFF	; 255
    3586:	08 95       	ret

00003588 <__divmodsi4_neg2>:
    3588:	50 95       	com	r21
    358a:	40 95       	com	r20
    358c:	30 95       	com	r19
    358e:	21 95       	neg	r18
    3590:	3f 4f       	sbci	r19, 0xFF	; 255
    3592:	4f 4f       	sbci	r20, 0xFF	; 255
    3594:	5f 4f       	sbci	r21, 0xFF	; 255

00003596 <__divmodsi4_exit>:
    3596:	08 95       	ret

00003598 <__tablejump2__>:
    3598:	ee 0f       	add	r30, r30
    359a:	ff 1f       	adc	r31, r31

0000359c <__tablejump__>:
    359c:	05 90       	lpm	r0, Z+
    359e:	f4 91       	lpm	r31, Z
    35a0:	e0 2d       	mov	r30, r0
    35a2:	09 94       	ijmp

000035a4 <__muluhisi3>:
    35a4:	0e 94 07 1b 	call	0x360e	; 0x360e <__umulhisi3>
    35a8:	a5 9f       	mul	r26, r21
    35aa:	90 0d       	add	r25, r0
    35ac:	b4 9f       	mul	r27, r20
    35ae:	90 0d       	add	r25, r0
    35b0:	a4 9f       	mul	r26, r20
    35b2:	80 0d       	add	r24, r0
    35b4:	91 1d       	adc	r25, r1
    35b6:	11 24       	eor	r1, r1
    35b8:	08 95       	ret

000035ba <__mulshisi3>:
    35ba:	b7 ff       	sbrs	r27, 7
    35bc:	0c 94 d2 1a 	jmp	0x35a4	; 0x35a4 <__muluhisi3>

000035c0 <__mulohisi3>:
    35c0:	0e 94 d2 1a 	call	0x35a4	; 0x35a4 <__muluhisi3>
    35c4:	82 1b       	sub	r24, r18
    35c6:	93 0b       	sbc	r25, r19
    35c8:	08 95       	ret

000035ca <__udivmodsi4>:
    35ca:	a1 e2       	ldi	r26, 0x21	; 33
    35cc:	1a 2e       	mov	r1, r26
    35ce:	aa 1b       	sub	r26, r26
    35d0:	bb 1b       	sub	r27, r27
    35d2:	fd 01       	movw	r30, r26
    35d4:	0d c0       	rjmp	.+26     	; 0x35f0 <__udivmodsi4_ep>

000035d6 <__udivmodsi4_loop>:
    35d6:	aa 1f       	adc	r26, r26
    35d8:	bb 1f       	adc	r27, r27
    35da:	ee 1f       	adc	r30, r30
    35dc:	ff 1f       	adc	r31, r31
    35de:	a2 17       	cp	r26, r18
    35e0:	b3 07       	cpc	r27, r19
    35e2:	e4 07       	cpc	r30, r20
    35e4:	f5 07       	cpc	r31, r21
    35e6:	20 f0       	brcs	.+8      	; 0x35f0 <__udivmodsi4_ep>
    35e8:	a2 1b       	sub	r26, r18
    35ea:	b3 0b       	sbc	r27, r19
    35ec:	e4 0b       	sbc	r30, r20
    35ee:	f5 0b       	sbc	r31, r21

000035f0 <__udivmodsi4_ep>:
    35f0:	66 1f       	adc	r22, r22
    35f2:	77 1f       	adc	r23, r23
    35f4:	88 1f       	adc	r24, r24
    35f6:	99 1f       	adc	r25, r25
    35f8:	1a 94       	dec	r1
    35fa:	69 f7       	brne	.-38     	; 0x35d6 <__udivmodsi4_loop>
    35fc:	60 95       	com	r22
    35fe:	70 95       	com	r23
    3600:	80 95       	com	r24
    3602:	90 95       	com	r25
    3604:	9b 01       	movw	r18, r22
    3606:	ac 01       	movw	r20, r24
    3608:	bd 01       	movw	r22, r26
    360a:	cf 01       	movw	r24, r30
    360c:	08 95       	ret

0000360e <__umulhisi3>:
    360e:	a2 9f       	mul	r26, r18
    3610:	b0 01       	movw	r22, r0
    3612:	b3 9f       	mul	r27, r19
    3614:	c0 01       	movw	r24, r0
    3616:	a3 9f       	mul	r26, r19
    3618:	01 d0       	rcall	.+2      	; 0x361c <__umulhisi3+0xe>
    361a:	b2 9f       	mul	r27, r18
    361c:	70 0d       	add	r23, r0
    361e:	81 1d       	adc	r24, r1
    3620:	11 24       	eor	r1, r1
    3622:	91 1d       	adc	r25, r1
    3624:	08 95       	ret

00003626 <atol>:
    3626:	1f 93       	push	r17
    3628:	fc 01       	movw	r30, r24
    362a:	99 27       	eor	r25, r25
    362c:	88 27       	eor	r24, r24
    362e:	bc 01       	movw	r22, r24
    3630:	e8 94       	clt
    3632:	11 91       	ld	r17, Z+
    3634:	10 32       	cpi	r17, 0x20	; 32
    3636:	e9 f3       	breq	.-6      	; 0x3632 <atol+0xc>
    3638:	19 30       	cpi	r17, 0x09	; 9
    363a:	10 f0       	brcs	.+4      	; 0x3640 <atol+0x1a>
    363c:	1e 30       	cpi	r17, 0x0E	; 14
    363e:	c8 f3       	brcs	.-14     	; 0x3632 <atol+0xc>
    3640:	1b 32       	cpi	r17, 0x2B	; 43
    3642:	51 f0       	breq	.+20     	; 0x3658 <atol+0x32>
    3644:	1d 32       	cpi	r17, 0x2D	; 45
    3646:	49 f4       	brne	.+18     	; 0x365a <atol+0x34>
    3648:	68 94       	set
    364a:	06 c0       	rjmp	.+12     	; 0x3658 <atol+0x32>
    364c:	0e 94 6e 1b 	call	0x36dc	; 0x36dc <__mulsi_const_10>
    3650:	61 0f       	add	r22, r17
    3652:	71 1d       	adc	r23, r1
    3654:	81 1d       	adc	r24, r1
    3656:	91 1d       	adc	r25, r1
    3658:	11 91       	ld	r17, Z+
    365a:	10 53       	subi	r17, 0x30	; 48
    365c:	1a 30       	cpi	r17, 0x0A	; 10
    365e:	b0 f3       	brcs	.-20     	; 0x364c <atol+0x26>
    3660:	3e f4       	brtc	.+14     	; 0x3670 <atol+0x4a>
    3662:	90 95       	com	r25
    3664:	80 95       	com	r24
    3666:	70 95       	com	r23
    3668:	61 95       	neg	r22
    366a:	7f 4f       	sbci	r23, 0xFF	; 255
    366c:	8f 4f       	sbci	r24, 0xFF	; 255
    366e:	9f 4f       	sbci	r25, 0xFF	; 255
    3670:	1f 91       	pop	r17
    3672:	08 95       	ret

00003674 <ltoa>:
    3674:	fa 01       	movw	r30, r20
    3676:	cf 93       	push	r28
    3678:	ff 93       	push	r31
    367a:	ef 93       	push	r30
    367c:	22 30       	cpi	r18, 0x02	; 2
    367e:	44 f1       	brlt	.+80     	; 0x36d0 <ltoa+0x5c>
    3680:	25 32       	cpi	r18, 0x25	; 37
    3682:	34 f5       	brge	.+76     	; 0x36d0 <ltoa+0x5c>
    3684:	c2 2f       	mov	r28, r18
    3686:	e8 94       	clt
    3688:	ca 30       	cpi	r28, 0x0A	; 10
    368a:	49 f4       	brne	.+18     	; 0x369e <ltoa+0x2a>
    368c:	97 fb       	bst	r25, 7
    368e:	3e f4       	brtc	.+14     	; 0x369e <ltoa+0x2a>
    3690:	90 95       	com	r25
    3692:	80 95       	com	r24
    3694:	70 95       	com	r23
    3696:	61 95       	neg	r22
    3698:	7f 4f       	sbci	r23, 0xFF	; 255
    369a:	8f 4f       	sbci	r24, 0xFF	; 255
    369c:	9f 4f       	sbci	r25, 0xFF	; 255
    369e:	2c 2f       	mov	r18, r28
    36a0:	33 27       	eor	r19, r19
    36a2:	44 27       	eor	r20, r20
    36a4:	55 27       	eor	r21, r21
    36a6:	ff 93       	push	r31
    36a8:	ef 93       	push	r30
    36aa:	0e 94 e5 1a 	call	0x35ca	; 0x35ca <__udivmodsi4>
    36ae:	ef 91       	pop	r30
    36b0:	ff 91       	pop	r31
    36b2:	60 5d       	subi	r22, 0xD0	; 208
    36b4:	6a 33       	cpi	r22, 0x3A	; 58
    36b6:	0c f0       	brlt	.+2      	; 0x36ba <ltoa+0x46>
    36b8:	69 5d       	subi	r22, 0xD9	; 217
    36ba:	61 93       	st	Z+, r22
    36bc:	b9 01       	movw	r22, r18
    36be:	ca 01       	movw	r24, r20
    36c0:	60 50       	subi	r22, 0x00	; 0
    36c2:	70 40       	sbci	r23, 0x00	; 0
    36c4:	80 40       	sbci	r24, 0x00	; 0
    36c6:	90 40       	sbci	r25, 0x00	; 0
    36c8:	51 f7       	brne	.-44     	; 0x369e <ltoa+0x2a>
    36ca:	16 f4       	brtc	.+4      	; 0x36d0 <ltoa+0x5c>
    36cc:	cd e2       	ldi	r28, 0x2D	; 45
    36ce:	c1 93       	st	Z+, r28
    36d0:	10 82       	st	Z, r1
    36d2:	8f 91       	pop	r24
    36d4:	9f 91       	pop	r25
    36d6:	cf 91       	pop	r28
    36d8:	0c 94 83 1b 	jmp	0x3706	; 0x3706 <strrev>

000036dc <__mulsi_const_10>:
    36dc:	59 2f       	mov	r21, r25
    36de:	48 2f       	mov	r20, r24
    36e0:	37 2f       	mov	r19, r23
    36e2:	26 2f       	mov	r18, r22
    36e4:	66 0f       	add	r22, r22
    36e6:	77 1f       	adc	r23, r23
    36e8:	88 1f       	adc	r24, r24
    36ea:	99 1f       	adc	r25, r25
    36ec:	66 0f       	add	r22, r22
    36ee:	77 1f       	adc	r23, r23
    36f0:	88 1f       	adc	r24, r24
    36f2:	99 1f       	adc	r25, r25
    36f4:	62 0f       	add	r22, r18
    36f6:	73 1f       	adc	r23, r19
    36f8:	84 1f       	adc	r24, r20
    36fa:	95 1f       	adc	r25, r21
    36fc:	66 0f       	add	r22, r22
    36fe:	77 1f       	adc	r23, r23
    3700:	88 1f       	adc	r24, r24
    3702:	99 1f       	adc	r25, r25
    3704:	08 95       	ret

00003706 <strrev>:
    3706:	dc 01       	movw	r26, r24
    3708:	fc 01       	movw	r30, r24
    370a:	67 2f       	mov	r22, r23
    370c:	71 91       	ld	r23, Z+
    370e:	77 23       	and	r23, r23
    3710:	e1 f7       	brne	.-8      	; 0x370a <strrev+0x4>
    3712:	32 97       	sbiw	r30, 0x02	; 2
    3714:	04 c0       	rjmp	.+8      	; 0x371e <strrev+0x18>
    3716:	7c 91       	ld	r23, X
    3718:	6d 93       	st	X+, r22
    371a:	70 83       	st	Z, r23
    371c:	62 91       	ld	r22, -Z
    371e:	ae 17       	cp	r26, r30
    3720:	bf 07       	cpc	r27, r31
    3722:	c8 f3       	brcs	.-14     	; 0x3716 <strrev+0x10>
    3724:	08 95       	ret

00003726 <_exit>:
    3726:	f8 94       	cli

00003728 <__stop_program>:
    3728:	ff cf       	rjmp	.-2      	; 0x3728 <__stop_program>
