
sensorBoard_6_1.elf:     file format elf32-avr

Sections:
Idx Name          Size      VMA       LMA       File off  Algn
  0 .data         0000011a  00800100  0000343a  000034ce  2**0
                  CONTENTS, ALLOC, LOAD, DATA
  1 .text         0000343a  00000000  00000000  00000094  2**1
                  CONTENTS, ALLOC, LOAD, READONLY, CODE
  2 .bss          0000006a  0080021a  0080021a  000035e8  2**0
                  ALLOC
  3 .comment      00000030  00000000  00000000  000035e8  2**0
                  CONTENTS, READONLY
  4 .note.gnu.avr.deviceinfo 0000003c  00000000  00000000  00003618  2**2
                  CONTENTS, READONLY
  5 .debug_aranges 00000250  00000000  00000000  00003654  2**0
                  CONTENTS, READONLY, DEBUGGING
  6 .debug_info   00004793  00000000  00000000  000038a4  2**0
                  CONTENTS, READONLY, DEBUGGING
  7 .debug_abbrev 0000139e  00000000  00000000  00008037  2**0
                  CONTENTS, READONLY, DEBUGGING
  8 .debug_line   00002335  00000000  00000000  000093d5  2**0
                  CONTENTS, READONLY, DEBUGGING
  9 .debug_frame  000007a0  00000000  00000000  0000b70c  2**2
                  CONTENTS, READONLY, DEBUGGING
 10 .debug_str    00000acd  00000000  00000000  0000beac  2**0
                  CONTENTS, READONLY, DEBUGGING
 11 .debug_loc    00002647  00000000  00000000  0000c979  2**0
                  CONTENTS, READONLY, DEBUGGING
 12 .debug_ranges 000001b0  00000000  00000000  0000efc0  2**0
                  CONTENTS, READONLY, DEBUGGING

Disassembly of section .text:

00000000 <__vectors>:
       0:	0c 94 48 00 	jmp	0x90	; 0x90 <__ctors_end>
       4:	0c 94 d1 14 	jmp	0x29a2	; 0x29a2 <__vector_1>
       8:	0c 94 ed 14 	jmp	0x29da	; 0x29da <__vector_2>
       c:	0c 94 65 00 	jmp	0xca	; 0xca <__bad_interrupt>
      10:	0c 94 65 00 	jmp	0xca	; 0xca <__bad_interrupt>
      14:	0c 94 65 00 	jmp	0xca	; 0xca <__bad_interrupt>
      18:	0c 94 65 00 	jmp	0xca	; 0xca <__bad_interrupt>
      1c:	0c 94 6f 14 	jmp	0x28de	; 0x28de <__vector_7>
      20:	0c 94 65 00 	jmp	0xca	; 0xca <__bad_interrupt>
      24:	0c 94 65 00 	jmp	0xca	; 0xca <__bad_interrupt>
      28:	0c 94 65 00 	jmp	0xca	; 0xca <__bad_interrupt>
      2c:	0c 94 65 00 	jmp	0xca	; 0xca <__bad_interrupt>
      30:	0c 94 65 00 	jmp	0xca	; 0xca <__bad_interrupt>
      34:	0c 94 65 00 	jmp	0xca	; 0xca <__bad_interrupt>
      38:	0c 94 65 00 	jmp	0xca	; 0xca <__bad_interrupt>
      3c:	0c 94 65 00 	jmp	0xca	; 0xca <__bad_interrupt>
      40:	0c 94 65 00 	jmp	0xca	; 0xca <__bad_interrupt>
      44:	0c 94 65 00 	jmp	0xca	; 0xca <__bad_interrupt>
      48:	0c 94 c2 15 	jmp	0x2b84	; 0x2b84 <__vector_18>
      4c:	0c 94 65 00 	jmp	0xca	; 0xca <__bad_interrupt>
      50:	0c 94 65 00 	jmp	0xca	; 0xca <__bad_interrupt>
      54:	0c 94 65 00 	jmp	0xca	; 0xca <__bad_interrupt>
      58:	0c 94 65 00 	jmp	0xca	; 0xca <__bad_interrupt>
      5c:	0c 94 65 00 	jmp	0xca	; 0xca <__bad_interrupt>
      60:	0c 94 16 12 	jmp	0x242c	; 0x242c <__vector_24>
      64:	0c 94 65 00 	jmp	0xca	; 0xca <__bad_interrupt>
      68:	07 63       	ori	r16, 0x37	; 55
      6a:	42 36       	cpi	r20, 0x62	; 98
      6c:	b7 9b       	sbis	0x16, 7	; 22
      6e:	d8 a7       	std	Y+40, r29	; 0x28
      70:	1a 39       	cpi	r17, 0x9A	; 154
      72:	68 56       	subi	r22, 0x68	; 104
      74:	18 ae       	std	Y+56, r1	; 0x38
      76:	ba ab       	std	Y+50, r27	; 0x32
      78:	55 8c       	ldd	r5, Z+29	; 0x1d
      7a:	1d 3c       	cpi	r17, 0xCD	; 205
      7c:	b7 cc       	rjmp	.-1682   	; 0xfffff9ec <__eeprom_end+0xff7ef9ec>
      7e:	57 63       	ori	r21, 0x37	; 55
      80:	bd 6d       	ori	r27, 0xDD	; 221
      82:	ed fd       	.word	0xfded	; ????
      84:	75 3e       	cpi	r23, 0xE5	; 229
      86:	f6 17       	cp	r31, r22
      88:	72 31       	cpi	r23, 0x12	; 18
      8a:	bf 00       	.word	0x00bf	; ????
      8c:	00 00       	nop
      8e:	80 3f       	cpi	r24, 0xF0	; 240

00000090 <__ctors_end>:
      90:	11 24       	eor	r1, r1
      92:	1f be       	out	0x3f, r1	; 63
      94:	cf ef       	ldi	r28, 0xFF	; 255
      96:	d4 e0       	ldi	r29, 0x04	; 4
      98:	de bf       	out	0x3e, r29	; 62
      9a:	cd bf       	out	0x3d, r28	; 61

0000009c <__do_copy_data>:
      9c:	12 e0       	ldi	r17, 0x02	; 2
      9e:	a0 e0       	ldi	r26, 0x00	; 0
      a0:	b1 e0       	ldi	r27, 0x01	; 1
      a2:	ea e3       	ldi	r30, 0x3A	; 58
      a4:	f4 e3       	ldi	r31, 0x34	; 52
      a6:	02 c0       	rjmp	.+4      	; 0xac <__do_copy_data+0x10>
      a8:	05 90       	lpm	r0, Z+
      aa:	0d 92       	st	X+, r0
      ac:	aa 31       	cpi	r26, 0x1A	; 26
      ae:	b1 07       	cpc	r27, r17
      b0:	d9 f7       	brne	.-10     	; 0xa8 <__do_copy_data+0xc>

000000b2 <__do_clear_bss>:
      b2:	22 e0       	ldi	r18, 0x02	; 2
      b4:	aa e1       	ldi	r26, 0x1A	; 26
      b6:	b2 e0       	ldi	r27, 0x02	; 2
      b8:	01 c0       	rjmp	.+2      	; 0xbc <.do_clear_bss_start>

000000ba <.do_clear_bss_loop>:
      ba:	1d 92       	st	X+, r1

000000bc <.do_clear_bss_start>:
      bc:	a4 38       	cpi	r26, 0x84	; 132
      be:	b2 07       	cpc	r27, r18
      c0:	e1 f7       	brne	.-8      	; 0xba <.do_clear_bss_loop>
      c2:	0e 94 fc 14 	call	0x29f8	; 0x29f8 <main>
      c6:	0c 94 1b 1a 	jmp	0x3436	; 0x3436 <_exit>

000000ca <__bad_interrupt>:
      ca:	0c 94 00 00 	jmp	0	; 0x0 <__vectors>

000000ce <adc_read>:
uint16_t adc_read (uint8_t mux)
{

	uint32_t result=0;
	uint8_t e=0;
	ADMUX &= ~(15<<0);
      ce:	90 91 7c 00 	lds	r25, 0x007C	; 0x80007c <__DATA_REGION_ORIGIN__+0x1c>
      d2:	90 7f       	andi	r25, 0xF0	; 240
      d4:	90 93 7c 00 	sts	0x007C, r25	; 0x80007c <__DATA_REGION_ORIGIN__+0x1c>
	ADMUX |= mux;
      d8:	90 91 7c 00 	lds	r25, 0x007C	; 0x80007c <__DATA_REGION_ORIGIN__+0x1c>
      dc:	89 2b       	or	r24, r25
      de:	80 93 7c 00 	sts	0x007C, r24	; 0x80007c <__DATA_REGION_ORIGIN__+0x1c>
	ADCSRA |=  (1<<ADSC)| (1<<ADPS0)| (1<<ADPS1)| (1<<ADPS2);
      e2:	80 91 7a 00 	lds	r24, 0x007A	; 0x80007a <__DATA_REGION_ORIGIN__+0x1a>
      e6:	87 64       	ori	r24, 0x47	; 71
      e8:	80 93 7a 00 	sts	0x007A, r24	; 0x80007a <__DATA_REGION_ORIGIN__+0x1a>
	
	while (ADCSRA & (1<<ADSC))
      ec:	80 91 7a 00 	lds	r24, 0x007A	; 0x80007a <__DATA_REGION_ORIGIN__+0x1a>
      f0:	86 fd       	sbrc	r24, 6
      f2:	fc cf       	rjmp	.-8      	; 0xec <adc_read+0x1e>
      f4:	28 e1       	ldi	r18, 0x18	; 24
      f6:	60 e0       	ldi	r22, 0x00	; 0
      f8:	70 e0       	ldi	r23, 0x00	; 0
      fa:	cb 01       	movw	r24, r22
	{
	}
	
	for (e=0; e<24; e++)
	{
		ADCSRA |=  (1<<ADSC);
      fc:	30 91 7a 00 	lds	r19, 0x007A	; 0x80007a <__DATA_REGION_ORIGIN__+0x1a>
     100:	30 64       	ori	r19, 0x40	; 64
     102:	30 93 7a 00 	sts	0x007A, r19	; 0x80007a <__DATA_REGION_ORIGIN__+0x1a>
		while (ADCSRA & (1<<ADSC))
     106:	30 91 7a 00 	lds	r19, 0x007A	; 0x80007a <__DATA_REGION_ORIGIN__+0x1a>
     10a:	36 fd       	sbrc	r19, 6
     10c:	fc cf       	rjmp	.-8      	; 0x106 <adc_read+0x38>
		{
		}
		result+=ADCW;
     10e:	40 91 78 00 	lds	r20, 0x0078	; 0x800078 <__DATA_REGION_ORIGIN__+0x18>
     112:	50 91 79 00 	lds	r21, 0x0079	; 0x800079 <__DATA_REGION_ORIGIN__+0x19>
     116:	64 0f       	add	r22, r20
     118:	75 1f       	adc	r23, r21
     11a:	81 1d       	adc	r24, r1
     11c:	91 1d       	adc	r25, r1
     11e:	21 50       	subi	r18, 0x01	; 1
	
	while (ADCSRA & (1<<ADSC))
	{
	}
	
	for (e=0; e<24; e++)
     120:	69 f7       	brne	.-38     	; 0xfc <adc_read+0x2e>
	}
	
	result=(result/24);
	
	//ADCSRA &= ~(1<<ADEN);
	return result;
     122:	28 e1       	ldi	r18, 0x18	; 24
     124:	30 e0       	ldi	r19, 0x00	; 0
     126:	40 e0       	ldi	r20, 0x00	; 0
     128:	50 e0       	ldi	r21, 0x00	; 0
     12a:	0e 94 21 19 	call	0x3242	; 0x3242 <__udivmodsi4>
     12e:	c9 01       	movw	r24, r18
     130:	08 95       	ret

00000132 <mcp2515_read_register>:

#include "include/can.h"
// #define DEBUG_CAN

uint8_t mcp2515_read_register(uint8_t adress)
{
     132:	cf 93       	push	r28
     134:	c8 2f       	mov	r28, r24
	uint8_t data=0;
	PORTB &= ~(1<<PB2);
     136:	2a 98       	cbi	0x05, 2	; 5
	spi_put_c(SPI_READ);
     138:	83 e0       	ldi	r24, 0x03	; 3
     13a:	0e 94 97 15 	call	0x2b2e	; 0x2b2e <spi_put_c>
	spi_put_c(adress);
     13e:	8c 2f       	mov	r24, r28
     140:	0e 94 97 15 	call	0x2b2e	; 0x2b2e <spi_put_c>
	data = spi_put_c(0xA0);
     144:	80 ea       	ldi	r24, 0xA0	; 160
     146:	0e 94 97 15 	call	0x2b2e	; 0x2b2e <spi_put_c>
	PORTB |= (1<<PB2);
     14a:	2a 9a       	sbi	0x05, 2	; 5
	return data;
}
     14c:	cf 91       	pop	r28
     14e:	08 95       	ret

00000150 <mcp2515_write_register>:

void mcp2515_write_register( uint8_t adress, uint8_t data )
{
     150:	cf 93       	push	r28
     152:	df 93       	push	r29
     154:	d8 2f       	mov	r29, r24
     156:	c6 2f       	mov	r28, r22
	PORTB &= ~(1<<PB2);
     158:	2a 98       	cbi	0x05, 2	; 5
	spi_put_c(SPI_WRITE);
     15a:	82 e0       	ldi	r24, 0x02	; 2
     15c:	0e 94 97 15 	call	0x2b2e	; 0x2b2e <spi_put_c>
	spi_put_c(adress);
     160:	8d 2f       	mov	r24, r29
     162:	0e 94 97 15 	call	0x2b2e	; 0x2b2e <spi_put_c>
	spi_put_c(data);
     166:	8c 2f       	mov	r24, r28
     168:	0e 94 97 15 	call	0x2b2e	; 0x2b2e <spi_put_c>
	PORTB |= (1<<PB2);
     16c:	2a 9a       	sbi	0x05, 2	; 5
}
     16e:	df 91       	pop	r29
     170:	cf 91       	pop	r28
     172:	08 95       	ret

00000174 <mcp2515_bit_modify>:

void mcp2515_bit_modify(uint8_t adress, uint8_t mask, uint8_t data)
{
     174:	1f 93       	push	r17
     176:	cf 93       	push	r28
     178:	df 93       	push	r29
     17a:	18 2f       	mov	r17, r24
     17c:	d6 2f       	mov	r29, r22
     17e:	c4 2f       	mov	r28, r20
	PORTB &= ~(1<<PB2);
     180:	2a 98       	cbi	0x05, 2	; 5
	spi_put_c(SPI_BIT_MODIFY);
     182:	85 e0       	ldi	r24, 0x05	; 5
     184:	0e 94 97 15 	call	0x2b2e	; 0x2b2e <spi_put_c>
	spi_put_c(adress);
     188:	81 2f       	mov	r24, r17
     18a:	0e 94 97 15 	call	0x2b2e	; 0x2b2e <spi_put_c>
	spi_put_c(mask);
     18e:	8d 2f       	mov	r24, r29
     190:	0e 94 97 15 	call	0x2b2e	; 0x2b2e <spi_put_c>
	spi_put_c(data);
     194:	8c 2f       	mov	r24, r28
     196:	0e 94 97 15 	call	0x2b2e	; 0x2b2e <spi_put_c>
	PORTB |= (1<<PB2);
     19a:	2a 9a       	sbi	0x05, 2	; 5
}
     19c:	df 91       	pop	r29
     19e:	cf 91       	pop	r28
     1a0:	1f 91       	pop	r17
     1a2:	08 95       	ret

000001a4 <mcp2515_init>:
	uart_put_c('-');
}
#endif

void mcp2515_init(uint16_t mask, uint16_t filter)
{
     1a4:	ef 92       	push	r14
     1a6:	ff 92       	push	r15
     1a8:	0f 93       	push	r16
     1aa:	1f 93       	push	r17
     1ac:	cf 93       	push	r28
     1ae:	df 93       	push	r29
     1b0:	8c 01       	movw	r16, r24
     1b2:	eb 01       	movw	r28, r22

		PORTB &= ~(1<<PB2);
     1b4:	2a 98       	cbi	0x05, 2	; 5
		spi_put_c(SPI_RESET);
     1b6:	80 ec       	ldi	r24, 0xC0	; 192
     1b8:	0e 94 97 15 	call	0x2b2e	; 0x2b2e <spi_put_c>
		uint8_t count = 10;
		while ( ( (mcp2515_read_register(CANSTAT) & 0xe0) != 0x80) && (count < 50) )
     1bc:	29 e2       	ldi	r18, 0x29	; 41
     1be:	f2 2e       	mov	r15, r18
     1c0:	8e e0       	ldi	r24, 0x0E	; 14
     1c2:	0e 94 99 00 	call	0x132	; 0x132 <mcp2515_read_register>
     1c6:	80 7e       	andi	r24, 0xE0	; 224
     1c8:	80 38       	cpi	r24, 0x80	; 128
     1ca:	19 f0       	breq	.+6      	; 0x1d2 <mcp2515_init+0x2e>
     1cc:	fa 94       	dec	r15
     1ce:	f1 10       	cpse	r15, r1
     1d0:	f7 cf       	rjmp	.-18     	; 0x1c0 <mcp2515_init+0x1c>
		{
			count++;
		}
		PORTB |= (1<<PB2);
     1d2:	2a 9a       	sbi	0x05, 2	; 5
		simple_delay(10);
     1d4:	8a e0       	ldi	r24, 0x0A	; 10
     1d6:	90 e0       	ldi	r25, 0x00	; 0
     1d8:	0e 94 7e 15 	call	0x2afc	; 0x2afc <simple_delay>

		//BRP = 7
		mcp2515_bit_modify( CNF1, (1<<BRP0)|(1<<BRP1)|(1<<BRP2),  (1<<BRP0)|(1<<BRP1)|(1<<BRP2) );
     1dc:	47 e0       	ldi	r20, 0x07	; 7
     1de:	67 e0       	ldi	r22, 0x07	; 7
     1e0:	8a e2       	ldi	r24, 0x2A	; 42
     1e2:	0e 94 ba 00 	call	0x174	; 0x174 <mcp2515_bit_modify>
		
		//	Prop Seg und Phase Seg1 einstellen
		mcp2515_bit_modify( CNF2,  (1<<BTLMODE) | (1<<PHSEG11), (1<<BTLMODE) | (1<<PHSEG11) );
     1e6:	40 e9       	ldi	r20, 0x90	; 144
     1e8:	60 e9       	ldi	r22, 0x90	; 144
     1ea:	89 e2       	ldi	r24, 0x29	; 41
     1ec:	0e 94 ba 00 	call	0x174	; 0x174 <mcp2515_bit_modify>
		
		//  Wake-up Filter deaktivieren, Phase Seg2 einstellen
		mcp2515_bit_modify( CNF3, (1<<PHSEG21), (1<<PHSEG21) );
     1f0:	42 e0       	ldi	r20, 0x02	; 2
     1f2:	62 e0       	ldi	r22, 0x02	; 2
     1f4:	88 e2       	ldi	r24, 0x28	; 40
     1f6:	0e 94 ba 00 	call	0x174	; 0x174 <mcp2515_bit_modify>
		
		// Aktivieren der Rx Buffer Interrupts
		mcp2515_bit_modify( CANINTE, (1<<RX1IE) | (1<<RX0IE) | (1<<ERRIE), (1<<RX1IE) | (1<<RX0IE) | (1<<ERRIE) );
     1fa:	43 e2       	ldi	r20, 0x23	; 35
     1fc:	63 e2       	ldi	r22, 0x23	; 35
     1fe:	8b e2       	ldi	r24, 0x2B	; 43
     200:	0e 94 ba 00 	call	0x174	; 0x174 <mcp2515_bit_modify>
		//mcp2515_write_register( RXM1SIDL, 0 );
		//mcp2515_write_register( RXM1EID8, 0 );
		//mcp2515_write_register( RXM1EID0, 0 );
		
		//Empfangsmasken Einschalten:
		mcp2515_bit_modify( RXB0CTRL, (1<<RXM0) | (1<<RXM1) | (1<<BUKT), (1<<RXM0) | (1<<BUKT) );
     204:	44 e2       	ldi	r20, 0x24	; 36
     206:	64 e6       	ldi	r22, 0x64	; 100
     208:	80 e6       	ldi	r24, 0x60	; 96
     20a:	0e 94 ba 00 	call	0x174	; 0x174 <mcp2515_bit_modify>
		mcp2515_bit_modify( RXB1CTRL, (1<<RXM0) | (1<<RXM1), (1<<RXM0) ) ;
     20e:	40 e2       	ldi	r20, 0x20	; 32
     210:	60 e6       	ldi	r22, 0x60	; 96
     212:	80 e7       	ldi	r24, 0x70	; 112
     214:	0e 94 ba 00 	call	0x174	; 0x174 <mcp2515_bit_modify>
		
		//Masken setzen:
		mcp2515_write_register( RXM0SIDH, mask>>3 );
     218:	78 01       	movw	r14, r16
     21a:	83 e0       	ldi	r24, 0x03	; 3
     21c:	f6 94       	lsr	r15
     21e:	e7 94       	ror	r14
     220:	8a 95       	dec	r24
     222:	e1 f7       	brne	.-8      	; 0x21c <mcp2515_init+0x78>
     224:	6e 2d       	mov	r22, r14
     226:	80 e2       	ldi	r24, 0x20	; 32
     228:	0e 94 a8 00 	call	0x150	; 0x150 <mcp2515_write_register>
		mcp2515_bit_modify( RXM0SIDL, 0xE0,mask<<5 );
     22c:	02 95       	swap	r16
     22e:	00 0f       	add	r16, r16
     230:	00 7e       	andi	r16, 0xE0	; 224
     232:	40 2f       	mov	r20, r16
     234:	60 ee       	ldi	r22, 0xE0	; 224
     236:	81 e2       	ldi	r24, 0x21	; 33
     238:	0e 94 ba 00 	call	0x174	; 0x174 <mcp2515_bit_modify>
		
		mcp2515_write_register( RXM1SIDH, mask>>3 );
     23c:	6e 2d       	mov	r22, r14
     23e:	84 e2       	ldi	r24, 0x24	; 36
     240:	0e 94 a8 00 	call	0x150	; 0x150 <mcp2515_write_register>
		mcp2515_bit_modify( RXM1SIDL, 0xE0,mask<<5 );
     244:	40 2f       	mov	r20, r16
     246:	60 ee       	ldi	r22, 0xE0	; 224
     248:	85 e2       	ldi	r24, 0x25	; 37
     24a:	0e 94 ba 00 	call	0x174	; 0x174 <mcp2515_bit_modify>
		
		//Filter setzen:
		mcp2515_bit_modify( RXF0SIDH, 0xFF, filter>>3 );
     24e:	8e 01       	movw	r16, r28
     250:	93 e0       	ldi	r25, 0x03	; 3
     252:	16 95       	lsr	r17
     254:	07 95       	ror	r16
     256:	9a 95       	dec	r25
     258:	e1 f7       	brne	.-8      	; 0x252 <mcp2515_init+0xae>
     25a:	40 2f       	mov	r20, r16
     25c:	6f ef       	ldi	r22, 0xFF	; 255
     25e:	80 e0       	ldi	r24, 0x00	; 0
     260:	0e 94 ba 00 	call	0x174	; 0x174 <mcp2515_bit_modify>
		mcp2515_bit_modify( RXF0SIDL, 224,filter<<5 );
     264:	c2 95       	swap	r28
     266:	cc 0f       	add	r28, r28
     268:	c0 7e       	andi	r28, 0xE0	; 224
     26a:	4c 2f       	mov	r20, r28
     26c:	60 ee       	ldi	r22, 0xE0	; 224
     26e:	81 e0       	ldi	r24, 0x01	; 1
     270:	0e 94 ba 00 	call	0x174	; 0x174 <mcp2515_bit_modify>
		
		mcp2515_bit_modify( RXF1SIDH, 0xFF, filter>>3 );
     274:	40 2f       	mov	r20, r16
     276:	6f ef       	ldi	r22, 0xFF	; 255
     278:	84 e0       	ldi	r24, 0x04	; 4
     27a:	0e 94 ba 00 	call	0x174	; 0x174 <mcp2515_bit_modify>
		mcp2515_bit_modify( RXF1SIDL, 224,filter<<5 );
     27e:	4c 2f       	mov	r20, r28
     280:	60 ee       	ldi	r22, 0xE0	; 224
     282:	85 e0       	ldi	r24, 0x05	; 5
     284:	0e 94 ba 00 	call	0x174	; 0x174 <mcp2515_bit_modify>
		
		mcp2515_bit_modify( RXF2SIDH, 0xFF, filter>>3 );
     288:	40 2f       	mov	r20, r16
     28a:	6f ef       	ldi	r22, 0xFF	; 255
     28c:	88 e0       	ldi	r24, 0x08	; 8
     28e:	0e 94 ba 00 	call	0x174	; 0x174 <mcp2515_bit_modify>
		mcp2515_bit_modify( RXF2SIDL, 224,filter<<5 );
     292:	4c 2f       	mov	r20, r28
     294:	60 ee       	ldi	r22, 0xE0	; 224
     296:	89 e0       	ldi	r24, 0x09	; 9
     298:	0e 94 ba 00 	call	0x174	; 0x174 <mcp2515_bit_modify>
		
		mcp2515_bit_modify( RXF3SIDH, 0xFF, filter>>3 );
     29c:	40 2f       	mov	r20, r16
     29e:	6f ef       	ldi	r22, 0xFF	; 255
     2a0:	80 e1       	ldi	r24, 0x10	; 16
     2a2:	0e 94 ba 00 	call	0x174	; 0x174 <mcp2515_bit_modify>
		mcp2515_bit_modify( RXF3SIDL, 224,filter<<5 );
     2a6:	4c 2f       	mov	r20, r28
     2a8:	60 ee       	ldi	r22, 0xE0	; 224
     2aa:	81 e1       	ldi	r24, 0x11	; 17
     2ac:	0e 94 ba 00 	call	0x174	; 0x174 <mcp2515_bit_modify>
		
		mcp2515_bit_modify( RXF4SIDH, 0xFF, filter>>3 );
     2b0:	40 2f       	mov	r20, r16
     2b2:	6f ef       	ldi	r22, 0xFF	; 255
     2b4:	84 e1       	ldi	r24, 0x14	; 20
     2b6:	0e 94 ba 00 	call	0x174	; 0x174 <mcp2515_bit_modify>
		mcp2515_bit_modify( RXF4SIDH, 224,filter<<5 );
     2ba:	4c 2f       	mov	r20, r28
     2bc:	60 ee       	ldi	r22, 0xE0	; 224
     2be:	84 e1       	ldi	r24, 0x14	; 20
     2c0:	0e 94 ba 00 	call	0x174	; 0x174 <mcp2515_bit_modify>
		
		mcp2515_bit_modify( RXF5SIDH, 0xFF, filter>>3 );
     2c4:	40 2f       	mov	r20, r16
     2c6:	6f ef       	ldi	r22, 0xFF	; 255
     2c8:	88 e1       	ldi	r24, 0x18	; 24
     2ca:	0e 94 ba 00 	call	0x174	; 0x174 <mcp2515_bit_modify>
		mcp2515_bit_modify( RXF5SIDH, 224,filter<<5 );
     2ce:	4c 2f       	mov	r20, r28
     2d0:	60 ee       	ldi	r22, 0xE0	; 224
     2d2:	88 e1       	ldi	r24, 0x18	; 24
     2d4:	0e 94 ba 00 	call	0x174	; 0x174 <mcp2515_bit_modify>
		
		
		// Deaktivieren der Pins RXnBF Pins (High Impedance State)
		mcp2515_bit_modify( BFPCTRL,0xFF, 0 );
     2d8:	40 e0       	ldi	r20, 0x00	; 0
     2da:	6f ef       	ldi	r22, 0xFF	; 255
     2dc:	8c e0       	ldi	r24, 0x0C	; 12
     2de:	0e 94 ba 00 	call	0x174	; 0x174 <mcp2515_bit_modify>
		
		// TXnRTS Bits als Inputs schalten
		mcp2515_bit_modify( TXRTSCTRL,0xFF, 0 );
     2e2:	40 e0       	ldi	r20, 0x00	; 0
     2e4:	6f ef       	ldi	r22, 0xFF	; 255
     2e6:	8d e0       	ldi	r24, 0x0D	; 13
     2e8:	0e 94 ba 00 	call	0x174	; 0x174 <mcp2515_bit_modify>
		
		// Device zurueck in den normalen Modus versetzten
		mcp2515_bit_modify( CANCTRL, 0xE0, 0);
     2ec:	40 e0       	ldi	r20, 0x00	; 0
     2ee:	60 ee       	ldi	r22, 0xE0	; 224
     2f0:	8f e0       	ldi	r24, 0x0F	; 15
     2f2:	0e 94 ba 00 	call	0x174	; 0x174 <mcp2515_bit_modify>
		
		//Loopback modus
		//mcp2515_bit_modify( CANCTRL, 0xE0, 0b01000000);
		
		PORTB |= (1<<PB2);
     2f6:	2a 9a       	sbi	0x05, 2	; 5

}
     2f8:	df 91       	pop	r29
     2fa:	cf 91       	pop	r28
     2fc:	1f 91       	pop	r17
     2fe:	0f 91       	pop	r16
     300:	ff 90       	pop	r15
     302:	ef 90       	pop	r14
     304:	08 95       	ret

00000306 <can_send_message>:


uint8_t can_send_message(CANMessage *p_message)
{
     306:	df 92       	push	r13
     308:	ef 92       	push	r14
     30a:	ff 92       	push	r15
     30c:	0f 93       	push	r16
     30e:	1f 93       	push	r17
     310:	cf 93       	push	r28
     312:	df 93       	push	r29
     314:	1f 92       	push	r1
     316:	cd b7       	in	r28, 0x3d	; 61
     318:	de b7       	in	r29, 0x3e	; 62
     31a:	8c 01       	movw	r16, r24
	uint8_t status, address;
	
	// Status des MCP2515 auslesen
	PORTB &= ~(1<<PB2);
     31c:	2a 98       	cbi	0x05, 2	; 5
	spi_put_c(SPI_READ_STATUS);
     31e:	80 ea       	ldi	r24, 0xA0	; 160
     320:	0e 94 97 15 	call	0x2b2e	; 0x2b2e <spi_put_c>
	status = spi_put_c(0xff);
     324:	8f ef       	ldi	r24, 0xFF	; 255
     326:	0e 94 97 15 	call	0x2b2e	; 0x2b2e <spi_put_c>
     32a:	89 83       	std	Y+1, r24	; 0x01
	spi_put_c(0xff);
     32c:	8f ef       	ldi	r24, 0xFF	; 255
     32e:	0e 94 97 15 	call	0x2b2e	; 0x2b2e <spi_put_c>
	PORTB |= (1<<PB2);
     332:	2a 9a       	sbi	0x05, 2	; 5
	*  2   TXB0CNTRL.TXREQ
	*  4   TXB1CNTRL.TXREQ
	*  6   TXB2CNTRL.TXREQ
	*/
	
	if (bit_is_clear(status, 2))
     334:	89 81       	ldd	r24, Y+1	; 0x01
     336:	82 ff       	sbrs	r24, 2
     338:	09 c0       	rjmp	.+18     	; 0x34c <can_send_message+0x46>
	{
		address = 0x00;
	}
	else if (bit_is_clear(status, 4))
     33a:	89 81       	ldd	r24, Y+1	; 0x01
     33c:	84 ff       	sbrs	r24, 4
     33e:	08 c0       	rjmp	.+16     	; 0x350 <can_send_message+0x4a>
	{
		address = 0x02;
	}
	else if (bit_is_clear(status, 6))
     340:	89 81       	ldd	r24, Y+1	; 0x01
     342:	86 fd       	sbrc	r24, 6
     344:	50 c0       	rjmp	.+160    	; 0x3e6 <can_send_message+0xe0>
	{
		address = 0x04;
     346:	44 e0       	ldi	r20, 0x04	; 4
     348:	f4 2e       	mov	r15, r20
     34a:	04 c0       	rjmp	.+8      	; 0x354 <can_send_message+0x4e>
	*  6   TXB2CNTRL.TXREQ
	*/
	
	if (bit_is_clear(status, 2))
	{
		address = 0x00;
     34c:	f1 2c       	mov	r15, r1
     34e:	02 c0       	rjmp	.+4      	; 0x354 <can_send_message+0x4e>
	}
	else if (bit_is_clear(status, 4))
	{
		address = 0x02;
     350:	32 e0       	ldi	r19, 0x02	; 2
     352:	f3 2e       	mov	r15, r19
		/* Alle Puffer sind belegt,
		Nachricht kann nicht verschickt werden */
		return 0;
	}
	
	PORTB &= ~(1<<PB2);    // CS Low
     354:	2a 98       	cbi	0x05, 2	; 5
	spi_put_c(SPI_WRITE_TX | address);
     356:	8f 2d       	mov	r24, r15
     358:	80 64       	ori	r24, 0x40	; 64
     35a:	0e 94 97 15 	call	0x2b2e	; 0x2b2e <spi_put_c>
	
	// Standard ID einstellen
	spi_put_c((uint8_t) (p_message->id>>3));
     35e:	f8 01       	movw	r30, r16
     360:	80 81       	ld	r24, Z
     362:	91 81       	ldd	r25, Z+1	; 0x01
     364:	23 e0       	ldi	r18, 0x03	; 3
     366:	96 95       	lsr	r25
     368:	87 95       	ror	r24
     36a:	2a 95       	dec	r18
     36c:	e1 f7       	brne	.-8      	; 0x366 <can_send_message+0x60>
     36e:	0e 94 97 15 	call	0x2b2e	; 0x2b2e <spi_put_c>
	spi_put_c((uint8_t) (p_message->id<<5));
     372:	f8 01       	movw	r30, r16
     374:	80 81       	ld	r24, Z
     376:	82 95       	swap	r24
     378:	88 0f       	add	r24, r24
     37a:	80 7e       	andi	r24, 0xE0	; 224
     37c:	0e 94 97 15 	call	0x2b2e	; 0x2b2e <spi_put_c>
	
	// Extended ID
	spi_put_c(0x00);
     380:	80 e0       	ldi	r24, 0x00	; 0
     382:	0e 94 97 15 	call	0x2b2e	; 0x2b2e <spi_put_c>
	spi_put_c(0x00);
     386:	80 e0       	ldi	r24, 0x00	; 0
     388:	0e 94 97 15 	call	0x2b2e	; 0x2b2e <spi_put_c>
	
	uint8_t length = p_message->length;
     38c:	f8 01       	movw	r30, r16
     38e:	e3 80       	ldd	r14, Z+3	; 0x03
     390:	f8 e0       	ldi	r31, 0x08	; 8
     392:	fe 15       	cp	r31, r14
     394:	10 f4       	brcc	.+4      	; 0x39a <can_send_message+0x94>
     396:	88 e0       	ldi	r24, 0x08	; 8
     398:	e8 2e       	mov	r14, r24
	{
		length = 8;
	}
	
	// Ist die Nachricht ein "Remote Transmit Request" ?
	if (p_message->rtr)
     39a:	f8 01       	movw	r30, r16
     39c:	82 81       	ldd	r24, Z+2	; 0x02
     39e:	88 23       	and	r24, r24
     3a0:	29 f0       	breq	.+10     	; 0x3ac <can_send_message+0xa6>
	{
		/* Ein RTR hat zwar eine Laenge,
		aber enthaelt keine Daten */
		
		// Nachrichten Laenge + RTR einstellen
		spi_put_c((1<<RTR) | length);
     3a2:	8e 2d       	mov	r24, r14
     3a4:	80 64       	ori	r24, 0x40	; 64
     3a6:	0e 94 97 15 	call	0x2b2e	; 0x2b2e <spi_put_c>
     3aa:	0f c0       	rjmp	.+30     	; 0x3ca <can_send_message+0xc4>
	}
	else
	{
		// Nachrichten Laenge einstellen
		spi_put_c(length);
     3ac:	8e 2d       	mov	r24, r14
     3ae:	0e 94 97 15 	call	0x2b2e	; 0x2b2e <spi_put_c>
     3b2:	0c 5f       	subi	r16, 0xFC	; 252
     3b4:	1f 4f       	sbci	r17, 0xFF	; 255
		
		// Daten
		for (uint8_t i=0;i<length;i++)
     3b6:	d1 2c       	mov	r13, r1
     3b8:	de 14       	cp	r13, r14
     3ba:	39 f0       	breq	.+14     	; 0x3ca <can_send_message+0xc4>
		{
			spi_put_c(p_message->data[i]);
     3bc:	f8 01       	movw	r30, r16
     3be:	81 91       	ld	r24, Z+
     3c0:	8f 01       	movw	r16, r30
     3c2:	0e 94 97 15 	call	0x2b2e	; 0x2b2e <spi_put_c>
	{
		// Nachrichten Laenge einstellen
		spi_put_c(length);
		
		// Daten
		for (uint8_t i=0;i<length;i++)
     3c6:	d3 94       	inc	r13
     3c8:	f7 cf       	rjmp	.-18     	; 0x3b8 <can_send_message+0xb2>
		{
			spi_put_c(p_message->data[i]);
		}
	}
	PORTB |= (1<<PB2);      // CS auf High
     3ca:	2a 9a       	sbi	0x05, 2	; 5
	
	asm volatile ("nop");
     3cc:	00 00       	nop
	
	/* CAN Nachricht verschicken
	die letzten drei Bit im RTS Kommando geben an welcher
	Puffer gesendet werden soll */
	PORTB &= ~(1<<PB2);    // CS wieder Low
     3ce:	2a 98       	cbi	0x05, 2	; 5
	if (address == 0x00)
     3d0:	f1 10       	cpse	r15, r1
     3d2:	02 c0       	rjmp	.+4      	; 0x3d8 <can_send_message+0xd2>
	{
		spi_put_c(SPI_RTS | 0x01);
     3d4:	81 e8       	ldi	r24, 0x81	; 129
     3d6:	02 c0       	rjmp	.+4      	; 0x3dc <can_send_message+0xd6>
	}
	else
	{
		spi_put_c(SPI_RTS | address);
     3d8:	8f 2d       	mov	r24, r15
     3da:	80 68       	ori	r24, 0x80	; 128
     3dc:	0e 94 97 15 	call	0x2b2e	; 0x2b2e <spi_put_c>
	}
	PORTB |= (1<<PB2);      // CS auf High
     3e0:	2a 9a       	sbi	0x05, 2	; 5
	
	return 1;
     3e2:	81 e0       	ldi	r24, 0x01	; 1
     3e4:	01 c0       	rjmp	.+2      	; 0x3e8 <can_send_message+0xe2>
	}
	else
	{
		/* Alle Puffer sind belegt,
		Nachricht kann nicht verschickt werden */
		return 0;
     3e6:	80 e0       	ldi	r24, 0x00	; 0
		spi_put_c(SPI_RTS | address);
	}
	PORTB |= (1<<PB2);      // CS auf High
	
	return 1;
}
     3e8:	0f 90       	pop	r0
     3ea:	df 91       	pop	r29
     3ec:	cf 91       	pop	r28
     3ee:	1f 91       	pop	r17
     3f0:	0f 91       	pop	r16
     3f2:	ff 90       	pop	r15
     3f4:	ef 90       	pop	r14
     3f6:	df 90       	pop	r13
     3f8:	08 95       	ret

000003fa <mcp2515_read_rx_status>:


uint8_t mcp2515_read_rx_status(void)
{
     3fa:	cf 93       	push	r28
	uint8_t data;
	
	// /CS des MCP2515 auf Low ziehen
	PORTB &= ~(1<<PB2);
     3fc:	2a 98       	cbi	0x05, 2	; 5
	
	spi_put_c(SPI_RX_STATUS);
     3fe:	80 eb       	ldi	r24, 0xB0	; 176
     400:	0e 94 97 15 	call	0x2b2e	; 0x2b2e <spi_put_c>
	data = spi_put_c(0xff);
     404:	8f ef       	ldi	r24, 0xFF	; 255
     406:	0e 94 97 15 	call	0x2b2e	; 0x2b2e <spi_put_c>
     40a:	c8 2f       	mov	r28, r24
	
	// Die Daten werden noch einmal wiederholt gesendet,
	// man braucht also nur eins der beiden Bytes auswerten.
	spi_put_c(0xff);
     40c:	8f ef       	ldi	r24, 0xFF	; 255
     40e:	0e 94 97 15 	call	0x2b2e	; 0x2b2e <spi_put_c>
	
	// /CS Leitung wieder freigeben
	PORTB |= (1<<PB2);
     412:	2a 9a       	sbi	0x05, 2	; 5
	
	return data;
}
     414:	8c 2f       	mov	r24, r28
     416:	cf 91       	pop	r28
     418:	08 95       	ret

0000041a <can_get_message>:

uint8_t can_get_message(CANMessage *p_message)
{
     41a:	cf 92       	push	r12
     41c:	df 92       	push	r13
     41e:	ef 92       	push	r14
     420:	ff 92       	push	r15
     422:	0f 93       	push	r16
     424:	1f 93       	push	r17
     426:	cf 93       	push	r28
     428:	df 93       	push	r29
     42a:	1f 92       	push	r1
     42c:	cd b7       	in	r28, 0x3d	; 61
     42e:	de b7       	in	r29, 0x3e	; 62
     430:	8c 01       	movw	r16, r24
	// Status auslesen
	uint8_t status = mcp2515_read_rx_status();
     432:	0e 94 fd 01 	call	0x3fa	; 0x3fa <mcp2515_read_rx_status>
     436:	89 83       	std	Y+1, r24	; 0x01

	if (bit_is_set(status,6))
     438:	89 81       	ldd	r24, Y+1	; 0x01
     43a:	86 ff       	sbrs	r24, 6
     43c:	03 c0       	rjmp	.+6      	; 0x444 <can_get_message+0x2a>
	{
		// Nachricht in Puffer 0
		
		PORTB &= ~(1<<PB2);	    // CS Low
     43e:	2a 98       	cbi	0x05, 2	; 5
		spi_put_c(SPI_READ_RX);
     440:	80 e9       	ldi	r24, 0x90	; 144
     442:	05 c0       	rjmp	.+10     	; 0x44e <can_get_message+0x34>
	}
	else if (bit_is_set(status,7))
     444:	89 81       	ldd	r24, Y+1	; 0x01
     446:	87 ff       	sbrs	r24, 7
     448:	4e c0       	rjmp	.+156    	; 0x4e6 <can_get_message+0xcc>
	{
		// Nachricht in Puffer 1
		
		PORTB &= ~(1<<PB2);    // CS Low
     44a:	2a 98       	cbi	0x05, 2	; 5
		spi_put_c(SPI_READ_RX | 0x04);
     44c:	84 e9       	ldi	r24, 0x94	; 148
     44e:	0e 94 97 15 	call	0x2b2e	; 0x2b2e <spi_put_c>
		/* Fehler: Keine neue Nachricht vorhanden */
		return 0xff;
	}
	
	// Standard ID auslesen
	p_message->id =  (uint16_t) spi_put_c(0xff) << 3;
     452:	8f ef       	ldi	r24, 0xFF	; 255
     454:	0e 94 97 15 	call	0x2b2e	; 0x2b2e <spi_put_c>
     458:	28 e0       	ldi	r18, 0x08	; 8
     45a:	82 9f       	mul	r24, r18
     45c:	c0 01       	movw	r24, r0
     45e:	11 24       	eor	r1, r1
     460:	f8 01       	movw	r30, r16
     462:	91 83       	std	Z+1, r25	; 0x01
     464:	80 83       	st	Z, r24
	p_message->id |= (uint16_t) spi_put_c(0xff) >> 5;
     466:	8f ef       	ldi	r24, 0xFF	; 255
     468:	0e 94 97 15 	call	0x2b2e	; 0x2b2e <spi_put_c>
     46c:	28 2f       	mov	r18, r24
     46e:	22 95       	swap	r18
     470:	26 95       	lsr	r18
     472:	27 70       	andi	r18, 0x07	; 7
     474:	f8 01       	movw	r30, r16
     476:	80 81       	ld	r24, Z
     478:	91 81       	ldd	r25, Z+1	; 0x01
     47a:	82 2b       	or	r24, r18
     47c:	91 83       	std	Z+1, r25	; 0x01
     47e:	80 83       	st	Z, r24
	
	spi_put_c(0xff);
     480:	8f ef       	ldi	r24, 0xFF	; 255
     482:	0e 94 97 15 	call	0x2b2e	; 0x2b2e <spi_put_c>
	spi_put_c(0xff);
     486:	8f ef       	ldi	r24, 0xFF	; 255
     488:	0e 94 97 15 	call	0x2b2e	; 0x2b2e <spi_put_c>
	
	// Laenge auslesen
	uint8_t length = spi_put_c(0xff) & 0x0f;
     48c:	8f ef       	ldi	r24, 0xFF	; 255
     48e:	0e 94 97 15 	call	0x2b2e	; 0x2b2e <spi_put_c>
     492:	8f 70       	andi	r24, 0x0F	; 15
     494:	e8 2e       	mov	r14, r24
	p_message->length = length;
     496:	f8 01       	movw	r30, r16
     498:	83 83       	std	Z+3, r24	; 0x03
     49a:	68 01       	movw	r12, r16
     49c:	f4 e0       	ldi	r31, 0x04	; 4
     49e:	cf 0e       	add	r12, r31
     4a0:	d1 1c       	adc	r13, r1
	
	// Daten auslesen
	for (uint8_t i=0;i<length;i++)
     4a2:	f1 2c       	mov	r15, r1
     4a4:	fe 14       	cp	r15, r14
     4a6:	41 f0       	breq	.+16     	; 0x4b8 <can_get_message+0x9e>
	{
		p_message->data[i] = spi_put_c(0xff);
     4a8:	8f ef       	ldi	r24, 0xFF	; 255
     4aa:	0e 94 97 15 	call	0x2b2e	; 0x2b2e <spi_put_c>
     4ae:	f6 01       	movw	r30, r12
     4b0:	81 93       	st	Z+, r24
     4b2:	6f 01       	movw	r12, r30
	// Laenge auslesen
	uint8_t length = spi_put_c(0xff) & 0x0f;
	p_message->length = length;
	
	// Daten auslesen
	for (uint8_t i=0;i<length;i++)
     4b4:	f3 94       	inc	r15
     4b6:	f6 cf       	rjmp	.-20     	; 0x4a4 <can_get_message+0x8a>
	{
		p_message->data[i] = spi_put_c(0xff);
	}
	
	PORTB |= (1<<PB2);
     4b8:	2a 9a       	sbi	0x05, 2	; 5
	
	if (bit_is_set(status,3))
     4ba:	89 81       	ldd	r24, Y+1	; 0x01
     4bc:	83 ff       	sbrs	r24, 3
     4be:	04 c0       	rjmp	.+8      	; 0x4c8 <can_get_message+0xae>
	{
		p_message->rtr = 1;
     4c0:	81 e0       	ldi	r24, 0x01	; 1
     4c2:	f8 01       	movw	r30, r16
     4c4:	82 83       	std	Z+2, r24	; 0x02
     4c6:	02 c0       	rjmp	.+4      	; 0x4cc <can_get_message+0xb2>
	}
	else
	{
		p_message->rtr = 0;
     4c8:	f8 01       	movw	r30, r16
     4ca:	12 82       	std	Z+2, r1	; 0x02
	}
	
	// Interrupt Flag loeschen
	if (bit_is_set(status,6))
     4cc:	89 81       	ldd	r24, Y+1	; 0x01
	{
		mcp2515_bit_modify(CANINTF, (1<<RX0IF), 0);
     4ce:	40 e0       	ldi	r20, 0x00	; 0
	{
		p_message->rtr = 0;
	}
	
	// Interrupt Flag loeschen
	if (bit_is_set(status,6))
     4d0:	86 ff       	sbrs	r24, 6
     4d2:	02 c0       	rjmp	.+4      	; 0x4d8 <can_get_message+0xbe>
	{
		mcp2515_bit_modify(CANINTF, (1<<RX0IF), 0);
     4d4:	61 e0       	ldi	r22, 0x01	; 1
     4d6:	01 c0       	rjmp	.+2      	; 0x4da <can_get_message+0xc0>
	}
	else
	{
		mcp2515_bit_modify(CANINTF, (1<<RX1IF), 0);
     4d8:	62 e0       	ldi	r22, 0x02	; 2
     4da:	8c e2       	ldi	r24, 0x2C	; 44
     4dc:	0e 94 ba 00 	call	0x174	; 0x174 <mcp2515_bit_modify>
	}
	
	return (status & 0x07);
     4e0:	89 81       	ldd	r24, Y+1	; 0x01
     4e2:	87 70       	andi	r24, 0x07	; 7
     4e4:	01 c0       	rjmp	.+2      	; 0x4e8 <can_get_message+0xce>
		spi_put_c(SPI_READ_RX | 0x04);
	}
	else
	{
		/* Fehler: Keine neue Nachricht vorhanden */
		return 0xff;
     4e6:	8f ef       	ldi	r24, 0xFF	; 255
	{
		mcp2515_bit_modify(CANINTF, (1<<RX1IF), 0);
	}
	
	return (status & 0x07);
}
     4e8:	0f 90       	pop	r0
     4ea:	df 91       	pop	r29
     4ec:	cf 91       	pop	r28
     4ee:	1f 91       	pop	r17
     4f0:	0f 91       	pop	r16
     4f2:	ff 90       	pop	r15
     4f4:	ef 90       	pop	r14
     4f6:	df 90       	pop	r13
     4f8:	cf 90       	pop	r12
     4fa:	08 95       	ret

000004fc <bmp_get_cal>:
	adress_n=adress_n>>1;
	wa_hyt(address_o,adress_n);
	ra_hyt(adress_n);
		return 0;
	
}
     4fc:	cf 93       	push	r28
     4fe:	df 93       	push	r29
     500:	00 d0       	rcall	.+0      	; 0x502 <__stack+0x3>
     502:	1f 92       	push	r1
     504:	cd b7       	in	r28, 0x3d	; 61
     506:	de b7       	in	r29, 0x3e	; 62
     508:	8e ee       	ldi	r24, 0xEE	; 238
     50a:	89 83       	std	Y+1, r24	; 0x01
     50c:	8a ea       	ldi	r24, 0xAA	; 170
     50e:	8a 83       	std	Y+2, r24	; 0x02
     510:	43 9a       	sbi	0x08, 3	; 8
     512:	21 e0       	ldi	r18, 0x01	; 1
     514:	46 e1       	ldi	r20, 0x16	; 22
     516:	62 e0       	ldi	r22, 0x02	; 2
     518:	ce 01       	movw	r24, r28
     51a:	01 96       	adiw	r24, 0x01	; 1
     51c:	0e 94 db 11 	call	0x23b6	; 0x23b6 <i2c_comm>
     520:	fc 01       	movw	r30, r24
     522:	43 98       	cbi	0x08, 3	; 8
     524:	80 81       	ld	r24, Z
     526:	91 81       	ldd	r25, Z+1	; 0x01
     528:	98 27       	eor	r25, r24
     52a:	89 27       	eor	r24, r25
     52c:	98 27       	eor	r25, r24
     52e:	90 93 4e 02 	sts	0x024E, r25	; 0x80024e <AC1+0x1>
     532:	80 93 4d 02 	sts	0x024D, r24	; 0x80024d <AC1>
     536:	82 81       	ldd	r24, Z+2	; 0x02
     538:	93 81       	ldd	r25, Z+3	; 0x03
     53a:	98 27       	eor	r25, r24
     53c:	89 27       	eor	r24, r25
     53e:	98 27       	eor	r25, r24
     540:	90 93 70 02 	sts	0x0270, r25	; 0x800270 <AC2+0x1>
     544:	80 93 6f 02 	sts	0x026F, r24	; 0x80026f <AC2>
     548:	84 81       	ldd	r24, Z+4	; 0x04
     54a:	95 81       	ldd	r25, Z+5	; 0x05
     54c:	98 27       	eor	r25, r24
     54e:	89 27       	eor	r24, r25
     550:	98 27       	eor	r25, r24
     552:	90 93 72 02 	sts	0x0272, r25	; 0x800272 <AC3+0x1>
     556:	80 93 71 02 	sts	0x0271, r24	; 0x800271 <AC3>
     55a:	86 81       	ldd	r24, Z+6	; 0x06
     55c:	97 81       	ldd	r25, Z+7	; 0x07
     55e:	98 27       	eor	r25, r24
     560:	89 27       	eor	r24, r25
     562:	98 27       	eor	r25, r24
     564:	90 93 6c 02 	sts	0x026C, r25	; 0x80026c <AC4+0x1>
     568:	80 93 6b 02 	sts	0x026B, r24	; 0x80026b <AC4>
     56c:	80 85       	ldd	r24, Z+8	; 0x08
     56e:	91 85       	ldd	r25, Z+9	; 0x09
     570:	98 27       	eor	r25, r24
     572:	89 27       	eor	r24, r25
     574:	98 27       	eor	r25, r24
     576:	90 93 69 02 	sts	0x0269, r25	; 0x800269 <AC5+0x1>
     57a:	80 93 68 02 	sts	0x0268, r24	; 0x800268 <AC5>
     57e:	82 85       	ldd	r24, Z+10	; 0x0a
     580:	93 85       	ldd	r25, Z+11	; 0x0b
     582:	98 27       	eor	r25, r24
     584:	89 27       	eor	r24, r25
     586:	98 27       	eor	r25, r24
     588:	90 93 50 02 	sts	0x0250, r25	; 0x800250 <AC6+0x1>
     58c:	80 93 4f 02 	sts	0x024F, r24	; 0x80024f <AC6>
     590:	84 85       	ldd	r24, Z+12	; 0x0c
     592:	95 85       	ldd	r25, Z+13	; 0x0d
     594:	98 27       	eor	r25, r24
     596:	89 27       	eor	r24, r25
     598:	98 27       	eor	r25, r24
     59a:	90 93 81 02 	sts	0x0281, r25	; 0x800281 <B1+0x1>
     59e:	80 93 80 02 	sts	0x0280, r24	; 0x800280 <B1>
     5a2:	86 85       	ldd	r24, Z+14	; 0x0e
     5a4:	97 85       	ldd	r25, Z+15	; 0x0f
     5a6:	98 27       	eor	r25, r24
     5a8:	89 27       	eor	r24, r25
     5aa:	98 27       	eor	r25, r24
     5ac:	90 93 75 02 	sts	0x0275, r25	; 0x800275 <B2+0x1>
     5b0:	80 93 74 02 	sts	0x0274, r24	; 0x800274 <B2>
     5b4:	80 89       	ldd	r24, Z+16	; 0x10
     5b6:	91 89       	ldd	r25, Z+17	; 0x11
     5b8:	98 27       	eor	r25, r24
     5ba:	89 27       	eor	r24, r25
     5bc:	98 27       	eor	r25, r24
     5be:	90 93 6e 02 	sts	0x026E, r25	; 0x80026e <MB+0x1>
     5c2:	80 93 6d 02 	sts	0x026D, r24	; 0x80026d <MB>
     5c6:	82 89       	ldd	r24, Z+18	; 0x12
     5c8:	93 89       	ldd	r25, Z+19	; 0x13
     5ca:	98 27       	eor	r25, r24
     5cc:	89 27       	eor	r24, r25
     5ce:	98 27       	eor	r25, r24
     5d0:	90 93 83 02 	sts	0x0283, r25	; 0x800283 <MC+0x1>
     5d4:	80 93 82 02 	sts	0x0282, r24	; 0x800282 <MC>
     5d8:	84 89       	ldd	r24, Z+20	; 0x14
     5da:	95 89       	ldd	r25, Z+21	; 0x15
     5dc:	98 27       	eor	r25, r24
     5de:	89 27       	eor	r24, r25
     5e0:	98 27       	eor	r25, r24
     5e2:	90 93 48 02 	sts	0x0248, r25	; 0x800248 <MD+0x1>
     5e6:	80 93 47 02 	sts	0x0247, r24	; 0x800247 <MD>
     5ea:	0f 90       	pop	r0
     5ec:	0f 90       	pop	r0
     5ee:	0f 90       	pop	r0
     5f0:	df 91       	pop	r29
     5f2:	cf 91       	pop	r28
     5f4:	08 95       	ret

000005f6 <bmp_get_values>:
     5f6:	3f 92       	push	r3
     5f8:	4f 92       	push	r4
     5fa:	5f 92       	push	r5
     5fc:	6f 92       	push	r6
     5fe:	7f 92       	push	r7
     600:	8f 92       	push	r8
     602:	9f 92       	push	r9
     604:	af 92       	push	r10
     606:	bf 92       	push	r11
     608:	cf 92       	push	r12
     60a:	df 92       	push	r13
     60c:	ef 92       	push	r14
     60e:	ff 92       	push	r15
     610:	0f 93       	push	r16
     612:	1f 93       	push	r17
     614:	cf 93       	push	r28
     616:	df 93       	push	r29
     618:	cd b7       	in	r28, 0x3d	; 61
     61a:	de b7       	in	r29, 0x3e	; 62
     61c:	2b 97       	sbiw	r28, 0x0b	; 11
     61e:	0f b6       	in	r0, 0x3f	; 63
     620:	f8 94       	cli
     622:	de bf       	out	0x3e, r29	; 62
     624:	0f be       	out	0x3f, r0	; 63
     626:	cd bf       	out	0x3d, r28	; 61
     628:	5c 01       	movw	r10, r24
     62a:	8b 01       	movw	r16, r22
     62c:	8e ee       	ldi	r24, 0xEE	; 238
     62e:	89 83       	std	Y+1, r24	; 0x01
     630:	84 ef       	ldi	r24, 0xF4	; 244
     632:	8a 83       	std	Y+2, r24	; 0x02
     634:	8e e2       	ldi	r24, 0x2E	; 46
     636:	8b 83       	std	Y+3, r24	; 0x03
     638:	81 e0       	ldi	r24, 0x01	; 1
     63a:	80 93 b8 00 	sts	0x00B8, r24	; 0x8000b8 <__DATA_REGION_ORIGIN__+0x58>
     63e:	43 9a       	sbi	0x08, 3	; 8
     640:	93 e0       	ldi	r25, 0x03	; 3
     642:	f9 2e       	mov	r15, r25
     644:	20 e0       	ldi	r18, 0x00	; 0
     646:	40 e0       	ldi	r20, 0x00	; 0
     648:	63 e0       	ldi	r22, 0x03	; 3
     64a:	ce 01       	movw	r24, r28
     64c:	01 96       	adiw	r24, 0x01	; 1
     64e:	0e 94 db 11 	call	0x23b6	; 0x23b6 <i2c_comm>
     652:	80 91 44 02 	lds	r24, 0x0244	; 0x800244 <I2CBuffer+0x1d>
     656:	88 23       	and	r24, r24
     658:	19 f0       	breq	.+6      	; 0x660 <bmp_get_values+0x6a>
     65a:	fa 94       	dec	r15
     65c:	f1 10       	cpse	r15, r1
     65e:	f2 cf       	rjmp	.-28     	; 0x644 <bmp_get_values+0x4e>
     660:	8e e1       	ldi	r24, 0x1E	; 30
     662:	90 e0       	ldi	r25, 0x00	; 0
     664:	0e 94 7e 15 	call	0x2afc	; 0x2afc <simple_delay>
     668:	8e ee       	ldi	r24, 0xEE	; 238
     66a:	89 83       	std	Y+1, r24	; 0x01
     66c:	86 ef       	ldi	r24, 0xF6	; 246
     66e:	8a 83       	std	Y+2, r24	; 0x02
     670:	83 e0       	ldi	r24, 0x03	; 3
     672:	f8 2e       	mov	r15, r24
     674:	21 e0       	ldi	r18, 0x01	; 1
     676:	42 e0       	ldi	r20, 0x02	; 2
     678:	62 e0       	ldi	r22, 0x02	; 2
     67a:	ce 01       	movw	r24, r28
     67c:	01 96       	adiw	r24, 0x01	; 1
     67e:	0e 94 db 11 	call	0x23b6	; 0x23b6 <i2c_comm>
     682:	6c 01       	movw	r12, r24
     684:	81 e0       	ldi	r24, 0x01	; 1
     686:	90 e0       	ldi	r25, 0x00	; 0
     688:	0e 94 7e 15 	call	0x2afc	; 0x2afc <simple_delay>
     68c:	80 91 44 02 	lds	r24, 0x0244	; 0x800244 <I2CBuffer+0x1d>
     690:	81 11       	cpse	r24, r1
     692:	14 c0       	rjmp	.+40     	; 0x6bc <bmp_get_values+0xc6>
     694:	8e e1       	ldi	r24, 0x1E	; 30
     696:	90 e0       	ldi	r25, 0x00	; 0
     698:	0e 94 7e 15 	call	0x2afc	; 0x2afc <simple_delay>
     69c:	d6 01       	movw	r26, r12
     69e:	4d 90       	ld	r4, X+
     6a0:	5c 90       	ld	r5, X
     6a2:	54 24       	eor	r5, r4
     6a4:	45 24       	eor	r4, r5
     6a6:	54 24       	eor	r5, r4
     6a8:	61 2c       	mov	r6, r1
     6aa:	71 2c       	mov	r7, r1
     6ac:	8e ee       	ldi	r24, 0xEE	; 238
     6ae:	89 83       	std	Y+1, r24	; 0x01
     6b0:	84 ef       	ldi	r24, 0xF4	; 244
     6b2:	8a 83       	std	Y+2, r24	; 0x02
     6b4:	8b 83       	std	Y+3, r24	; 0x03
     6b6:	b3 e0       	ldi	r27, 0x03	; 3
     6b8:	fb 2e       	mov	r15, r27
     6ba:	07 c0       	rjmp	.+14     	; 0x6ca <bmp_get_values+0xd4>
     6bc:	fa 94       	dec	r15
     6be:	f1 10       	cpse	r15, r1
     6c0:	d9 cf       	rjmp	.-78     	; 0x674 <bmp_get_values+0x7e>
     6c2:	e8 cf       	rjmp	.-48     	; 0x694 <bmp_get_values+0x9e>
     6c4:	fa 94       	dec	r15
     6c6:	ff 20       	and	r15, r15
     6c8:	79 f0       	breq	.+30     	; 0x6e8 <bmp_get_values+0xf2>
     6ca:	20 e0       	ldi	r18, 0x00	; 0
     6cc:	40 e0       	ldi	r20, 0x00	; 0
     6ce:	63 e0       	ldi	r22, 0x03	; 3
     6d0:	ce 01       	movw	r24, r28
     6d2:	01 96       	adiw	r24, 0x01	; 1
     6d4:	0e 94 db 11 	call	0x23b6	; 0x23b6 <i2c_comm>
     6d8:	81 e0       	ldi	r24, 0x01	; 1
     6da:	90 e0       	ldi	r25, 0x00	; 0
     6dc:	0e 94 7e 15 	call	0x2afc	; 0x2afc <simple_delay>
     6e0:	80 91 44 02 	lds	r24, 0x0244	; 0x800244 <I2CBuffer+0x1d>
     6e4:	81 11       	cpse	r24, r1
     6e6:	ee cf       	rjmp	.-36     	; 0x6c4 <bmp_get_values+0xce>
     6e8:	8e e1       	ldi	r24, 0x1E	; 30
     6ea:	90 e0       	ldi	r25, 0x00	; 0
     6ec:	0e 94 7e 15 	call	0x2afc	; 0x2afc <simple_delay>
     6f0:	8e ee       	ldi	r24, 0xEE	; 238
     6f2:	89 83       	std	Y+1, r24	; 0x01
     6f4:	86 ef       	ldi	r24, 0xF6	; 246
     6f6:	8a 83       	std	Y+2, r24	; 0x02
     6f8:	a3 e0       	ldi	r26, 0x03	; 3
     6fa:	da 2e       	mov	r13, r26
     6fc:	21 e0       	ldi	r18, 0x01	; 1
     6fe:	43 e0       	ldi	r20, 0x03	; 3
     700:	62 e0       	ldi	r22, 0x02	; 2
     702:	ce 01       	movw	r24, r28
     704:	01 96       	adiw	r24, 0x01	; 1
     706:	0e 94 db 11 	call	0x23b6	; 0x23b6 <i2c_comm>
     70a:	7c 01       	movw	r14, r24
     70c:	81 e0       	ldi	r24, 0x01	; 1
     70e:	90 e0       	ldi	r25, 0x00	; 0
     710:	0e 94 7e 15 	call	0x2afc	; 0x2afc <simple_delay>
     714:	80 91 44 02 	lds	r24, 0x0244	; 0x800244 <I2CBuffer+0x1d>
     718:	81 11       	cpse	r24, r1
     71a:	06 c0       	rjmp	.+12     	; 0x728 <bmp_get_values+0x132>
     71c:	43 98       	cbi	0x08, 3	; 8
     71e:	80 91 44 02 	lds	r24, 0x0244	; 0x800244 <I2CBuffer+0x1d>
     722:	88 23       	and	r24, r24
     724:	29 f0       	breq	.+10     	; 0x730 <bmp_get_values+0x13a>
     726:	71 c1       	rjmp	.+738    	; 0xa0a <bmp_get_values+0x414>
     728:	da 94       	dec	r13
     72a:	d1 10       	cpse	r13, r1
     72c:	e7 cf       	rjmp	.-50     	; 0x6fc <bmp_get_values+0x106>
     72e:	f6 cf       	rjmp	.-20     	; 0x71c <bmp_get_values+0x126>
     730:	3f b6       	in	r3, 0x3f	; 63
     732:	f8 94       	cli
     734:	f7 01       	movw	r30, r14
     736:	20 81       	ld	r18, Z
     738:	82 2f       	mov	r24, r18
     73a:	90 e0       	ldi	r25, 0x00	; 0
     73c:	a0 e0       	ldi	r26, 0x00	; 0
     73e:	b0 e0       	ldi	r27, 0x00	; 0
     740:	bc 01       	movw	r22, r24
     742:	55 27       	eor	r21, r21
     744:	44 27       	eor	r20, r20
     746:	82 81       	ldd	r24, Z+2	; 0x02
     748:	48 2b       	or	r20, r24
     74a:	81 81       	ldd	r24, Z+1	; 0x01
     74c:	90 e0       	ldi	r25, 0x00	; 0
     74e:	98 2f       	mov	r25, r24
     750:	88 27       	eor	r24, r24
     752:	a0 e0       	ldi	r26, 0x00	; 0
     754:	b0 e0       	ldi	r27, 0x00	; 0
     756:	6a 01       	movw	r12, r20
     758:	7b 01       	movw	r14, r22
     75a:	c8 2a       	or	r12, r24
     75c:	d9 2a       	or	r13, r25
     75e:	ea 2a       	or	r14, r26
     760:	fb 2a       	or	r15, r27
     762:	a7 01       	movw	r20, r14
     764:	96 01       	movw	r18, r12
     766:	65 e0       	ldi	r22, 0x05	; 5
     768:	56 95       	lsr	r21
     76a:	47 95       	ror	r20
     76c:	37 95       	ror	r19
     76e:	27 95       	ror	r18
     770:	6a 95       	dec	r22
     772:	d1 f7       	brne	.-12     	; 0x768 <bmp_get_values+0x172>
     774:	2c 83       	std	Y+4, r18	; 0x04
     776:	3d 83       	std	Y+5, r19	; 0x05
     778:	4e 83       	std	Y+6, r20	; 0x06
     77a:	5f 83       	std	Y+7, r21	; 0x07
     77c:	80 91 4f 02 	lds	r24, 0x024F	; 0x80024f <AC6>
     780:	90 91 50 02 	lds	r25, 0x0250	; 0x800250 <AC6+0x1>
     784:	a3 01       	movw	r20, r6
     786:	92 01       	movw	r18, r4
     788:	28 1b       	sub	r18, r24
     78a:	39 0b       	sbc	r19, r25
     78c:	41 09       	sbc	r20, r1
     78e:	51 09       	sbc	r21, r1
     790:	a0 91 68 02 	lds	r26, 0x0268	; 0x800268 <AC5>
     794:	b0 91 69 02 	lds	r27, 0x0269	; 0x800269 <AC5+0x1>
     798:	0e 94 62 19 	call	0x32c4	; 0x32c4 <__muluhisi3>
     79c:	2b 01       	movw	r4, r22
     79e:	3c 01       	movw	r6, r24
     7a0:	7f e0       	ldi	r23, 0x0F	; 15
     7a2:	75 94       	asr	r7
     7a4:	67 94       	ror	r6
     7a6:	57 94       	ror	r5
     7a8:	47 94       	ror	r4
     7aa:	7a 95       	dec	r23
     7ac:	d1 f7       	brne	.-12     	; 0x7a2 <bmp_get_values+0x1ac>
     7ae:	60 91 82 02 	lds	r22, 0x0282	; 0x800282 <MC>
     7b2:	70 91 83 02 	lds	r23, 0x0283	; 0x800283 <MC+0x1>
     7b6:	cb 01       	movw	r24, r22
     7b8:	77 0f       	add	r23, r23
     7ba:	aa 0b       	sbc	r26, r26
     7bc:	bb 0b       	sbc	r27, r27
     7be:	bc 01       	movw	r22, r24
     7c0:	cd 01       	movw	r24, r26
     7c2:	eb e0       	ldi	r30, 0x0B	; 11
     7c4:	66 0f       	add	r22, r22
     7c6:	77 1f       	adc	r23, r23
     7c8:	88 1f       	adc	r24, r24
     7ca:	99 1f       	adc	r25, r25
     7cc:	ea 95       	dec	r30
     7ce:	d1 f7       	brne	.-12     	; 0x7c4 <bmp_get_values+0x1ce>
     7d0:	20 91 47 02 	lds	r18, 0x0247	; 0x800247 <MD>
     7d4:	30 91 48 02 	lds	r19, 0x0248	; 0x800248 <MD+0x1>
     7d8:	69 01       	movw	r12, r18
     7da:	33 0f       	add	r19, r19
     7dc:	ee 08       	sbc	r14, r14
     7de:	ff 08       	sbc	r15, r15
     7e0:	a7 01       	movw	r20, r14
     7e2:	96 01       	movw	r18, r12
     7e4:	24 0d       	add	r18, r4
     7e6:	35 1d       	adc	r19, r5
     7e8:	46 1d       	adc	r20, r6
     7ea:	57 1d       	adc	r21, r7
     7ec:	0e 94 43 19 	call	0x3286	; 0x3286 <__divmodsi4>
     7f0:	42 0e       	add	r4, r18
     7f2:	53 1e       	adc	r5, r19
     7f4:	64 1e       	adc	r6, r20
     7f6:	75 1e       	adc	r7, r21
     7f8:	d3 01       	movw	r26, r6
     7fa:	c2 01       	movw	r24, r4
     7fc:	08 96       	adiw	r24, 0x08	; 8
     7fe:	a1 1d       	adc	r26, r1
     800:	b1 1d       	adc	r27, r1
     802:	f4 e0       	ldi	r31, 0x04	; 4
     804:	b5 95       	asr	r27
     806:	a7 95       	ror	r26
     808:	97 95       	ror	r25
     80a:	87 95       	ror	r24
     80c:	fa 95       	dec	r31
     80e:	d1 f7       	brne	.-12     	; 0x804 <bmp_get_values+0x20e>
     810:	f5 01       	movw	r30, r10
     812:	91 83       	std	Z+1, r25	; 0x01
     814:	80 83       	st	Z, r24
     816:	53 01       	movw	r10, r6
     818:	42 01       	movw	r8, r4
     81a:	f0 ea       	ldi	r31, 0xA0	; 160
     81c:	8f 1a       	sub	r8, r31
     81e:	ff e0       	ldi	r31, 0x0F	; 15
     820:	9f 0a       	sbc	r9, r31
     822:	a1 08       	sbc	r10, r1
     824:	b1 08       	sbc	r11, r1
     826:	a5 01       	movw	r20, r10
     828:	94 01       	movw	r18, r8
     82a:	c5 01       	movw	r24, r10
     82c:	b4 01       	movw	r22, r8
     82e:	0e 94 11 19 	call	0x3222	; 0x3222 <__mulsi3>
     832:	6b 01       	movw	r12, r22
     834:	7c 01       	movw	r14, r24
     836:	ac e0       	ldi	r26, 0x0C	; 12
     838:	f5 94       	asr	r15
     83a:	e7 94       	ror	r14
     83c:	d7 94       	ror	r13
     83e:	c7 94       	ror	r12
     840:	aa 95       	dec	r26
     842:	d1 f7       	brne	.-12     	; 0x838 <bmp_get_values+0x242>
     844:	e0 91 4d 02 	lds	r30, 0x024D	; 0x80024d <AC1>
     848:	f0 91 4e 02 	lds	r31, 0x024E	; 0x80024e <AC1+0x1>
     84c:	a0 91 71 02 	lds	r26, 0x0271	; 0x800271 <AC3>
     850:	b0 91 72 02 	lds	r27, 0x0272	; 0x800272 <AC3+0x1>
     854:	0e 94 6d 19 	call	0x32da	; 0x32da <__mulshisi3>
     858:	2b 01       	movw	r4, r22
     85a:	3c 01       	movw	r6, r24
     85c:	bd e0       	ldi	r27, 0x0D	; 13
     85e:	75 94       	asr	r7
     860:	67 94       	ror	r6
     862:	57 94       	ror	r5
     864:	47 94       	ror	r4
     866:	ba 95       	dec	r27
     868:	d1 f7       	brne	.-12     	; 0x85e <bmp_get_values+0x268>
     86a:	a0 91 80 02 	lds	r26, 0x0280	; 0x800280 <B1>
     86e:	b0 91 81 02 	lds	r27, 0x0281	; 0x800281 <B1+0x1>
     872:	a7 01       	movw	r20, r14
     874:	96 01       	movw	r18, r12
     876:	0e 94 6d 19 	call	0x32da	; 0x32da <__mulshisi3>
     87a:	bb 27       	eor	r27, r27
     87c:	97 fd       	sbrc	r25, 7
     87e:	b0 95       	com	r27
     880:	ab 2f       	mov	r26, r27
     882:	84 0d       	add	r24, r4
     884:	95 1d       	adc	r25, r5
     886:	a6 1d       	adc	r26, r6
     888:	b7 1d       	adc	r27, r7
     88a:	02 96       	adiw	r24, 0x02	; 2
     88c:	a1 1d       	adc	r26, r1
     88e:	b1 1d       	adc	r27, r1
     890:	32 e0       	ldi	r19, 0x02	; 2
     892:	b5 95       	asr	r27
     894:	a7 95       	ror	r26
     896:	97 95       	ror	r25
     898:	87 95       	ror	r24
     89a:	3a 95       	dec	r19
     89c:	d1 f7       	brne	.-12     	; 0x892 <bmp_get_values+0x29c>
     89e:	9c 01       	movw	r18, r24
     8a0:	ad 01       	movw	r20, r26
     8a2:	30 58       	subi	r19, 0x80	; 128
     8a4:	4f 4f       	sbci	r20, 0xFF	; 255
     8a6:	5f 4f       	sbci	r21, 0xFF	; 255
     8a8:	a0 91 6b 02 	lds	r26, 0x026B	; 0x80026b <AC4>
     8ac:	b0 91 6c 02 	lds	r27, 0x026C	; 0x80026c <AC4+0x1>
     8b0:	0e 94 62 19 	call	0x32c4	; 0x32c4 <__muluhisi3>
     8b4:	2b 01       	movw	r4, r22
     8b6:	3c 01       	movw	r6, r24
     8b8:	4f e0       	ldi	r20, 0x0F	; 15
     8ba:	76 94       	lsr	r7
     8bc:	67 94       	ror	r6
     8be:	57 94       	ror	r5
     8c0:	47 94       	ror	r4
     8c2:	4a 95       	dec	r20
     8c4:	d1 f7       	brne	.-12     	; 0x8ba <bmp_get_values+0x2c4>
     8c6:	a0 91 74 02 	lds	r26, 0x0274	; 0x800274 <B2>
     8ca:	b0 91 75 02 	lds	r27, 0x0275	; 0x800275 <B2+0x1>
     8ce:	a7 01       	movw	r20, r14
     8d0:	96 01       	movw	r18, r12
     8d2:	0e 94 6d 19 	call	0x32da	; 0x32da <__mulshisi3>
     8d6:	9b 01       	movw	r18, r22
     8d8:	ac 01       	movw	r20, r24
     8da:	6b e0       	ldi	r22, 0x0B	; 11
     8dc:	55 95       	asr	r21
     8de:	47 95       	ror	r20
     8e0:	37 95       	ror	r19
     8e2:	27 95       	ror	r18
     8e4:	6a 95       	dec	r22
     8e6:	d1 f7       	brne	.-12     	; 0x8dc <bmp_get_values+0x2e6>
     8e8:	28 87       	std	Y+8, r18	; 0x08
     8ea:	39 87       	std	Y+9, r19	; 0x09
     8ec:	4a 87       	std	Y+10, r20	; 0x0a
     8ee:	5b 87       	std	Y+11, r21	; 0x0b
     8f0:	a0 91 6f 02 	lds	r26, 0x026F	; 0x80026f <AC2>
     8f4:	b0 91 70 02 	lds	r27, 0x0270	; 0x800270 <AC2+0x1>
     8f8:	a5 01       	movw	r20, r10
     8fa:	94 01       	movw	r18, r8
     8fc:	0e 94 6d 19 	call	0x32da	; 0x32da <__mulshisi3>
     900:	dc 01       	movw	r26, r24
     902:	cb 01       	movw	r24, r22
     904:	7b e0       	ldi	r23, 0x0B	; 11
     906:	b5 95       	asr	r27
     908:	a7 95       	ror	r26
     90a:	97 95       	ror	r25
     90c:	87 95       	ror	r24
     90e:	7a 95       	dec	r23
     910:	d1 f7       	brne	.-12     	; 0x906 <bmp_get_values+0x310>
     912:	28 85       	ldd	r18, Y+8	; 0x08
     914:	39 85       	ldd	r19, Y+9	; 0x09
     916:	4a 85       	ldd	r20, Y+10	; 0x0a
     918:	5b 85       	ldd	r21, Y+11	; 0x0b
     91a:	82 0f       	add	r24, r18
     91c:	93 1f       	adc	r25, r19
     91e:	a4 1f       	adc	r26, r20
     920:	b5 1f       	adc	r27, r21
     922:	af 01       	movw	r20, r30
     924:	ff 0f       	add	r31, r31
     926:	66 0b       	sbc	r22, r22
     928:	77 0b       	sbc	r23, r23
     92a:	e2 e0       	ldi	r30, 0x02	; 2
     92c:	44 0f       	add	r20, r20
     92e:	55 1f       	adc	r21, r21
     930:	66 1f       	adc	r22, r22
     932:	77 1f       	adc	r23, r23
     934:	ea 95       	dec	r30
     936:	d1 f7       	brne	.-12     	; 0x92c <bmp_get_values+0x336>
     938:	84 0f       	add	r24, r20
     93a:	95 1f       	adc	r25, r21
     93c:	a6 1f       	adc	r26, r22
     93e:	b7 1f       	adc	r27, r23
     940:	88 0f       	add	r24, r24
     942:	99 1f       	adc	r25, r25
     944:	aa 1f       	adc	r26, r26
     946:	bb 1f       	adc	r27, r27
     948:	2c 81       	ldd	r18, Y+4	; 0x04
     94a:	3d 81       	ldd	r19, Y+5	; 0x05
     94c:	4e 81       	ldd	r20, Y+6	; 0x06
     94e:	5f 81       	ldd	r21, Y+7	; 0x07
     950:	28 1b       	sub	r18, r24
     952:	39 0b       	sbc	r19, r25
     954:	4a 0b       	sbc	r20, r26
     956:	5b 0b       	sbc	r21, r27
     958:	aa e6       	ldi	r26, 0x6A	; 106
     95a:	b8 e1       	ldi	r27, 0x18	; 24
     95c:	0e 94 62 19 	call	0x32c4	; 0x32c4 <__muluhisi3>
     960:	97 fd       	sbrc	r25, 7
     962:	0b c0       	rjmp	.+22     	; 0x97a <bmp_get_values+0x384>
     964:	66 0f       	add	r22, r22
     966:	77 1f       	adc	r23, r23
     968:	88 1f       	adc	r24, r24
     96a:	99 1f       	adc	r25, r25
     96c:	a3 01       	movw	r20, r6
     96e:	92 01       	movw	r18, r4
     970:	0e 94 21 19 	call	0x3242	; 0x3242 <__udivmodsi4>
     974:	49 01       	movw	r8, r18
     976:	5a 01       	movw	r10, r20
     978:	0a c0       	rjmp	.+20     	; 0x98e <bmp_get_values+0x398>
     97a:	a3 01       	movw	r20, r6
     97c:	92 01       	movw	r18, r4
     97e:	0e 94 21 19 	call	0x3242	; 0x3242 <__udivmodsi4>
     982:	49 01       	movw	r8, r18
     984:	5a 01       	movw	r10, r20
     986:	88 0c       	add	r8, r8
     988:	99 1c       	adc	r9, r9
     98a:	aa 1c       	adc	r10, r10
     98c:	bb 1c       	adc	r11, r11
     98e:	99 27       	eor	r25, r25
     990:	b7 fc       	sbrc	r11, 7
     992:	9a 95       	dec	r25
     994:	8b 2d       	mov	r24, r11
     996:	7a 2d       	mov	r23, r10
     998:	69 2d       	mov	r22, r9
     99a:	9b 01       	movw	r18, r22
     99c:	ac 01       	movw	r20, r24
     99e:	0e 94 11 19 	call	0x3222	; 0x3222 <__mulsi3>
     9a2:	9b 01       	movw	r18, r22
     9a4:	ac 01       	movw	r20, r24
     9a6:	ae ed       	ldi	r26, 0xDE	; 222
     9a8:	bb e0       	ldi	r27, 0x0B	; 11
     9aa:	0e 94 62 19 	call	0x32c4	; 0x32c4 <__muluhisi3>
     9ae:	6b 01       	movw	r12, r22
     9b0:	7c 01       	movw	r14, r24
     9b2:	a3 e4       	ldi	r26, 0x43	; 67
     9b4:	b3 ee       	ldi	r27, 0xE3	; 227
     9b6:	a5 01       	movw	r20, r10
     9b8:	94 01       	movw	r18, r8
     9ba:	0e 94 70 19 	call	0x32e0	; 0x32e0 <__mulohisi3>
     9be:	bb 27       	eor	r27, r27
     9c0:	97 fd       	sbrc	r25, 7
     9c2:	b0 95       	com	r27
     9c4:	ab 2f       	mov	r26, r27
     9c6:	67 01       	movw	r12, r14
     9c8:	ff 24       	eor	r15, r15
     9ca:	d7 fc       	sbrc	r13, 7
     9cc:	f0 94       	com	r15
     9ce:	ef 2c       	mov	r14, r15
     9d0:	c8 0e       	add	r12, r24
     9d2:	d9 1e       	adc	r13, r25
     9d4:	ea 1e       	adc	r14, r26
     9d6:	fb 1e       	adc	r15, r27
     9d8:	3f ec       	ldi	r19, 0xCF	; 207
     9da:	c3 0e       	add	r12, r19
     9dc:	3e e0       	ldi	r19, 0x0E	; 14
     9de:	d3 1e       	adc	r13, r19
     9e0:	e1 1c       	adc	r14, r1
     9e2:	f1 1c       	adc	r15, r1
     9e4:	44 e0       	ldi	r20, 0x04	; 4
     9e6:	f5 94       	asr	r15
     9e8:	e7 94       	ror	r14
     9ea:	d7 94       	ror	r13
     9ec:	c7 94       	ror	r12
     9ee:	4a 95       	dec	r20
     9f0:	d1 f7       	brne	.-12     	; 0x9e6 <bmp_get_values+0x3f0>
     9f2:	c8 0c       	add	r12, r8
     9f4:	d9 1c       	adc	r13, r9
     9f6:	ea 1c       	adc	r14, r10
     9f8:	fb 1c       	adc	r15, r11
     9fa:	d8 01       	movw	r26, r16
     9fc:	cd 92       	st	X+, r12
     9fe:	dd 92       	st	X+, r13
     a00:	ed 92       	st	X+, r14
     a02:	fc 92       	st	X, r15
     a04:	13 97       	sbiw	r26, 0x03	; 3
     a06:	3f be       	out	0x3f, r3	; 63
     a08:	0e c0       	rjmp	.+28     	; 0xa26 <bmp_get_values+0x430>
     a0a:	81 ef       	ldi	r24, 0xF1	; 241
     a0c:	98 ed       	ldi	r25, 0xD8	; 216
     a0e:	f5 01       	movw	r30, r10
     a10:	91 83       	std	Z+1, r25	; 0x01
     a12:	80 83       	st	Z, r24
     a14:	81 ef       	ldi	r24, 0xF1	; 241
     a16:	98 ed       	ldi	r25, 0xD8	; 216
     a18:	af ef       	ldi	r26, 0xFF	; 255
     a1a:	bf ef       	ldi	r27, 0xFF	; 255
     a1c:	f8 01       	movw	r30, r16
     a1e:	80 83       	st	Z, r24
     a20:	91 83       	std	Z+1, r25	; 0x01
     a22:	a2 83       	std	Z+2, r26	; 0x02
     a24:	b3 83       	std	Z+3, r27	; 0x03
     a26:	2b 96       	adiw	r28, 0x0b	; 11
     a28:	0f b6       	in	r0, 0x3f	; 63
     a2a:	f8 94       	cli
     a2c:	de bf       	out	0x3e, r29	; 62
     a2e:	0f be       	out	0x3f, r0	; 63
     a30:	cd bf       	out	0x3d, r28	; 61
     a32:	df 91       	pop	r29
     a34:	cf 91       	pop	r28
     a36:	1f 91       	pop	r17
     a38:	0f 91       	pop	r16
     a3a:	ff 90       	pop	r15
     a3c:	ef 90       	pop	r14
     a3e:	df 90       	pop	r13
     a40:	cf 90       	pop	r12
     a42:	bf 90       	pop	r11
     a44:	af 90       	pop	r10
     a46:	9f 90       	pop	r9
     a48:	8f 90       	pop	r8
     a4a:	7f 90       	pop	r7
     a4c:	6f 90       	pop	r6
     a4e:	5f 90       	pop	r5
     a50:	4f 90       	pop	r4
     a52:	3f 90       	pop	r3
     a54:	08 95       	ret

00000a56 <k30_get_values>:
     a56:	cf 92       	push	r12
     a58:	df 92       	push	r13
     a5a:	ef 92       	push	r14
     a5c:	ff 92       	push	r15
     a5e:	0f 93       	push	r16
     a60:	1f 93       	push	r17
     a62:	cf 93       	push	r28
     a64:	df 93       	push	r29
     a66:	00 d0       	rcall	.+0      	; 0xa68 <k30_get_values+0x12>
     a68:	00 d0       	rcall	.+0      	; 0xa6a <k30_get_values+0x14>
     a6a:	1f 92       	push	r1
     a6c:	cd b7       	in	r28, 0x3d	; 61
     a6e:	de b7       	in	r29, 0x3e	; 62
     a70:	8c 01       	movw	r16, r24
     a72:	6b 01       	movw	r12, r22
     a74:	80 e1       	ldi	r24, 0x10	; 16
     a76:	80 93 b8 00 	sts	0x00B8, r24	; 0x8000b8 <__DATA_REGION_ORIGIN__+0x58>
     a7a:	42 9a       	sbi	0x08, 2	; 8
     a7c:	80 ed       	ldi	r24, 0xD0	; 208
     a7e:	89 83       	std	Y+1, r24	; 0x01
     a80:	82 e2       	ldi	r24, 0x22	; 34
     a82:	8a 83       	std	Y+2, r24	; 0x02
     a84:	1b 82       	std	Y+3, r1	; 0x03
     a86:	88 e0       	ldi	r24, 0x08	; 8
     a88:	8c 83       	std	Y+4, r24	; 0x04
     a8a:	8a e2       	ldi	r24, 0x2A	; 42
     a8c:	8d 83       	std	Y+5, r24	; 0x05
     a8e:	fb 01       	movw	r30, r22
     a90:	10 82       	st	Z, r1
     a92:	10 92 7e 02 	sts	0x027E, r1	; 0x80027e <milisecCounter3+0x1>
     a96:	10 92 7d 02 	sts	0x027D, r1	; 0x80027d <milisecCounter3>
     a9a:	e1 2c       	mov	r14, r1
     a9c:	f1 2c       	mov	r15, r1
     a9e:	20 e0       	ldi	r18, 0x00	; 0
     aa0:	40 e0       	ldi	r20, 0x00	; 0
     aa2:	65 e0       	ldi	r22, 0x05	; 5
     aa4:	ce 01       	movw	r24, r28
     aa6:	01 96       	adiw	r24, 0x01	; 1
     aa8:	0e 94 db 11 	call	0x23b6	; 0x23b6 <i2c_comm>
     aac:	8e e1       	ldi	r24, 0x1E	; 30
     aae:	90 e0       	ldi	r25, 0x00	; 0
     ab0:	0e 94 7e 15 	call	0x2afc	; 0x2afc <simple_delay>
     ab4:	80 91 44 02 	lds	r24, 0x0244	; 0x800244 <I2CBuffer+0x1d>
     ab8:	81 11       	cpse	r24, r1
     aba:	10 c0       	rjmp	.+32     	; 0xadc <k30_get_values+0x86>
     abc:	20 e0       	ldi	r18, 0x00	; 0
     abe:	44 e0       	ldi	r20, 0x04	; 4
     ac0:	60 e0       	ldi	r22, 0x00	; 0
     ac2:	ce 01       	movw	r24, r28
     ac4:	01 96       	adiw	r24, 0x01	; 1
     ac6:	0e 94 db 11 	call	0x23b6	; 0x23b6 <i2c_comm>
     aca:	7c 01       	movw	r14, r24
     acc:	80 91 44 02 	lds	r24, 0x0244	; 0x800244 <I2CBuffer+0x1d>
     ad0:	88 23       	and	r24, r24
     ad2:	79 f0       	breq	.+30     	; 0xaf2 <k30_get_values+0x9c>
     ad4:	8e e1       	ldi	r24, 0x1E	; 30
     ad6:	90 e0       	ldi	r25, 0x00	; 0
     ad8:	0e 94 7e 15 	call	0x2afc	; 0x2afc <simple_delay>
     adc:	80 91 44 02 	lds	r24, 0x0244	; 0x800244 <I2CBuffer+0x1d>
     ae0:	88 23       	and	r24, r24
     ae2:	39 f0       	breq	.+14     	; 0xaf2 <k30_get_values+0x9c>
     ae4:	80 91 7d 02 	lds	r24, 0x027D	; 0x80027d <milisecCounter3>
     ae8:	90 91 7e 02 	lds	r25, 0x027E	; 0x80027e <milisecCounter3+0x1>
     aec:	88 3c       	cpi	r24, 0xC8	; 200
     aee:	91 05       	cpc	r25, r1
     af0:	b0 f2       	brcs	.-84     	; 0xa9e <k30_get_values+0x48>
     af2:	42 98       	cbi	0x08, 2	; 8
     af4:	81 e0       	ldi	r24, 0x01	; 1
     af6:	80 93 b8 00 	sts	0x00B8, r24	; 0x8000b8 <__DATA_REGION_ORIGIN__+0x58>
     afa:	80 91 44 02 	lds	r24, 0x0244	; 0x800244 <I2CBuffer+0x1d>
     afe:	81 11       	cpse	r24, r1
     b00:	1d c0       	rjmp	.+58     	; 0xb3c <k30_get_values+0xe6>
     b02:	f7 01       	movw	r30, r14
     b04:	90 81       	ld	r25, Z
     b06:	89 2f       	mov	r24, r25
     b08:	81 70       	andi	r24, 0x01	; 1
     b0a:	90 ff       	sbrs	r25, 0
     b0c:	1d c0       	rjmp	.+58     	; 0xb48 <k30_get_values+0xf2>
     b0e:	80 81       	ld	r24, Z
     b10:	f6 01       	movw	r30, r12
     b12:	80 83       	st	Z, r24
     b14:	f7 01       	movw	r30, r14
     b16:	82 81       	ldd	r24, Z+2	; 0x02
     b18:	90 e0       	ldi	r25, 0x00	; 0
     b1a:	f8 01       	movw	r30, r16
     b1c:	91 83       	std	Z+1, r25	; 0x01
     b1e:	80 83       	st	Z, r24
     b20:	f7 01       	movw	r30, r14
     b22:	21 81       	ldd	r18, Z+1	; 0x01
     b24:	f8 01       	movw	r30, r16
     b26:	80 81       	ld	r24, Z
     b28:	91 81       	ldd	r25, Z+1	; 0x01
     b2a:	92 2b       	or	r25, r18
     b2c:	91 83       	std	Z+1, r25	; 0x01
     b2e:	80 83       	st	Z, r24
     b30:	80 81       	ld	r24, Z
     b32:	91 81       	ldd	r25, Z+1	; 0x01
     b34:	91 83       	std	Z+1, r25	; 0x01
     b36:	80 83       	st	Z, r24
     b38:	81 e0       	ldi	r24, 0x01	; 1
     b3a:	06 c0       	rjmp	.+12     	; 0xb48 <k30_get_values+0xf2>
     b3c:	81 ef       	ldi	r24, 0xF1	; 241
     b3e:	98 ed       	ldi	r25, 0xD8	; 216
     b40:	f8 01       	movw	r30, r16
     b42:	91 83       	std	Z+1, r25	; 0x01
     b44:	80 83       	st	Z, r24
     b46:	80 e0       	ldi	r24, 0x00	; 0
     b48:	0f 90       	pop	r0
     b4a:	0f 90       	pop	r0
     b4c:	0f 90       	pop	r0
     b4e:	0f 90       	pop	r0
     b50:	0f 90       	pop	r0
     b52:	df 91       	pop	r29
     b54:	cf 91       	pop	r28
     b56:	1f 91       	pop	r17
     b58:	0f 91       	pop	r16
     b5a:	ff 90       	pop	r15
     b5c:	ef 90       	pop	r14
     b5e:	df 90       	pop	r13
     b60:	cf 90       	pop	r12
     b62:	08 95       	ret

00000b64 <hyt_get_values>:
     b64:	4f 92       	push	r4
     b66:	5f 92       	push	r5
     b68:	6f 92       	push	r6
     b6a:	7f 92       	push	r7
     b6c:	af 92       	push	r10
     b6e:	bf 92       	push	r11
     b70:	cf 92       	push	r12
     b72:	df 92       	push	r13
     b74:	ef 92       	push	r14
     b76:	ff 92       	push	r15
     b78:	0f 93       	push	r16
     b7a:	1f 93       	push	r17
     b7c:	cf 93       	push	r28
     b7e:	df 93       	push	r29
     b80:	1f 92       	push	r1
     b82:	cd b7       	in	r28, 0x3d	; 61
     b84:	de b7       	in	r29, 0x3e	; 62
     b86:	5c 01       	movw	r10, r24
     b88:	8b 01       	movw	r16, r22
     b8a:	80 e5       	ldi	r24, 0x50	; 80
     b8c:	89 83       	std	Y+1, r24	; 0x01
     b8e:	85 e0       	ldi	r24, 0x05	; 5
     b90:	90 e0       	ldi	r25, 0x00	; 0
     b92:	0e 94 7e 15 	call	0x2afc	; 0x2afc <simple_delay>
     b96:	20 e0       	ldi	r18, 0x00	; 0
     b98:	40 e0       	ldi	r20, 0x00	; 0
     b9a:	61 e0       	ldi	r22, 0x01	; 1
     b9c:	ce 01       	movw	r24, r28
     b9e:	01 96       	adiw	r24, 0x01	; 1
     ba0:	0e 94 db 11 	call	0x23b6	; 0x23b6 <i2c_comm>
     ba4:	85 e0       	ldi	r24, 0x05	; 5
     ba6:	90 e0       	ldi	r25, 0x00	; 0
     ba8:	0e 94 7e 15 	call	0x2afc	; 0x2afc <simple_delay>
     bac:	20 e0       	ldi	r18, 0x00	; 0
     bae:	44 e0       	ldi	r20, 0x04	; 4
     bb0:	60 e0       	ldi	r22, 0x00	; 0
     bb2:	ce 01       	movw	r24, r28
     bb4:	01 96       	adiw	r24, 0x01	; 1
     bb6:	0e 94 db 11 	call	0x23b6	; 0x23b6 <i2c_comm>
     bba:	fc 01       	movw	r30, r24
     bbc:	90 81       	ld	r25, Z
     bbe:	96 fd       	sbrc	r25, 6
     bc0:	5b c0       	rjmp	.+182    	; 0xc78 <hyt_get_values+0x114>
     bc2:	80 91 44 02 	lds	r24, 0x0244	; 0x800244 <I2CBuffer+0x1d>
     bc6:	81 11       	cpse	r24, r1
     bc8:	60 c0       	rjmp	.+192    	; 0xc8a <hyt_get_values+0x126>
     bca:	9f 73       	andi	r25, 0x3F	; 63
     bcc:	90 83       	st	Z, r25
     bce:	22 81       	ldd	r18, Z+2	; 0x02
     bd0:	63 81       	ldd	r22, Z+3	; 0x03
     bd2:	66 95       	lsr	r22
     bd4:	66 95       	lsr	r22
     bd6:	80 e4       	ldi	r24, 0x40	; 64
     bd8:	28 9f       	mul	r18, r24
     bda:	a0 01       	movw	r20, r0
     bdc:	11 24       	eor	r1, r1
     bde:	64 2b       	or	r22, r20
     be0:	63 83       	std	Z+3, r22	; 0x03
     be2:	82 2f       	mov	r24, r18
     be4:	86 95       	lsr	r24
     be6:	86 95       	lsr	r24
     be8:	82 83       	std	Z+2, r24	; 0x02
     bea:	c9 2e       	mov	r12, r25
     bec:	d1 2c       	mov	r13, r1
     bee:	dc 2c       	mov	r13, r12
     bf0:	cc 24       	eor	r12, r12
     bf2:	0d 2c       	mov	r0, r13
     bf4:	00 0c       	add	r0, r0
     bf6:	ee 08       	sbc	r14, r14
     bf8:	ff 08       	sbc	r15, r15
     bfa:	28 2f       	mov	r18, r24
     bfc:	30 e0       	ldi	r19, 0x00	; 0
     bfe:	32 2f       	mov	r19, r18
     c00:	22 27       	eor	r18, r18
     c02:	c9 01       	movw	r24, r18
     c04:	33 0f       	add	r19, r19
     c06:	aa 0b       	sbc	r26, r26
     c08:	bb 0b       	sbc	r27, r27
     c0a:	9c 01       	movw	r18, r24
     c0c:	ad 01       	movw	r20, r26
     c0e:	26 2b       	or	r18, r22
     c10:	a4 e7       	ldi	r26, 0x74	; 116
     c12:	b0 e4       	ldi	r27, 0x40	; 64
     c14:	0e 94 62 19 	call	0x32c4	; 0x32c4 <__muluhisi3>
     c18:	2b 01       	movw	r4, r22
     c1a:	3c 01       	movw	r6, r24
     c1c:	20 e2       	ldi	r18, 0x20	; 32
     c1e:	52 0e       	add	r5, r18
     c20:	61 1c       	adc	r6, r1
     c22:	71 1c       	adc	r7, r1
     c24:	5e e0       	ldi	r21, 0x0E	; 14
     c26:	75 94       	asr	r7
     c28:	67 94       	ror	r6
     c2a:	57 94       	ror	r5
     c2c:	47 94       	ror	r4
     c2e:	5a 95       	dec	r21
     c30:	d1 f7       	brne	.-12     	; 0xc26 <hyt_get_values+0xc2>
     c32:	81 81       	ldd	r24, Z+1	; 0x01
     c34:	a7 01       	movw	r20, r14
     c36:	96 01       	movw	r18, r12
     c38:	28 2b       	or	r18, r24
     c3a:	a0 e1       	ldi	r26, 0x10	; 16
     c3c:	b7 e2       	ldi	r27, 0x27	; 39
     c3e:	0e 94 62 19 	call	0x32c4	; 0x32c4 <__muluhisi3>
     c42:	dc 01       	movw	r26, r24
     c44:	cb 01       	movw	r24, r22
     c46:	90 5e       	subi	r25, 0xE0	; 224
     c48:	af 4f       	sbci	r26, 0xFF	; 255
     c4a:	bf 4f       	sbci	r27, 0xFF	; 255
     c4c:	e0 ea       	ldi	r30, 0xA0	; 160
     c4e:	4e 1a       	sub	r4, r30
     c50:	ef e0       	ldi	r30, 0x0F	; 15
     c52:	5e 0a       	sbc	r5, r30
     c54:	61 08       	sbc	r6, r1
     c56:	71 08       	sbc	r7, r1
     c58:	f5 01       	movw	r30, r10
     c5a:	51 82       	std	Z+1, r5	; 0x01
     c5c:	40 82       	st	Z, r4
     c5e:	6e e0       	ldi	r22, 0x0E	; 14
     c60:	b5 95       	asr	r27
     c62:	a7 95       	ror	r26
     c64:	97 95       	ror	r25
     c66:	87 95       	ror	r24
     c68:	6a 95       	dec	r22
     c6a:	d1 f7       	brne	.-12     	; 0xc60 <hyt_get_values+0xfc>
     c6c:	f8 01       	movw	r30, r16
     c6e:	91 83       	std	Z+1, r25	; 0x01
     c70:	80 83       	st	Z, r24
     c72:	10 92 26 02 	sts	0x0226, r1	; 0x800226 <twi_error_flag>
     c76:	19 c0       	rjmp	.+50     	; 0xcaa <hyt_get_values+0x146>
     c78:	20 91 7d 02 	lds	r18, 0x027D	; 0x80027d <milisecCounter3>
     c7c:	30 91 7e 02 	lds	r19, 0x027E	; 0x80027e <milisecCounter3+0x1>
     c80:	28 3c       	cpi	r18, 0xC8	; 200
     c82:	31 05       	cpc	r19, r1
     c84:	08 f4       	brcc	.+2      	; 0xc88 <hyt_get_values+0x124>
     c86:	8e cf       	rjmp	.-228    	; 0xba4 <hyt_get_values+0x40>
     c88:	9c cf       	rjmp	.-200    	; 0xbc2 <hyt_get_values+0x5e>
     c8a:	80 91 44 02 	lds	r24, 0x0244	; 0x800244 <I2CBuffer+0x1d>
     c8e:	88 23       	and	r24, r24
     c90:	61 f0       	breq	.+24     	; 0xcaa <hyt_get_values+0x146>
     c92:	81 ef       	ldi	r24, 0xF1	; 241
     c94:	98 ed       	ldi	r25, 0xD8	; 216
     c96:	f5 01       	movw	r30, r10
     c98:	91 83       	std	Z+1, r25	; 0x01
     c9a:	80 83       	st	Z, r24
     c9c:	f8 01       	movw	r30, r16
     c9e:	91 83       	std	Z+1, r25	; 0x01
     ca0:	80 83       	st	Z, r24
     ca2:	80 91 44 02 	lds	r24, 0x0244	; 0x800244 <I2CBuffer+0x1d>
     ca6:	80 93 26 02 	sts	0x0226, r24	; 0x800226 <twi_error_flag>
     caa:	81 e0       	ldi	r24, 0x01	; 1
     cac:	0f 90       	pop	r0
     cae:	df 91       	pop	r29
     cb0:	cf 91       	pop	r28
     cb2:	1f 91       	pop	r17
     cb4:	0f 91       	pop	r16
     cb6:	ff 90       	pop	r15
     cb8:	ef 90       	pop	r14
     cba:	df 90       	pop	r13
     cbc:	cf 90       	pop	r12
     cbe:	bf 90       	pop	r11
     cc0:	af 90       	pop	r10
     cc2:	7f 90       	pop	r7
     cc4:	6f 90       	pop	r6
     cc6:	5f 90       	pop	r5
     cc8:	4f 90       	pop	r4
     cca:	08 95       	ret

00000ccc <read_meter_control_from_k30>:
	uart_put_c('\n');
	return 1;
}

uint8_t read_meter_control_from_k30()
{
     ccc:	1f 93       	push	r17
     cce:	cf 93       	push	r28
     cd0:	df 93       	push	r29
     cd2:	00 d0       	rcall	.+0      	; 0xcd4 <read_meter_control_from_k30+0x8>
     cd4:	00 d0       	rcall	.+0      	; 0xcd6 <read_meter_control_from_k30+0xa>
     cd6:	00 d0       	rcall	.+0      	; 0xcd8 <read_meter_control_from_k30+0xc>
     cd8:	cd b7       	in	r28, 0x3d	; 61
     cda:	de b7       	in	r29, 0x3e	; 62
	TWBR = 16;
     cdc:	80 e1       	ldi	r24, 0x10	; 16
     cde:	80 93 b8 00 	sts	0x00B8, r24	; 0x8000b8 <__DATA_REGION_ORIGIN__+0x58>
	PORTC |= (1<<PC2);
     ce2:	42 9a       	sbi	0x08, 2	; 8
	
	uint8_t *values;
	volatile uint8_t data[6];
	
	//Read Meter Control from RAM
	simple_delay(30);
     ce4:	8e e1       	ldi	r24, 0x1E	; 30
     ce6:	90 e0       	ldi	r25, 0x00	; 0
     ce8:	0e 94 7e 15 	call	0x2afc	; 0x2afc <simple_delay>
	data[0]=208;  //adress
     cec:	10 ed       	ldi	r17, 0xD0	; 208
     cee:	19 83       	std	Y+1, r17	; 0x01
	data[1]=0x41; //eeprom eeprom + 1 byte to read
     cf0:	81 e4       	ldi	r24, 0x41	; 65
     cf2:	8a 83       	std	Y+2, r24	; 0x02
	data[2]=0x00; //eeprom adress first byte
     cf4:	1b 82       	std	Y+3, r1	; 0x03
	data[3]=0x3E;//3E; //eeprom adress 2nd byte
     cf6:	8e e3       	ldi	r24, 0x3E	; 62
     cf8:	8c 83       	std	Y+4, r24	; 0x04
	data[4]=data[1]+data[2]+data[3];
     cfa:	2a 81       	ldd	r18, Y+2	; 0x02
     cfc:	8b 81       	ldd	r24, Y+3	; 0x03
     cfe:	9c 81       	ldd	r25, Y+4	; 0x04
     d00:	82 0f       	add	r24, r18
     d02:	89 0f       	add	r24, r25
     d04:	8d 83       	std	Y+5, r24	; 0x05
	i2c_comm(data, 5,0,0);
     d06:	20 e0       	ldi	r18, 0x00	; 0
     d08:	40 e0       	ldi	r20, 0x00	; 0
     d0a:	65 e0       	ldi	r22, 0x05	; 5
     d0c:	ce 01       	movw	r24, r28
     d0e:	01 96       	adiw	r24, 0x01	; 1
     d10:	0e 94 db 11 	call	0x23b6	; 0x23b6 <i2c_comm>
	simple_delay(30);
     d14:	8e e1       	ldi	r24, 0x1E	; 30
     d16:	90 e0       	ldi	r25, 0x00	; 0
     d18:	0e 94 7e 15 	call	0x2afc	; 0x2afc <simple_delay>
	
	data[0]=208;
     d1c:	19 83       	std	Y+1, r17	; 0x01
	values=i2c_comm(data,0,3,0);  //read status, data bytes and checksum
     d1e:	20 e0       	ldi	r18, 0x00	; 0
     d20:	43 e0       	ldi	r20, 0x03	; 3
     d22:	60 e0       	ldi	r22, 0x00	; 0
     d24:	ce 01       	movw	r24, r28
     d26:	01 96       	adiw	r24, 0x01	; 1
     d28:	0e 94 db 11 	call	0x23b6	; 0x23b6 <i2c_comm>
     d2c:	fc 01       	movw	r30, r24
	//uint8_t checkSum = values[0]+values[1];

	PORTC &= ~(1<<PC2);
     d2e:	42 98       	cbi	0x08, 2	; 8
	TWBR = 1;
     d30:	81 e0       	ldi	r24, 0x01	; 1
     d32:	80 93 b8 00 	sts	0x00B8, r24	; 0x8000b8 <__DATA_REGION_ORIGIN__+0x58>
	
	if (I2CBuffer.succesBit != 0)
     d36:	80 91 44 02 	lds	r24, 0x0244	; 0x800244 <I2CBuffer+0x1d>
     d3a:	81 11       	cpse	r24, r1
     d3c:	06 c0       	rjmp	.+12     	; 0xd4a <read_meter_control_from_k30+0x7e>
	{
		//fail
		return  250;
	}
	
	if (I2CBuffer.succesBit == 0)
     d3e:	90 91 44 02 	lds	r25, 0x0244	; 0x800244 <I2CBuffer+0x1d>
     d42:	91 11       	cpse	r25, r1
     d44:	03 c0       	rjmp	.+6      	; 0xd4c <read_meter_control_from_k30+0x80>
	{
		//success
		return values[1];
     d46:	81 81       	ldd	r24, Z+1	; 0x01
     d48:	01 c0       	rjmp	.+2      	; 0xd4c <read_meter_control_from_k30+0x80>
	TWBR = 1;
	
	if (I2CBuffer.succesBit != 0)
	{
		//fail
		return  250;
     d4a:	8a ef       	ldi	r24, 0xFA	; 250
	{
		//success
		return values[1];
	}
		return 0;
}
     d4c:	26 96       	adiw	r28, 0x06	; 6
     d4e:	0f b6       	in	r0, 0x3f	; 63
     d50:	f8 94       	cli
     d52:	de bf       	out	0x3e, r29	; 62
     d54:	0f be       	out	0x3f, r0	; 63
     d56:	cd bf       	out	0x3d, r28	; 61
     d58:	df 91       	pop	r29
     d5a:	cf 91       	pop	r28
     d5c:	1f 91       	pop	r17
     d5e:	08 95       	ret

00000d60 <write_meter_control_to_k30>:

uint8_t write_meter_control_to_k30(uint8_t mConNew)
{
     d60:	0f 93       	push	r16
     d62:	1f 93       	push	r17
     d64:	cf 93       	push	r28
     d66:	df 93       	push	r29
     d68:	00 d0       	rcall	.+0      	; 0xd6a <write_meter_control_to_k30+0xa>
     d6a:	00 d0       	rcall	.+0      	; 0xd6c <write_meter_control_to_k30+0xc>
     d6c:	00 d0       	rcall	.+0      	; 0xd6e <write_meter_control_to_k30+0xe>
     d6e:	cd b7       	in	r28, 0x3d	; 61
     d70:	de b7       	in	r29, 0x3e	; 62
     d72:	08 2f       	mov	r16, r24
	TWBR = 16;
     d74:	80 e1       	ldi	r24, 0x10	; 16
     d76:	80 93 b8 00 	sts	0x00B8, r24	; 0x8000b8 <__DATA_REGION_ORIGIN__+0x58>
	PORTC |= (1<<PC2);
     d7a:	42 9a       	sbi	0x08, 2	; 8
	simple_delay(30);
     d7c:	8e e1       	ldi	r24, 0x1E	; 30
     d7e:	90 e0       	ldi	r25, 0x00	; 0
     d80:	0e 94 7e 15 	call	0x2afc	; 0x2afc <simple_delay>
	volatile uint8_t data[6];
	uint8_t *values=0;
	*values=0;
     d84:	10 92 00 00 	sts	0x0000, r1	; 0x800000 <__TEXT_REGION_LENGTH__+0x7e0000>
	//write Meter Control to RAM
	data[0]=208;  //adress
     d88:	10 ed       	ldi	r17, 0xD0	; 208
     d8a:	19 83       	std	Y+1, r17	; 0x01
	data[1]=0x31; //write eeprom + 1 byte to read
     d8c:	81 e3       	ldi	r24, 0x31	; 49
     d8e:	8a 83       	std	Y+2, r24	; 0x02
	data[2]=0x00; //write adress first byte
     d90:	1b 82       	std	Y+3, r1	; 0x03
	data[3]=0x3E;//3E; //eeprom adress 2nd byte
     d92:	8e e3       	ldi	r24, 0x3E	; 62
     d94:	8c 83       	std	Y+4, r24	; 0x04
	data[4]=mConNew; //data
     d96:	0d 83       	std	Y+5, r16	; 0x05
	data[5]=data[1]+data[2]+data[3]+data[4];
     d98:	3a 81       	ldd	r19, Y+2	; 0x02
     d9a:	8b 81       	ldd	r24, Y+3	; 0x03
     d9c:	2c 81       	ldd	r18, Y+4	; 0x04
     d9e:	9d 81       	ldd	r25, Y+5	; 0x05
     da0:	83 0f       	add	r24, r19
     da2:	82 0f       	add	r24, r18
     da4:	89 0f       	add	r24, r25
     da6:	8e 83       	std	Y+6, r24	; 0x06
	i2c_comm(data, 6,0,0);
     da8:	20 e0       	ldi	r18, 0x00	; 0
     daa:	40 e0       	ldi	r20, 0x00	; 0
     dac:	66 e0       	ldi	r22, 0x06	; 6
     dae:	ce 01       	movw	r24, r28
     db0:	01 96       	adiw	r24, 0x01	; 1
     db2:	0e 94 db 11 	call	0x23b6	; 0x23b6 <i2c_comm>
	
	simple_delay(30);
     db6:	8e e1       	ldi	r24, 0x1E	; 30
     db8:	90 e0       	ldi	r25, 0x00	; 0
     dba:	0e 94 7e 15 	call	0x2afc	; 0x2afc <simple_delay>
	data[0]=208;
     dbe:	19 83       	std	Y+1, r17	; 0x01
	values=i2c_comm(data,0,2,0);  //read status and checksum
     dc0:	20 e0       	ldi	r18, 0x00	; 0
     dc2:	42 e0       	ldi	r20, 0x02	; 2
     dc4:	60 e0       	ldi	r22, 0x00	; 0
     dc6:	ce 01       	movw	r24, r28
     dc8:	01 96       	adiw	r24, 0x01	; 1
     dca:	0e 94 db 11 	call	0x23b6	; 0x23b6 <i2c_comm>
	PORTC &= ~(1<<PC2);
     dce:	42 98       	cbi	0x08, 2	; 8
	TWBR = 1;
     dd0:	81 e0       	ldi	r24, 0x01	; 1
     dd2:	80 93 b8 00 	sts	0x00B8, r24	; 0x8000b8 <__DATA_REGION_ORIGIN__+0x58>
	
	if (I2CBuffer.succesBit != 0)
     dd6:	80 91 44 02 	lds	r24, 0x0244	; 0x800244 <I2CBuffer+0x1d>
     dda:	81 11       	cpse	r24, r1
     ddc:	04 c0       	rjmp	.+8      	; 0xde6 <write_meter_control_to_k30+0x86>
	{
		return 0;
	}
	
	if (I2CBuffer.succesBit == 0)
     dde:	90 91 44 02 	lds	r25, 0x0244	; 0x800244 <I2CBuffer+0x1d>
	PORTC &= ~(1<<PC2);
	TWBR = 1;
	
	if (I2CBuffer.succesBit != 0)
	{
		return 0;
     de2:	81 e0       	ldi	r24, 0x01	; 1
     de4:	91 11       	cpse	r25, r1
     de6:	80 e0       	ldi	r24, 0x00	; 0
		return 1;
	}
		return 0;


}
     de8:	26 96       	adiw	r28, 0x06	; 6
     dea:	0f b6       	in	r0, 0x3f	; 63
     dec:	f8 94       	cli
     dee:	de bf       	out	0x3e, r29	; 62
     df0:	0f be       	out	0x3f, r0	; 63
     df2:	cd bf       	out	0x3d, r28	; 61
     df4:	df 91       	pop	r29
     df6:	cf 91       	pop	r28
     df8:	1f 91       	pop	r17
     dfa:	0f 91       	pop	r16
     dfc:	08 95       	ret

00000dfe <k30_change_mCon>:

uint8_t k30_change_mCon(uint8_t task)
{
     dfe:	0f 93       	push	r16
     e00:	1f 93       	push	r17
     e02:	cf 93       	push	r28
     e04:	df 93       	push	r29
     e06:	cd b7       	in	r28, 0x3d	; 61
     e08:	de b7       	in	r29, 0x3e	; 62
     e0a:	29 97       	sbiw	r28, 0x09	; 9
     e0c:	0f b6       	in	r0, 0x3f	; 63
     e0e:	f8 94       	cli
     e10:	de bf       	out	0x3e, r29	; 62
     e12:	0f be       	out	0x3f, r0	; 63
     e14:	cd bf       	out	0x3d, r28	; 61
     e16:	08 2f       	mov	r16, r24
	char cVal[9];
	uint8_t oldMcon = read_meter_control_from_k30();
     e18:	0e 94 66 06 	call	0xccc	; 0xccc <read_meter_control_from_k30>
     e1c:	18 2f       	mov	r17, r24
	//uint8_t checkSum=0;
	uint8_t state=0;
	if	( oldMcon != 250)
     e1e:	8a 3f       	cpi	r24, 0xFA	; 250
     e20:	09 f4       	brne	.+2      	; 0xe24 <k30_change_mCon+0x26>
     e22:	7f c0       	rjmp	.+254    	; 0xf22 <k30_change_mCon+0x124>
	{
		uart_put_s("Actual mCon: ");
     e24:	83 e2       	ldi	r24, 0x23	; 35
     e26:	91 e0       	ldi	r25, 0x01	; 1
     e28:	0e 94 b6 15 	call	0x2b6c	; 0x2b6c <uart_put_s>
    } else if (__radix < 2 || __radix > 36) {
	*__s = 0;
	return __s;
    } else {
	extern char *__utoa_ncheck (unsigned int, char *, unsigned char);
	return __utoa_ncheck (__val, __s, __radix);
     e2c:	42 e0       	ldi	r20, 0x02	; 2
     e2e:	be 01       	movw	r22, r28
     e30:	6f 5f       	subi	r22, 0xFF	; 255
     e32:	7f 4f       	sbci	r23, 0xFF	; 255
     e34:	81 2f       	mov	r24, r17
     e36:	90 e0       	ldi	r25, 0x00	; 0
     e38:	0e 94 f1 19 	call	0x33e2	; 0x33e2 <__utoa_ncheck>
		utoa (oldMcon,cVal,2);
		uart_put_s(cVal);
     e3c:	ce 01       	movw	r24, r28
     e3e:	01 96       	adiw	r24, 0x01	; 1
     e40:	0e 94 b6 15 	call	0x2b6c	; 0x2b6c <uart_put_s>
		uart_put_c('\n');
     e44:	8a e0       	ldi	r24, 0x0A	; 10
     e46:	0e 94 af 15 	call	0x2b5e	; 0x2b5e <uart_put_c>
		
		if (task == 0)
     e4a:	01 11       	cpse	r16, r1
     e4c:	06 c0       	rjmp	.+12     	; 0xe5a <k30_change_mCon+0x5c>
		{
			uart_put_s("will disable ABC with: ");
     e4e:	81 e3       	ldi	r24, 0x31	; 49
     e50:	91 e0       	ldi	r25, 0x01	; 1
     e52:	0e 94 b6 15 	call	0x2b6c	; 0x2b6c <uart_put_s>
			uint8_t mConNew = oldMcon | 0x02;
     e56:	12 60       	ori	r17, 0x02	; 2
     e58:	27 c0       	rjmp	.+78     	; 0xea8 <k30_change_mCon+0xaa>
			utoa(mConNew,cVal,2);
			uart_put_s(cVal);
			uart_put_c('\n');
			state=write_meter_control_to_k30(mConNew);
		}
		else if (task == 1)
     e5a:	01 30       	cpi	r16, 0x01	; 1
     e5c:	31 f4       	brne	.+12     	; 0xe6a <k30_change_mCon+0x6c>
		{
			uart_put_s("will enable ABC with: ");
     e5e:	89 e4       	ldi	r24, 0x49	; 73
     e60:	91 e0       	ldi	r25, 0x01	; 1
     e62:	0e 94 b6 15 	call	0x2b6c	; 0x2b6c <uart_put_s>
			uint8_t mConNew = oldMcon & 0xFD;
     e66:	1d 7f       	andi	r17, 0xFD	; 253
     e68:	1f c0       	rjmp	.+62     	; 0xea8 <k30_change_mCon+0xaa>
			utoa(mConNew,cVal,2);
			uart_put_s(cVal);
			uart_put_c('\n');
			state=write_meter_control_to_k30(mConNew);
		}
		else if (task == 2)
     e6a:	02 30       	cpi	r16, 0x02	; 2
     e6c:	31 f4       	brne	.+12     	; 0xe7a <k30_change_mCon+0x7c>
		{
			uart_put_s("will disable FRAC with :");
     e6e:	80 e6       	ldi	r24, 0x60	; 96
     e70:	91 e0       	ldi	r25, 0x01	; 1
     e72:	0e 94 b6 15 	call	0x2b6c	; 0x2b6c <uart_put_s>
			uint8_t mConNew = oldMcon | 0x04;
     e76:	14 60       	ori	r17, 0x04	; 4
     e78:	17 c0       	rjmp	.+46     	; 0xea8 <k30_change_mCon+0xaa>
			utoa(mConNew,cVal,2);
			uart_put_s(cVal);
			uart_put_c('\n');
			state=write_meter_control_to_k30(mConNew);
		}
		else if (task == 3)
     e7a:	03 30       	cpi	r16, 0x03	; 3
     e7c:	31 f4       	brne	.+12     	; 0xe8a <k30_change_mCon+0x8c>
		{
			uart_put_s("will enable FRAC with:");
     e7e:	89 e7       	ldi	r24, 0x79	; 121
     e80:	91 e0       	ldi	r25, 0x01	; 1
     e82:	0e 94 b6 15 	call	0x2b6c	; 0x2b6c <uart_put_s>
			uint8_t mConNew = oldMcon & 0xFB;
     e86:	1b 7f       	andi	r17, 0xFB	; 251
     e88:	0f c0       	rjmp	.+30     	; 0xea8 <k30_change_mCon+0xaa>
			utoa(mConNew,cVal,2);
			uart_put_s(cVal);
			uart_put_c('\n');
			state=write_meter_control_to_k30(mConNew);
		}
		else if (task == 4)
     e8a:	04 30       	cpi	r16, 0x04	; 4
     e8c:	31 f4       	brne	.+12     	; 0xe9a <k30_change_mCon+0x9c>
		{
			uart_put_s("will disable dFRAC with :");
     e8e:	80 e9       	ldi	r24, 0x90	; 144
     e90:	91 e0       	ldi	r25, 0x01	; 1
     e92:	0e 94 b6 15 	call	0x2b6c	; 0x2b6c <uart_put_s>
			uint8_t mConNew = oldMcon | 0x08;
     e96:	18 60       	ori	r17, 0x08	; 8
     e98:	07 c0       	rjmp	.+14     	; 0xea8 <k30_change_mCon+0xaa>
			utoa(mConNew,cVal,2);
			uart_put_s(cVal);
			uart_put_c('\n');
			state=write_meter_control_to_k30(mConNew);
		}
		else if (task == 5)
     e9a:	05 30       	cpi	r16, 0x05	; 5
     e9c:	d1 f4       	brne	.+52     	; 0xed2 <k30_change_mCon+0xd4>
		{
			uart_put_s("will enable dFRAC with:");
     e9e:	8a ea       	ldi	r24, 0xAA	; 170
     ea0:	91 e0       	ldi	r25, 0x01	; 1
     ea2:	0e 94 b6 15 	call	0x2b6c	; 0x2b6c <uart_put_s>
			uint8_t mConNew = oldMcon & 0xF7;
     ea6:	17 7f       	andi	r17, 0xF7	; 247
     ea8:	42 e0       	ldi	r20, 0x02	; 2
     eaa:	be 01       	movw	r22, r28
     eac:	6f 5f       	subi	r22, 0xFF	; 255
     eae:	7f 4f       	sbci	r23, 0xFF	; 255
     eb0:	81 2f       	mov	r24, r17
     eb2:	90 e0       	ldi	r25, 0x00	; 0
     eb4:	0e 94 f1 19 	call	0x33e2	; 0x33e2 <__utoa_ncheck>
			utoa(mConNew,cVal,2);
			uart_put_s(cVal);
     eb8:	ce 01       	movw	r24, r28
     eba:	01 96       	adiw	r24, 0x01	; 1
     ebc:	0e 94 b6 15 	call	0x2b6c	; 0x2b6c <uart_put_s>
			uart_put_c('\n');
     ec0:	8a e0       	ldi	r24, 0x0A	; 10
     ec2:	0e 94 af 15 	call	0x2b5e	; 0x2b5e <uart_put_c>
			state=write_meter_control_to_k30(mConNew);
     ec6:	81 2f       	mov	r24, r17
     ec8:	0e 94 b0 06 	call	0xd60	; 0xd60 <write_meter_control_to_k30>
			uart_put_s("wrong Task.");
			uart_put_c('\n');
			state=0;
		}
		
		if (state == 0)
     ecc:	81 11       	cpse	r24, r1
     ece:	10 c0       	rjmp	.+32     	; 0xef0 <k30_change_mCon+0xf2>
     ed0:	0c c0       	rjmp	.+24     	; 0xeea <k30_change_mCon+0xec>
			utoa(mConNew,cVal,2);
			uart_put_s(cVal);
			uart_put_c('\n');
			state=write_meter_control_to_k30(mConNew);
		}
		else if (task == 6)
     ed2:	06 30       	cpi	r16, 0x06	; 6
     ed4:	19 f4       	brne	.+6      	; 0xedc <k30_change_mCon+0xde>
		{
			uart_put_s("Read request only.");
     ed6:	82 ec       	ldi	r24, 0xC2	; 194
     ed8:	91 e0       	ldi	r25, 0x01	; 1
     eda:	0e c0       	rjmp	.+28     	; 0xef8 <k30_change_mCon+0xfa>
			uart_put_c('\n');
			state=2;
		}
		else
		{
			uart_put_s("wrong Task.");
     edc:	85 ed       	ldi	r24, 0xD5	; 213
     ede:	91 e0       	ldi	r25, 0x01	; 1
     ee0:	0e 94 b6 15 	call	0x2b6c	; 0x2b6c <uart_put_s>
			uart_put_c('\n');
     ee4:	8a e0       	ldi	r24, 0x0A	; 10
     ee6:	0e 94 af 15 	call	0x2b5e	; 0x2b5e <uart_put_c>
			state=0;
		}
		
		if (state == 0)
		{
			uart_put_s("fail");
     eea:	81 ee       	ldi	r24, 0xE1	; 225
     eec:	91 e0       	ldi	r25, 0x01	; 1
     eee:	04 c0       	rjmp	.+8      	; 0xef8 <k30_change_mCon+0xfa>
			uart_put_c('\n');
		}
		else if (state == 1)
     ef0:	81 30       	cpi	r24, 0x01	; 1
     ef2:	39 f4       	brne	.+14     	; 0xf02 <k30_change_mCon+0x104>
		{
			uart_put_s("written!");
     ef4:	86 ee       	ldi	r24, 0xE6	; 230
     ef6:	91 e0       	ldi	r25, 0x01	; 1
     ef8:	0e 94 b6 15 	call	0x2b6c	; 0x2b6c <uart_put_s>
			uart_put_c('\n');
     efc:	8a e0       	ldi	r24, 0x0A	; 10
     efe:	0e 94 af 15 	call	0x2b5e	; 0x2b5e <uart_put_c>
		}
		else if (state == 2)
		{
		}
		
		uart_put_s("Actual mCon: ");
     f02:	83 e2       	ldi	r24, 0x23	; 35
     f04:	91 e0       	ldi	r25, 0x01	; 1
     f06:	0e 94 b6 15 	call	0x2b6c	; 0x2b6c <uart_put_s>
		utoa(read_meter_control_from_k30(),cVal,2);
     f0a:	0e 94 66 06 	call	0xccc	; 0xccc <read_meter_control_from_k30>
     f0e:	42 e0       	ldi	r20, 0x02	; 2
     f10:	be 01       	movw	r22, r28
     f12:	6f 5f       	subi	r22, 0xFF	; 255
     f14:	7f 4f       	sbci	r23, 0xFF	; 255
     f16:	90 e0       	ldi	r25, 0x00	; 0
     f18:	0e 94 f1 19 	call	0x33e2	; 0x33e2 <__utoa_ncheck>
		uart_put_s(cVal);
     f1c:	ce 01       	movw	r24, r28
     f1e:	01 96       	adiw	r24, 0x01	; 1
     f20:	02 c0       	rjmp	.+4      	; 0xf26 <k30_change_mCon+0x128>
		uart_put_c('\n');
	}
	else
	{
		uart_put_s("I2C fail while read mCon.");
     f22:	8f ee       	ldi	r24, 0xEF	; 239
     f24:	91 e0       	ldi	r25, 0x01	; 1
     f26:	0e 94 b6 15 	call	0x2b6c	; 0x2b6c <uart_put_s>
		uart_put_c('\n');
     f2a:	8a e0       	ldi	r24, 0x0A	; 10
     f2c:	0e 94 af 15 	call	0x2b5e	; 0x2b5e <uart_put_c>
	}
	return 0;
}
     f30:	80 e0       	ldi	r24, 0x00	; 0
     f32:	29 96       	adiw	r28, 0x09	; 9
     f34:	0f b6       	in	r0, 0x3f	; 63
     f36:	f8 94       	cli
     f38:	de bf       	out	0x3e, r29	; 62
     f3a:	0f be       	out	0x3f, r0	; 63
     f3c:	cd bf       	out	0x3d, r28	; 61
     f3e:	df 91       	pop	r29
     f40:	cf 91       	pop	r28
     f42:	1f 91       	pop	r17
     f44:	0f 91       	pop	r16
     f46:	08 95       	ret

00000f48 <handleCanMessage>:

#endif


uint8_t handleCanMessage(volatile sensValues* acualVales)
{
     f48:	1f 93       	push	r17
     f4a:	cf 93       	push	r28
     f4c:	df 93       	push	r29
     f4e:	cd b7       	in	r28, 0x3d	; 61
     f50:	de b7       	in	r29, 0x3e	; 62
     f52:	2c 97       	sbiw	r28, 0x0c	; 12
     f54:	0f b6       	in	r0, 0x3f	; 63
     f56:	f8 94       	cli
     f58:	de bf       	out	0x3e, r29	; 62
     f5a:	0f be       	out	0x3f, r0	; 63
     f5c:	cd bf       	out	0x3d, r28	; 61
	PORTB ^=  (1<<PB0);
     f5e:	85 b1       	in	r24, 0x05	; 5
     f60:	11 e0       	ldi	r17, 0x01	; 1
     f62:	81 27       	eor	r24, r17
     f64:	85 b9       	out	0x05, r24	; 5
	CANMessage inMessage;
	
	if (can_get_message(&inMessage) != 0xff)
     f66:	ce 01       	movw	r24, r28
     f68:	01 96       	adiw	r24, 0x01	; 1
     f6a:	0e 94 0d 02 	call	0x41a	; 0x41a <can_get_message>
     f6e:	8f 3f       	cpi	r24, 0xFF	; 255
     f70:	41 f1       	breq	.+80     	; 0xfc2 <handleCanMessage+0x7a>
	{
		can_get_message(&inMessage);
     f72:	ce 01       	movw	r24, r28
     f74:	01 96       	adiw	r24, 0x01	; 1
     f76:	0e 94 0d 02 	call	0x41a	; 0x41a <can_get_message>
		
		if (inMessage.data[0] == 1)  //hier erfolgt die nachrichtenbehandlung
     f7a:	8d 81       	ldd	r24, Y+5	; 0x05
     f7c:	81 30       	cpi	r24, 0x01	; 1
     f7e:	29 f4       	brne	.+10     	; 0xf8a <handleCanMessage+0x42>
		{
			message_request=1;
     f80:	80 93 7b 02 	sts	0x027B, r24	; 0x80027b <message_request>
			send_always=0;
     f84:	10 92 7f 02 	sts	0x027F, r1	; 0x80027f <send_always>
     f88:	30 c0       	rjmp	.+96     	; 0xfea <handleCanMessage+0xa2>
		}
		else if (inMessage.data[0] == 2)  //intervall
     f8a:	82 30       	cpi	r24, 0x02	; 2
     f8c:	a9 f4       	brne	.+42     	; 0xfb8 <handleCanMessage+0x70>
		{
			intervall  = (uint32_t) inMessage.data[1]<<16;
			intervall |= (uint32_t)inMessage.data[2]<<8;
			intervall |= (uint32_t)inMessage.data[3];
     f8e:	2e 81       	ldd	r18, Y+6	; 0x06
     f90:	8f 81       	ldd	r24, Y+7	; 0x07
     f92:	90 e0       	ldi	r25, 0x00	; 0
     f94:	a0 e0       	ldi	r26, 0x00	; 0
     f96:	b0 e0       	ldi	r27, 0x00	; 0
     f98:	ba 2f       	mov	r27, r26
     f9a:	a9 2f       	mov	r26, r25
     f9c:	98 2f       	mov	r25, r24
     f9e:	88 27       	eor	r24, r24
     fa0:	a2 2b       	or	r26, r18
     fa2:	28 85       	ldd	r18, Y+8	; 0x08
     fa4:	82 2b       	or	r24, r18
     fa6:	80 93 49 02 	sts	0x0249, r24	; 0x800249 <intervall>
     faa:	90 93 4a 02 	sts	0x024A, r25	; 0x80024a <intervall+0x1>
     fae:	a0 93 4b 02 	sts	0x024B, r26	; 0x80024b <intervall+0x2>
     fb2:	b0 93 4c 02 	sts	0x024C, r27	; 0x80024c <intervall+0x3>
     fb6:	19 c0       	rjmp	.+50     	; 0xfea <handleCanMessage+0xa2>
		}
		else if (inMessage.data[0] == 3)
     fb8:	83 30       	cpi	r24, 0x03	; 3
     fba:	b9 f4       	brne	.+46     	; 0xfea <handleCanMessage+0xa2>
		{
			meansRequest=1;
     fbc:	10 93 78 02 	sts	0x0278, r17	; 0x800278 <meansRequest>
     fc0:	14 c0       	rjmp	.+40     	; 0xfea <handleCanMessage+0xa2>
		}
	}
	
	else if (mcp2515_read_register(CANINTF) & (1<<ERRIF) )
     fc2:	8c e2       	ldi	r24, 0x2C	; 44
     fc4:	0e 94 99 00 	call	0x132	; 0x132 <mcp2515_read_register>
     fc8:	85 ff       	sbrs	r24, 5
     fca:	0f c0       	rjmp	.+30     	; 0xfea <handleCanMessage+0xa2>
	{
		CanErrorStatus=mcp2515_read_register(EFLG);
     fcc:	8d e2       	ldi	r24, 0x2D	; 45
     fce:	0e 94 99 00 	call	0x132	; 0x132 <mcp2515_read_register>
     fd2:	80 93 6a 02 	sts	0x026A, r24	; 0x80026a <CanErrorStatus>
		mcp2515_bit_modify(EFLG, CanErrorStatus, CanErrorStatus);
     fd6:	48 2f       	mov	r20, r24
     fd8:	68 2f       	mov	r22, r24
     fda:	8d e2       	ldi	r24, 0x2D	; 45
     fdc:	0e 94 ba 00 	call	0x174	; 0x174 <mcp2515_bit_modify>
		mcp2515_bit_modify(CANINTF, 1<<ERRIF, 1<<ERRIF);
     fe0:	40 e2       	ldi	r20, 0x20	; 32
     fe2:	60 e2       	ldi	r22, 0x20	; 32
     fe4:	8c e2       	ldi	r24, 0x2C	; 44
     fe6:	0e 94 ba 00 	call	0x174	; 0x174 <mcp2515_bit_modify>
	}
	can_new_interrupt=0;
     fea:	10 92 5a 02 	sts	0x025A, r1	; 0x80025a <can_new_interrupt>
	
	return 1;
}
     fee:	81 e0       	ldi	r24, 0x01	; 1
     ff0:	2c 96       	adiw	r28, 0x0c	; 12
     ff2:	0f b6       	in	r0, 0x3f	; 63
     ff4:	f8 94       	cli
     ff6:	de bf       	out	0x3e, r29	; 62
     ff8:	0f be       	out	0x3f, r0	; 63
     ffa:	cd bf       	out	0x3d, r28	; 61
     ffc:	df 91       	pop	r29
     ffe:	cf 91       	pop	r28
    1000:	1f 91       	pop	r17
    1002:	08 95       	ret

00001004 <sendValuesViaCan>:


void sendValuesViaCan (volatile sensValues values)
{
    1004:	1f 93       	push	r17
    1006:	cf 93       	push	r28
    1008:	df 93       	push	r29
    100a:	cd b7       	in	r28, 0x3d	; 61
    100c:	de b7       	in	r29, 0x3e	; 62
    100e:	2c 97       	sbiw	r28, 0x0c	; 12
    1010:	0f b6       	in	r0, 0x3f	; 63
    1012:	f8 94       	cli
    1014:	de bf       	out	0x3e, r29	; 62
    1016:	0f be       	out	0x3f, r0	; 63
    1018:	cd bf       	out	0x3d, r28	; 61
	CANMessage message;
	
	message.id = (senderID<<4) | 1;
    101a:	81 e1       	ldi	r24, 0x11	; 17
    101c:	90 e0       	ldi	r25, 0x00	; 0
    101e:	9a 83       	std	Y+2, r25	; 0x02
    1020:	89 83       	std	Y+1, r24	; 0x01
	message.rtr = 0;
    1022:	1b 82       	std	Y+3, r1	; 0x03
	message.length = 8;
    1024:	88 e0       	ldi	r24, 0x08	; 8
    1026:	8c 83       	std	Y+4, r24	; 0x04
	message.data[0]=(uint8_t)(values.boschTemp>>8);
    1028:	8e 8d       	ldd	r24, Y+30	; 0x1e
    102a:	9f 8d       	ldd	r25, Y+31	; 0x1f
    102c:	9d 83       	std	Y+5, r25	; 0x05
	message.data[1]=(uint8_t)values.boschTemp;
    102e:	8e 8d       	ldd	r24, Y+30	; 0x1e
    1030:	9f 8d       	ldd	r25, Y+31	; 0x1f
    1032:	8e 83       	std	Y+6, r24	; 0x06
	message.data[2]=(uint8_t)(values.co>>8);
    1034:	8c 89       	ldd	r24, Y+20	; 0x14
    1036:	9d 89       	ldd	r25, Y+21	; 0x15
    1038:	9f 83       	std	Y+7, r25	; 0x07
	message.data[3]=(uint8_t)values.co;
    103a:	8c 89       	ldd	r24, Y+20	; 0x14
    103c:	9d 89       	ldd	r25, Y+21	; 0x15
    103e:	88 87       	std	Y+8, r24	; 0x08
	message.data[4]=(uint8_t)(values.hytTemp>>8);
    1040:	8e 89       	ldd	r24, Y+22	; 0x16
    1042:	9f 89       	ldd	r25, Y+23	; 0x17
    1044:	99 87       	std	Y+9, r25	; 0x09
	message.data[5]=(uint8_t)(values.hytTemp);
    1046:	8e 89       	ldd	r24, Y+22	; 0x16
    1048:	9f 89       	ldd	r25, Y+23	; 0x17
    104a:	8a 87       	std	Y+10, r24	; 0x0a
	message.data[6]=(uint8_t)(values.feuchte>>8);
    104c:	88 8d       	ldd	r24, Y+24	; 0x18
    104e:	99 8d       	ldd	r25, Y+25	; 0x19
    1050:	9b 87       	std	Y+11, r25	; 0x0b
	message.data[7]=(uint8_t)(values.feuchte);
    1052:	88 8d       	ldd	r24, Y+24	; 0x18
    1054:	99 8d       	ldd	r25, Y+25	; 0x19
    1056:	8c 87       	std	Y+12, r24	; 0x0c
	
	char i=0;
    1058:	10 e0       	ldi	r17, 0x00	; 0
	while( ( !can_send_message(&message) ) & (i<250) )
    105a:	ce 01       	movw	r24, r28
    105c:	01 96       	adiw	r24, 0x01	; 1
    105e:	0e 94 83 01 	call	0x306	; 0x306 <can_send_message>
    1062:	81 11       	cpse	r24, r1
    1064:	04 c0       	rjmp	.+8      	; 0x106e <sendValuesViaCan+0x6a>
    1066:	1a 3f       	cpi	r17, 0xFA	; 250
    1068:	10 f4       	brcc	.+4      	; 0x106e <sendValuesViaCan+0x6a>
	{
		i++;
    106a:	1f 5f       	subi	r17, 0xFF	; 255
    106c:	f6 cf       	rjmp	.-20     	; 0x105a <sendValuesViaCan+0x56>
	}
	
	message.id = (senderID<<4) | 2;
    106e:	82 e1       	ldi	r24, 0x12	; 18
    1070:	90 e0       	ldi	r25, 0x00	; 0
    1072:	9a 83       	std	Y+2, r25	; 0x02
    1074:	89 83       	std	Y+1, r24	; 0x01
	message.rtr = 0;
    1076:	1b 82       	std	Y+3, r1	; 0x03
	message.length = 7;
    1078:	87 e0       	ldi	r24, 0x07	; 7
    107a:	8c 83       	std	Y+4, r24	; 0x04
	message.data[0]=(uint8_t)(values.pressure>>24);
    107c:	8a 8d       	ldd	r24, Y+26	; 0x1a
    107e:	9b 8d       	ldd	r25, Y+27	; 0x1b
    1080:	ac 8d       	ldd	r26, Y+28	; 0x1c
    1082:	bd 8d       	ldd	r27, Y+29	; 0x1d
    1084:	bd 83       	std	Y+5, r27	; 0x05
	message.data[1]=(uint8_t)(values.pressure>>16);
    1086:	8a 8d       	ldd	r24, Y+26	; 0x1a
    1088:	9b 8d       	ldd	r25, Y+27	; 0x1b
    108a:	ac 8d       	ldd	r26, Y+28	; 0x1c
    108c:	bd 8d       	ldd	r27, Y+29	; 0x1d
    108e:	ae 83       	std	Y+6, r26	; 0x06
	message.data[2]=(uint8_t)(values.pressure>>8);
    1090:	8a 8d       	ldd	r24, Y+26	; 0x1a
    1092:	9b 8d       	ldd	r25, Y+27	; 0x1b
    1094:	ac 8d       	ldd	r26, Y+28	; 0x1c
    1096:	bd 8d       	ldd	r27, Y+29	; 0x1d
    1098:	9f 83       	std	Y+7, r25	; 0x07
	message.data[3]=(uint8_t)(values.pressure);
    109a:	8a 8d       	ldd	r24, Y+26	; 0x1a
    109c:	9b 8d       	ldd	r25, Y+27	; 0x1b
    109e:	ac 8d       	ldd	r26, Y+28	; 0x1c
    10a0:	bd 8d       	ldd	r27, Y+29	; 0x1d
    10a2:	88 87       	std	Y+8, r24	; 0x08
	message.data[4]=(uint8_t)(values.k30Status);
    10a4:	88 a1       	ldd	r24, Y+32	; 0x20
    10a6:	89 87       	std	Y+9, r24	; 0x09
	message.data[5]=(uint8_t)(values.ppfd>>8);
    10a8:	8a 89       	ldd	r24, Y+18	; 0x12
    10aa:	9b 89       	ldd	r25, Y+19	; 0x13
    10ac:	9a 87       	std	Y+10, r25	; 0x0a
	message.data[6]=(uint8_t)(values.ppfd);
    10ae:	8a 89       	ldd	r24, Y+18	; 0x12
    10b0:	9b 89       	ldd	r25, Y+19	; 0x13
    10b2:	8b 87       	std	Y+11, r24	; 0x0b

	i=0;
    10b4:	10 e0       	ldi	r17, 0x00	; 0
	while( ( !can_send_message(&message) ) & (i<250) )
    10b6:	ce 01       	movw	r24, r28
    10b8:	01 96       	adiw	r24, 0x01	; 1
    10ba:	0e 94 83 01 	call	0x306	; 0x306 <can_send_message>
    10be:	81 11       	cpse	r24, r1
    10c0:	04 c0       	rjmp	.+8      	; 0x10ca <sendValuesViaCan+0xc6>
    10c2:	1a 3f       	cpi	r17, 0xFA	; 250
    10c4:	10 f4       	brcc	.+4      	; 0x10ca <sendValuesViaCan+0xc6>
	{
		i++;
    10c6:	1f 5f       	subi	r17, 0xFF	; 255
    10c8:	f6 cf       	rjmp	.-20     	; 0x10b6 <sendValuesViaCan+0xb2>
	}
	
	message.id = (senderID<<4) | 3;
    10ca:	83 e1       	ldi	r24, 0x13	; 19
    10cc:	90 e0       	ldi	r25, 0x00	; 0
    10ce:	9a 83       	std	Y+2, r25	; 0x02
    10d0:	89 83       	std	Y+1, r24	; 0x01
	message.rtr = 0;
    10d2:	1b 82       	std	Y+3, r1	; 0x03
	message.length = 8;
    10d4:	88 e0       	ldi	r24, 0x08	; 8
    10d6:	8c 83       	std	Y+4, r24	; 0x04
	message.data[0]=(uint8_t)(values.RHO>>8);
    10d8:	89 a1       	ldd	r24, Y+33	; 0x21
    10da:	9a a1       	ldd	r25, Y+34	; 0x22
    10dc:	9d 83       	std	Y+5, r25	; 0x05
	message.data[1]=(uint8_t)(values.RHO);
    10de:	89 a1       	ldd	r24, Y+33	; 0x21
    10e0:	9a a1       	ldd	r25, Y+34	; 0x22
    10e2:	8e 83       	std	Y+6, r24	; 0x06
	message.data[2]=(uint8_t)(values.MS>>8);
    10e4:	89 ad       	ldd	r24, Y+57	; 0x39
    10e6:	9a ad       	ldd	r25, Y+58	; 0x3a
    10e8:	9f 83       	std	Y+7, r25	; 0x07
	message.data[3]=(uint8_t)(values.MS);
    10ea:	89 ad       	ldd	r24, Y+57	; 0x39
    10ec:	9a ad       	ldd	r25, Y+58	; 0x3a
    10ee:	88 87       	std	Y+8, r24	; 0x08
	message.data[4]=(uint8_t)(values.AF>>8);
    10f0:	8d a1       	ldd	r24, Y+37	; 0x25
    10f2:	9e a1       	ldd	r25, Y+38	; 0x26
    10f4:	99 87       	std	Y+9, r25	; 0x09
	message.data[5]=(uint8_t)(values.AF);
    10f6:	8d a1       	ldd	r24, Y+37	; 0x25
    10f8:	9e a1       	ldd	r25, Y+38	; 0x26
    10fa:	8a 87       	std	Y+10, r24	; 0x0a
	message.data[6]=(uint8_t)(values.VPD>>8);
    10fc:	8f a1       	ldd	r24, Y+39	; 0x27
    10fe:	98 a5       	ldd	r25, Y+40	; 0x28
    1100:	9b 87       	std	Y+11, r25	; 0x0b
	message.data[7]=(uint8_t)(values.VPD);
    1102:	8f a1       	ldd	r24, Y+39	; 0x27
    1104:	98 a5       	ldd	r25, Y+40	; 0x28
    1106:	8c 87       	std	Y+12, r24	; 0x0c
	
	i=0;
    1108:	10 e0       	ldi	r17, 0x00	; 0
	while( ( !can_send_message(&message) ) & (i<250) )
    110a:	ce 01       	movw	r24, r28
    110c:	01 96       	adiw	r24, 0x01	; 1
    110e:	0e 94 83 01 	call	0x306	; 0x306 <can_send_message>
    1112:	81 11       	cpse	r24, r1
    1114:	04 c0       	rjmp	.+8      	; 0x111e <sendValuesViaCan+0x11a>
    1116:	1a 3f       	cpi	r17, 0xFA	; 250
    1118:	10 f4       	brcc	.+4      	; 0x111e <sendValuesViaCan+0x11a>
	{
		i++;
    111a:	1f 5f       	subi	r17, 0xFF	; 255
    111c:	f6 cf       	rjmp	.-20     	; 0x110a <sendValuesViaCan+0x106>
	}
}
    111e:	2c 96       	adiw	r28, 0x0c	; 12
    1120:	0f b6       	in	r0, 0x3f	; 63
    1122:	f8 94       	cli
    1124:	de bf       	out	0x3e, r29	; 62
    1126:	0f be       	out	0x3f, r0	; 63
    1128:	cd bf       	out	0x3d, r28	; 61
    112a:	df 91       	pop	r29
    112c:	cf 91       	pop	r28
    112e:	1f 91       	pop	r17
    1130:	08 95       	ret

00001132 <sendMeanValuesViaCan>:


void sendMeanValuesViaCan (volatile sensValues values)
{
    1132:	1f 93       	push	r17
    1134:	cf 93       	push	r28
    1136:	df 93       	push	r29
    1138:	cd b7       	in	r28, 0x3d	; 61
    113a:	de b7       	in	r29, 0x3e	; 62
    113c:	2c 97       	sbiw	r28, 0x0c	; 12
    113e:	0f b6       	in	r0, 0x3f	; 63
    1140:	f8 94       	cli
    1142:	de bf       	out	0x3e, r29	; 62
    1144:	0f be       	out	0x3f, r0	; 63
    1146:	cd bf       	out	0x3d, r28	; 61
	CANMessage message;

	
	message.id = (senderID<<4) | 4;
    1148:	84 e1       	ldi	r24, 0x14	; 20
    114a:	90 e0       	ldi	r25, 0x00	; 0
    114c:	9a 83       	std	Y+2, r25	; 0x02
    114e:	89 83       	std	Y+1, r24	; 0x01
	message.rtr = 0;
    1150:	1b 82       	std	Y+3, r1	; 0x03
	message.length = 8;
    1152:	88 e0       	ldi	r24, 0x08	; 8
    1154:	8c 83       	std	Y+4, r24	; 0x04
	message.data[0]=(uint8_t)(values.MboschTemp>>8);
    1156:	8d a9       	ldd	r24, Y+53	; 0x35
    1158:	9e a9       	ldd	r25, Y+54	; 0x36
    115a:	9d 83       	std	Y+5, r25	; 0x05
	message.data[1]=(uint8_t)values.MboschTemp;
    115c:	8d a9       	ldd	r24, Y+53	; 0x35
    115e:	9e a9       	ldd	r25, Y+54	; 0x36
    1160:	8e 83       	std	Y+6, r24	; 0x06
	message.data[2]=(uint8_t)(values.Mco>>8);
    1162:	8b a5       	ldd	r24, Y+43	; 0x2b
    1164:	9c a5       	ldd	r25, Y+44	; 0x2c
    1166:	9f 83       	std	Y+7, r25	; 0x07
	message.data[3]=(uint8_t)values.Mco;
    1168:	8b a5       	ldd	r24, Y+43	; 0x2b
    116a:	9c a5       	ldd	r25, Y+44	; 0x2c
    116c:	88 87       	std	Y+8, r24	; 0x08
	message.data[4]=(uint8_t)(values.MhytTemp>>8);
    116e:	8d a5       	ldd	r24, Y+45	; 0x2d
    1170:	9e a5       	ldd	r25, Y+46	; 0x2e
    1172:	99 87       	std	Y+9, r25	; 0x09
	message.data[5]=(uint8_t)(values.MhytTemp);
    1174:	8d a5       	ldd	r24, Y+45	; 0x2d
    1176:	9e a5       	ldd	r25, Y+46	; 0x2e
    1178:	8a 87       	std	Y+10, r24	; 0x0a
	message.data[6]=(uint8_t)(values.Mfeuchte>>8);
    117a:	8f a5       	ldd	r24, Y+47	; 0x2f
    117c:	98 a9       	ldd	r25, Y+48	; 0x30
    117e:	9b 87       	std	Y+11, r25	; 0x0b
	message.data[7]=(uint8_t)(values.Mfeuchte);
    1180:	8f a5       	ldd	r24, Y+47	; 0x2f
    1182:	98 a9       	ldd	r25, Y+48	; 0x30
    1184:	8c 87       	std	Y+12, r24	; 0x0c

	char i=0;
    1186:	10 e0       	ldi	r17, 0x00	; 0
	while( ( !can_send_message(&message) ) & (i<250) )
    1188:	ce 01       	movw	r24, r28
    118a:	01 96       	adiw	r24, 0x01	; 1
    118c:	0e 94 83 01 	call	0x306	; 0x306 <can_send_message>
    1190:	81 11       	cpse	r24, r1
    1192:	04 c0       	rjmp	.+8      	; 0x119c <sendMeanValuesViaCan+0x6a>
    1194:	1a 3f       	cpi	r17, 0xFA	; 250
    1196:	10 f4       	brcc	.+4      	; 0x119c <sendMeanValuesViaCan+0x6a>
	{
		i++;
    1198:	1f 5f       	subi	r17, 0xFF	; 255
    119a:	f6 cf       	rjmp	.-20     	; 0x1188 <sendMeanValuesViaCan+0x56>
	}
	
	message.id = (senderID<<4) | 5;
    119c:	85 e1       	ldi	r24, 0x15	; 21
    119e:	90 e0       	ldi	r25, 0x00	; 0
    11a0:	9a 83       	std	Y+2, r25	; 0x02
    11a2:	89 83       	std	Y+1, r24	; 0x01
	message.rtr = 0;
    11a4:	1b 82       	std	Y+3, r1	; 0x03
	message.length = 6;
    11a6:	86 e0       	ldi	r24, 0x06	; 6
    11a8:	8c 83       	std	Y+4, r24	; 0x04
	message.data[0]=(uint8_t)(values.Mpressure>>24);
    11aa:	89 a9       	ldd	r24, Y+49	; 0x31
    11ac:	9a a9       	ldd	r25, Y+50	; 0x32
    11ae:	ab a9       	ldd	r26, Y+51	; 0x33
    11b0:	bc a9       	ldd	r27, Y+52	; 0x34
    11b2:	bd 83       	std	Y+5, r27	; 0x05
	message.data[1]=(uint8_t)(values.Mpressure>>16);
    11b4:	89 a9       	ldd	r24, Y+49	; 0x31
    11b6:	9a a9       	ldd	r25, Y+50	; 0x32
    11b8:	ab a9       	ldd	r26, Y+51	; 0x33
    11ba:	bc a9       	ldd	r27, Y+52	; 0x34
    11bc:	ae 83       	std	Y+6, r26	; 0x06
	message.data[2]=(uint8_t)(values.Mpressure>>8);
    11be:	89 a9       	ldd	r24, Y+49	; 0x31
    11c0:	9a a9       	ldd	r25, Y+50	; 0x32
    11c2:	ab a9       	ldd	r26, Y+51	; 0x33
    11c4:	bc a9       	ldd	r27, Y+52	; 0x34
    11c6:	9f 83       	std	Y+7, r25	; 0x07
	message.data[3]=(uint8_t)(values.Mpressure);
    11c8:	89 a9       	ldd	r24, Y+49	; 0x31
    11ca:	9a a9       	ldd	r25, Y+50	; 0x32
    11cc:	ab a9       	ldd	r26, Y+51	; 0x33
    11ce:	bc a9       	ldd	r27, Y+52	; 0x34
    11d0:	88 87       	std	Y+8, r24	; 0x08
	message.data[4]=(uint8_t)(values.Mppfd>>8);
    11d2:	89 a5       	ldd	r24, Y+41	; 0x29
    11d4:	9a a5       	ldd	r25, Y+42	; 0x2a
    11d6:	99 87       	std	Y+9, r25	; 0x09
	message.data[5]=(uint8_t)(values.Mppfd);
    11d8:	89 a5       	ldd	r24, Y+41	; 0x29
    11da:	9a a5       	ldd	r25, Y+42	; 0x2a
    11dc:	8a 87       	std	Y+10, r24	; 0x0a

	
	i=0;
    11de:	10 e0       	ldi	r17, 0x00	; 0
	while( ( !can_send_message(&message) ) & (i<250) )
    11e0:	ce 01       	movw	r24, r28
    11e2:	01 96       	adiw	r24, 0x01	; 1
    11e4:	0e 94 83 01 	call	0x306	; 0x306 <can_send_message>
    11e8:	81 11       	cpse	r24, r1
    11ea:	04 c0       	rjmp	.+8      	; 0x11f4 <sendMeanValuesViaCan+0xc2>
    11ec:	1a 3f       	cpi	r17, 0xFA	; 250
    11ee:	10 f4       	brcc	.+4      	; 0x11f4 <sendMeanValuesViaCan+0xc2>
	{
		i++;
    11f0:	1f 5f       	subi	r17, 0xFF	; 255
    11f2:	f6 cf       	rjmp	.-20     	; 0x11e0 <sendMeanValuesViaCan+0xae>
	}
	
	message.id = (senderID<<4) | 6;
    11f4:	86 e1       	ldi	r24, 0x16	; 22
    11f6:	90 e0       	ldi	r25, 0x00	; 0
    11f8:	9a 83       	std	Y+2, r25	; 0x02
    11fa:	89 83       	std	Y+1, r24	; 0x01
	message.rtr = 0;
    11fc:	1b 82       	std	Y+3, r1	; 0x03
	message.length = 8;
    11fe:	88 e0       	ldi	r24, 0x08	; 8
    1200:	8c 83       	std	Y+4, r24	; 0x04
	message.data[0]=(uint8_t)(values.MRHO>>8);
    1202:	8f a9       	ldd	r24, Y+55	; 0x37
    1204:	98 ad       	ldd	r25, Y+56	; 0x38
    1206:	9d 83       	std	Y+5, r25	; 0x05
	message.data[1]=(uint8_t)(values.MRHO);
    1208:	8f a9       	ldd	r24, Y+55	; 0x37
    120a:	98 ad       	ldd	r25, Y+56	; 0x38
    120c:	8e 83       	std	Y+6, r24	; 0x06
	message.data[2]=(uint8_t)(values.MS>>8);
    120e:	89 ad       	ldd	r24, Y+57	; 0x39
    1210:	9a ad       	ldd	r25, Y+58	; 0x3a
    1212:	9f 83       	std	Y+7, r25	; 0x07
	message.data[3]=(uint8_t)(values.MS);
    1214:	89 ad       	ldd	r24, Y+57	; 0x39
    1216:	9a ad       	ldd	r25, Y+58	; 0x3a
    1218:	88 87       	std	Y+8, r24	; 0x08
	message.data[4]=(uint8_t)(values.MAF>>8);
    121a:	8b ad       	ldd	r24, Y+59	; 0x3b
    121c:	9c ad       	ldd	r25, Y+60	; 0x3c
    121e:	99 87       	std	Y+9, r25	; 0x09
	message.data[5]=(uint8_t)(values.MAF);
    1220:	8b ad       	ldd	r24, Y+59	; 0x3b
    1222:	9c ad       	ldd	r25, Y+60	; 0x3c
    1224:	8a 87       	std	Y+10, r24	; 0x0a
	message.data[6]=(uint8_t)(values.MVPD>>8);
    1226:	8d ad       	ldd	r24, Y+61	; 0x3d
    1228:	9e ad       	ldd	r25, Y+62	; 0x3e
    122a:	9b 87       	std	Y+11, r25	; 0x0b
	message.data[7]=(uint8_t)(values.MVPD);
    122c:	8d ad       	ldd	r24, Y+61	; 0x3d
    122e:	9e ad       	ldd	r25, Y+62	; 0x3e
    1230:	8c 87       	std	Y+12, r24	; 0x0c

	i=0;
    1232:	10 e0       	ldi	r17, 0x00	; 0
	while( ( !can_send_message(&message) ) & (i<250) )
    1234:	ce 01       	movw	r24, r28
    1236:	01 96       	adiw	r24, 0x01	; 1
    1238:	0e 94 83 01 	call	0x306	; 0x306 <can_send_message>
    123c:	81 11       	cpse	r24, r1
    123e:	04 c0       	rjmp	.+8      	; 0x1248 <sendMeanValuesViaCan+0x116>
    1240:	1a 3f       	cpi	r17, 0xFA	; 250
    1242:	10 f4       	brcc	.+4      	; 0x1248 <sendMeanValuesViaCan+0x116>
	{
		i++;
    1244:	1f 5f       	subi	r17, 0xFF	; 255
    1246:	f6 cf       	rjmp	.-20     	; 0x1234 <sendMeanValuesViaCan+0x102>
	
	

	

}
    1248:	2c 96       	adiw	r28, 0x0c	; 12
    124a:	0f b6       	in	r0, 0x3f	; 63
    124c:	f8 94       	cli
    124e:	de bf       	out	0x3e, r29	; 62
    1250:	0f be       	out	0x3f, r0	; 63
    1252:	cd bf       	out	0x3d, r28	; 61
    1254:	df 91       	pop	r29
    1256:	cf 91       	pop	r28
    1258:	1f 91       	pop	r17
    125a:	08 95       	ret

0000125c <sendValuesViaUart>:


void sendValuesViaUart (volatile sensValues actualValues)
{
    125c:	1f 93       	push	r17
    125e:	cf 93       	push	r28
    1260:	df 93       	push	r29
    1262:	cd b7       	in	r28, 0x3d	; 61
    1264:	de b7       	in	r29, 0x3e	; 62
    1266:	c0 58       	subi	r28, 0x80	; 128
    1268:	d1 09       	sbc	r29, r1
    126a:	0f b6       	in	r0, 0x3f	; 63
    126c:	f8 94       	cli
    126e:	de bf       	out	0x3e, r29	; 62
    1270:	0f be       	out	0x3f, r0	; 63
    1272:	cd bf       	out	0x3d, r28	; 61
	char cDebugValue[8];
	int32_t debugArray[30];
	
	debugArray[0]=sTime.days;
    1274:	80 91 51 02 	lds	r24, 0x0251	; 0x800251 <sTime>
    1278:	90 e0       	ldi	r25, 0x00	; 0
    127a:	a0 e0       	ldi	r26, 0x00	; 0
    127c:	b0 e0       	ldi	r27, 0x00	; 0
    127e:	89 83       	std	Y+1, r24	; 0x01
    1280:	9a 83       	std	Y+2, r25	; 0x02
    1282:	ab 83       	std	Y+3, r26	; 0x03
    1284:	bc 83       	std	Y+4, r27	; 0x04
	debugArray[1]=sTime.daySecs;
    1286:	80 91 52 02 	lds	r24, 0x0252	; 0x800252 <sTime+0x1>
    128a:	90 91 53 02 	lds	r25, 0x0253	; 0x800253 <sTime+0x2>
    128e:	a0 91 54 02 	lds	r26, 0x0254	; 0x800254 <sTime+0x3>
    1292:	b0 91 55 02 	lds	r27, 0x0255	; 0x800255 <sTime+0x4>
    1296:	8d 83       	std	Y+5, r24	; 0x05
    1298:	9e 83       	std	Y+6, r25	; 0x06
    129a:	af 83       	std	Y+7, r26	; 0x07
    129c:	b8 87       	std	Y+8, r27	; 0x08
	debugArray[2]=actualValues.hytTemp;
    129e:	c6 57       	subi	r28, 0x76	; 118
    12a0:	df 4f       	sbci	r29, 0xFF	; 255
    12a2:	88 81       	ld	r24, Y
    12a4:	99 81       	ldd	r25, Y+1	; 0x01
    12a6:	ca 58       	subi	r28, 0x8A	; 138
    12a8:	d0 40       	sbci	r29, 0x00	; 0
    12aa:	09 2e       	mov	r0, r25
    12ac:	00 0c       	add	r0, r0
    12ae:	aa 0b       	sbc	r26, r26
    12b0:	bb 0b       	sbc	r27, r27
    12b2:	89 87       	std	Y+9, r24	; 0x09
    12b4:	9a 87       	std	Y+10, r25	; 0x0a
    12b6:	ab 87       	std	Y+11, r26	; 0x0b
    12b8:	bc 87       	std	Y+12, r27	; 0x0c
	debugArray[3]=actualValues.feuchte;
    12ba:	c4 57       	subi	r28, 0x74	; 116
    12bc:	df 4f       	sbci	r29, 0xFF	; 255
    12be:	88 81       	ld	r24, Y
    12c0:	99 81       	ldd	r25, Y+1	; 0x01
    12c2:	cc 58       	subi	r28, 0x8C	; 140
    12c4:	d0 40       	sbci	r29, 0x00	; 0
    12c6:	09 2e       	mov	r0, r25
    12c8:	00 0c       	add	r0, r0
    12ca:	aa 0b       	sbc	r26, r26
    12cc:	bb 0b       	sbc	r27, r27
    12ce:	8d 87       	std	Y+13, r24	; 0x0d
    12d0:	9e 87       	std	Y+14, r25	; 0x0e
    12d2:	af 87       	std	Y+15, r26	; 0x0f
    12d4:	b8 8b       	std	Y+16, r27	; 0x10
	debugArray[4]=actualValues.pressure;
    12d6:	c2 57       	subi	r28, 0x72	; 114
    12d8:	df 4f       	sbci	r29, 0xFF	; 255
    12da:	88 81       	ld	r24, Y
    12dc:	99 81       	ldd	r25, Y+1	; 0x01
    12de:	aa 81       	ldd	r26, Y+2	; 0x02
    12e0:	bb 81       	ldd	r27, Y+3	; 0x03
    12e2:	ce 58       	subi	r28, 0x8E	; 142
    12e4:	d0 40       	sbci	r29, 0x00	; 0
    12e6:	89 8b       	std	Y+17, r24	; 0x11
    12e8:	9a 8b       	std	Y+18, r25	; 0x12
    12ea:	ab 8b       	std	Y+19, r26	; 0x13
    12ec:	bc 8b       	std	Y+20, r27	; 0x14
	debugArray[5]=actualValues.co;
    12ee:	c8 57       	subi	r28, 0x78	; 120
    12f0:	df 4f       	sbci	r29, 0xFF	; 255
    12f2:	88 81       	ld	r24, Y
    12f4:	99 81       	ldd	r25, Y+1	; 0x01
    12f6:	c8 58       	subi	r28, 0x88	; 136
    12f8:	d0 40       	sbci	r29, 0x00	; 0
    12fa:	09 2e       	mov	r0, r25
    12fc:	00 0c       	add	r0, r0
    12fe:	aa 0b       	sbc	r26, r26
    1300:	bb 0b       	sbc	r27, r27
    1302:	8d 8b       	std	Y+21, r24	; 0x15
    1304:	9e 8b       	std	Y+22, r25	; 0x16
    1306:	af 8b       	std	Y+23, r26	; 0x17
    1308:	b8 8f       	std	Y+24, r27	; 0x18
	debugArray[6]=actualValues.k30Status;
    130a:	cc 56       	subi	r28, 0x6C	; 108
    130c:	df 4f       	sbci	r29, 0xFF	; 255
    130e:	88 81       	ld	r24, Y
    1310:	c4 59       	subi	r28, 0x94	; 148
    1312:	d0 40       	sbci	r29, 0x00	; 0
    1314:	90 e0       	ldi	r25, 0x00	; 0
    1316:	a0 e0       	ldi	r26, 0x00	; 0
    1318:	b0 e0       	ldi	r27, 0x00	; 0
    131a:	89 8f       	std	Y+25, r24	; 0x19
    131c:	9a 8f       	std	Y+26, r25	; 0x1a
    131e:	ab 8f       	std	Y+27, r26	; 0x1b
    1320:	bc 8f       	std	Y+28, r27	; 0x1c
	debugArray[7]=actualValues.ppfd;
    1322:	ca 57       	subi	r28, 0x7A	; 122
    1324:	df 4f       	sbci	r29, 0xFF	; 255
    1326:	88 81       	ld	r24, Y
    1328:	99 81       	ldd	r25, Y+1	; 0x01
    132a:	c6 58       	subi	r28, 0x86	; 134
    132c:	d0 40       	sbci	r29, 0x00	; 0
    132e:	09 2e       	mov	r0, r25
    1330:	00 0c       	add	r0, r0
    1332:	aa 0b       	sbc	r26, r26
    1334:	bb 0b       	sbc	r27, r27
    1336:	8d 8f       	std	Y+29, r24	; 0x1d
    1338:	9e 8f       	std	Y+30, r25	; 0x1e
    133a:	af 8f       	std	Y+31, r26	; 0x1f
    133c:	b8 a3       	std	Y+32, r27	; 0x20
	debugArray[8]=actualValues.RHO;
    133e:	cb 56       	subi	r28, 0x6B	; 107
    1340:	df 4f       	sbci	r29, 0xFF	; 255
    1342:	88 81       	ld	r24, Y
    1344:	99 81       	ldd	r25, Y+1	; 0x01
    1346:	c5 59       	subi	r28, 0x95	; 149
    1348:	d0 40       	sbci	r29, 0x00	; 0
    134a:	09 2e       	mov	r0, r25
    134c:	00 0c       	add	r0, r0
    134e:	aa 0b       	sbc	r26, r26
    1350:	bb 0b       	sbc	r27, r27
    1352:	89 a3       	std	Y+33, r24	; 0x21
    1354:	9a a3       	std	Y+34, r25	; 0x22
    1356:	ab a3       	std	Y+35, r26	; 0x23
    1358:	bc a3       	std	Y+36, r27	; 0x24
	debugArray[9]=actualValues.S;
    135a:	c9 56       	subi	r28, 0x69	; 105
    135c:	df 4f       	sbci	r29, 0xFF	; 255
    135e:	88 81       	ld	r24, Y
    1360:	99 81       	ldd	r25, Y+1	; 0x01
    1362:	c7 59       	subi	r28, 0x97	; 151
    1364:	d0 40       	sbci	r29, 0x00	; 0
    1366:	09 2e       	mov	r0, r25
    1368:	00 0c       	add	r0, r0
    136a:	aa 0b       	sbc	r26, r26
    136c:	bb 0b       	sbc	r27, r27
    136e:	8d a3       	std	Y+37, r24	; 0x25
    1370:	9e a3       	std	Y+38, r25	; 0x26
    1372:	af a3       	std	Y+39, r26	; 0x27
    1374:	b8 a7       	std	Y+40, r27	; 0x28
	debugArray[10]=actualValues.AF;
    1376:	c7 56       	subi	r28, 0x67	; 103
    1378:	df 4f       	sbci	r29, 0xFF	; 255
    137a:	88 81       	ld	r24, Y
    137c:	99 81       	ldd	r25, Y+1	; 0x01
    137e:	c9 59       	subi	r28, 0x99	; 153
    1380:	d0 40       	sbci	r29, 0x00	; 0
    1382:	09 2e       	mov	r0, r25
    1384:	00 0c       	add	r0, r0
    1386:	aa 0b       	sbc	r26, r26
    1388:	bb 0b       	sbc	r27, r27
    138a:	89 a7       	std	Y+41, r24	; 0x29
    138c:	9a a7       	std	Y+42, r25	; 0x2a
    138e:	ab a7       	std	Y+43, r26	; 0x2b
    1390:	bc a7       	std	Y+44, r27	; 0x2c
	debugArray[11]=actualValues.VPD;
    1392:	c5 56       	subi	r28, 0x65	; 101
    1394:	df 4f       	sbci	r29, 0xFF	; 255
    1396:	88 81       	ld	r24, Y
    1398:	99 81       	ldd	r25, Y+1	; 0x01
    139a:	cb 59       	subi	r28, 0x9B	; 155
    139c:	d0 40       	sbci	r29, 0x00	; 0
    139e:	09 2e       	mov	r0, r25
    13a0:	00 0c       	add	r0, r0
    13a2:	aa 0b       	sbc	r26, r26
    13a4:	bb 0b       	sbc	r27, r27
    13a6:	8d a7       	std	Y+45, r24	; 0x2d
    13a8:	9e a7       	std	Y+46, r25	; 0x2e
    13aa:	af a7       	std	Y+47, r26	; 0x2f
    13ac:	b8 ab       	std	Y+48, r27	; 0x30
	
	
	debugArray[12]=actualValues.MhytTemp;
    13ae:	cf 55       	subi	r28, 0x5F	; 95
    13b0:	df 4f       	sbci	r29, 0xFF	; 255
    13b2:	88 81       	ld	r24, Y
    13b4:	99 81       	ldd	r25, Y+1	; 0x01
    13b6:	c1 5a       	subi	r28, 0xA1	; 161
    13b8:	d0 40       	sbci	r29, 0x00	; 0
    13ba:	09 2e       	mov	r0, r25
    13bc:	00 0c       	add	r0, r0
    13be:	aa 0b       	sbc	r26, r26
    13c0:	bb 0b       	sbc	r27, r27
    13c2:	89 ab       	std	Y+49, r24	; 0x31
    13c4:	9a ab       	std	Y+50, r25	; 0x32
    13c6:	ab ab       	std	Y+51, r26	; 0x33
    13c8:	bc ab       	std	Y+52, r27	; 0x34
	debugArray[13]=actualValues.Mfeuchte;
    13ca:	cd 55       	subi	r28, 0x5D	; 93
    13cc:	df 4f       	sbci	r29, 0xFF	; 255
    13ce:	88 81       	ld	r24, Y
    13d0:	99 81       	ldd	r25, Y+1	; 0x01
    13d2:	c3 5a       	subi	r28, 0xA3	; 163
    13d4:	d0 40       	sbci	r29, 0x00	; 0
    13d6:	09 2e       	mov	r0, r25
    13d8:	00 0c       	add	r0, r0
    13da:	aa 0b       	sbc	r26, r26
    13dc:	bb 0b       	sbc	r27, r27
    13de:	8d ab       	std	Y+53, r24	; 0x35
    13e0:	9e ab       	std	Y+54, r25	; 0x36
    13e2:	af ab       	std	Y+55, r26	; 0x37
    13e4:	b8 af       	std	Y+56, r27	; 0x38
	debugArray[14]=actualValues.Mpressure;
    13e6:	cb 55       	subi	r28, 0x5B	; 91
    13e8:	df 4f       	sbci	r29, 0xFF	; 255
    13ea:	88 81       	ld	r24, Y
    13ec:	99 81       	ldd	r25, Y+1	; 0x01
    13ee:	aa 81       	ldd	r26, Y+2	; 0x02
    13f0:	bb 81       	ldd	r27, Y+3	; 0x03
    13f2:	c5 5a       	subi	r28, 0xA5	; 165
    13f4:	d0 40       	sbci	r29, 0x00	; 0
    13f6:	89 af       	std	Y+57, r24	; 0x39
    13f8:	9a af       	std	Y+58, r25	; 0x3a
    13fa:	ab af       	std	Y+59, r26	; 0x3b
    13fc:	bc af       	std	Y+60, r27	; 0x3c
	debugArray[15]=actualValues.Mco;
    13fe:	c1 56       	subi	r28, 0x61	; 97
    1400:	df 4f       	sbci	r29, 0xFF	; 255
    1402:	88 81       	ld	r24, Y
    1404:	99 81       	ldd	r25, Y+1	; 0x01
    1406:	cf 59       	subi	r28, 0x9F	; 159
    1408:	d0 40       	sbci	r29, 0x00	; 0
    140a:	09 2e       	mov	r0, r25
    140c:	00 0c       	add	r0, r0
    140e:	aa 0b       	sbc	r26, r26
    1410:	bb 0b       	sbc	r27, r27
    1412:	21 96       	adiw	r28, 0x01	; 1
    1414:	8c af       	std	Y+60, r24	; 0x3c
    1416:	9d af       	std	Y+61, r25	; 0x3d
    1418:	ae af       	std	Y+62, r26	; 0x3e
    141a:	bf af       	std	Y+63, r27	; 0x3f
    141c:	21 97       	sbiw	r28, 0x01	; 1
	debugArray[16]=actualValues.Mppfd;
    141e:	c3 56       	subi	r28, 0x63	; 99
    1420:	df 4f       	sbci	r29, 0xFF	; 255
    1422:	88 81       	ld	r24, Y
    1424:	99 81       	ldd	r25, Y+1	; 0x01
    1426:	cd 59       	subi	r28, 0x9D	; 157
    1428:	d0 40       	sbci	r29, 0x00	; 0
    142a:	09 2e       	mov	r0, r25
    142c:	00 0c       	add	r0, r0
    142e:	aa 0b       	sbc	r26, r26
    1430:	bb 0b       	sbc	r27, r27
    1432:	25 96       	adiw	r28, 0x05	; 5
    1434:	8c af       	std	Y+60, r24	; 0x3c
    1436:	9d af       	std	Y+61, r25	; 0x3d
    1438:	ae af       	std	Y+62, r26	; 0x3e
    143a:	bf af       	std	Y+63, r27	; 0x3f
    143c:	25 97       	sbiw	r28, 0x05	; 5
	debugArray[17]=actualValues.MRHO;
    143e:	c5 55       	subi	r28, 0x55	; 85
    1440:	df 4f       	sbci	r29, 0xFF	; 255
    1442:	88 81       	ld	r24, Y
    1444:	99 81       	ldd	r25, Y+1	; 0x01
    1446:	cb 5a       	subi	r28, 0xAB	; 171
    1448:	d0 40       	sbci	r29, 0x00	; 0
    144a:	09 2e       	mov	r0, r25
    144c:	00 0c       	add	r0, r0
    144e:	aa 0b       	sbc	r26, r26
    1450:	bb 0b       	sbc	r27, r27
    1452:	29 96       	adiw	r28, 0x09	; 9
    1454:	8c af       	std	Y+60, r24	; 0x3c
    1456:	9d af       	std	Y+61, r25	; 0x3d
    1458:	ae af       	std	Y+62, r26	; 0x3e
    145a:	bf af       	std	Y+63, r27	; 0x3f
    145c:	29 97       	sbiw	r28, 0x09	; 9
	debugArray[18]=actualValues.MS;
    145e:	c3 55       	subi	r28, 0x53	; 83
    1460:	df 4f       	sbci	r29, 0xFF	; 255
    1462:	88 81       	ld	r24, Y
    1464:	99 81       	ldd	r25, Y+1	; 0x01
    1466:	cd 5a       	subi	r28, 0xAD	; 173
    1468:	d0 40       	sbci	r29, 0x00	; 0
    146a:	09 2e       	mov	r0, r25
    146c:	00 0c       	add	r0, r0
    146e:	aa 0b       	sbc	r26, r26
    1470:	bb 0b       	sbc	r27, r27
    1472:	2d 96       	adiw	r28, 0x0d	; 13
    1474:	8c af       	std	Y+60, r24	; 0x3c
    1476:	9d af       	std	Y+61, r25	; 0x3d
    1478:	ae af       	std	Y+62, r26	; 0x3e
    147a:	bf af       	std	Y+63, r27	; 0x3f
    147c:	2d 97       	sbiw	r28, 0x0d	; 13
	debugArray[19]=actualValues.MAF;
    147e:	c1 55       	subi	r28, 0x51	; 81
    1480:	df 4f       	sbci	r29, 0xFF	; 255
    1482:	88 81       	ld	r24, Y
    1484:	99 81       	ldd	r25, Y+1	; 0x01
    1486:	cf 5a       	subi	r28, 0xAF	; 175
    1488:	d0 40       	sbci	r29, 0x00	; 0
    148a:	09 2e       	mov	r0, r25
    148c:	00 0c       	add	r0, r0
    148e:	aa 0b       	sbc	r26, r26
    1490:	bb 0b       	sbc	r27, r27
    1492:	61 96       	adiw	r28, 0x11	; 17
    1494:	8c af       	std	Y+60, r24	; 0x3c
    1496:	9d af       	std	Y+61, r25	; 0x3d
    1498:	ae af       	std	Y+62, r26	; 0x3e
    149a:	bf af       	std	Y+63, r27	; 0x3f
    149c:	61 97       	sbiw	r28, 0x11	; 17
	debugArray[20]=actualValues.MVPD;
    149e:	cf 54       	subi	r28, 0x4F	; 79
    14a0:	df 4f       	sbci	r29, 0xFF	; 255
    14a2:	88 81       	ld	r24, Y
    14a4:	99 81       	ldd	r25, Y+1	; 0x01
    14a6:	c1 5b       	subi	r28, 0xB1	; 177
    14a8:	d0 40       	sbci	r29, 0x00	; 0
    14aa:	09 2e       	mov	r0, r25
    14ac:	00 0c       	add	r0, r0
    14ae:	aa 0b       	sbc	r26, r26
    14b0:	bb 0b       	sbc	r27, r27
    14b2:	65 96       	adiw	r28, 0x15	; 21
    14b4:	8c af       	std	Y+60, r24	; 0x3c
    14b6:	9d af       	std	Y+61, r25	; 0x3d
    14b8:	ae af       	std	Y+62, r26	; 0x3e
    14ba:	bf af       	std	Y+63, r27	; 0x3f
    14bc:	65 97       	sbiw	r28, 0x15	; 21
	debugArray[21]=actualValues.BufferCounter;
    14be:	c1 51       	subi	r28, 0x11	; 17
    14c0:	df 4f       	sbci	r29, 0xFF	; 255
    14c2:	88 81       	ld	r24, Y
    14c4:	99 81       	ldd	r25, Y+1	; 0x01
    14c6:	cf 5e       	subi	r28, 0xEF	; 239
    14c8:	d0 40       	sbci	r29, 0x00	; 0
    14ca:	a0 e0       	ldi	r26, 0x00	; 0
    14cc:	b0 e0       	ldi	r27, 0x00	; 0
    14ce:	69 96       	adiw	r28, 0x19	; 25
    14d0:	8c af       	std	Y+60, r24	; 0x3c
    14d2:	9d af       	std	Y+61, r25	; 0x3d
    14d4:	ae af       	std	Y+62, r26	; 0x3e
    14d6:	bf af       	std	Y+63, r27	; 0x3f
    14d8:	69 97       	sbiw	r28, 0x19	; 25
	
	debugArray[22]=actualValues.status;
    14da:	cf 50       	subi	r28, 0x0F	; 15
    14dc:	df 4f       	sbci	r29, 0xFF	; 255
    14de:	88 81       	ld	r24, Y
    14e0:	c1 5f       	subi	r28, 0xF1	; 241
    14e2:	d0 40       	sbci	r29, 0x00	; 0
    14e4:	90 e0       	ldi	r25, 0x00	; 0
    14e6:	a0 e0       	ldi	r26, 0x00	; 0
    14e8:	b0 e0       	ldi	r27, 0x00	; 0
    14ea:	6d 96       	adiw	r28, 0x1d	; 29
    14ec:	8c af       	std	Y+60, r24	; 0x3c
    14ee:	9d af       	std	Y+61, r25	; 0x3d
    14f0:	ae af       	std	Y+62, r26	; 0x3e
    14f2:	bf af       	std	Y+63, r27	; 0x3f
    14f4:	6d 97       	sbiw	r28, 0x1d	; 29
	//debugArray[24]=mcp2515_read_register(CanErrorStatus);
	//debugArray[25]=mcp2515_read_register(CANINTE);
	//debugArray[26]=mcp2515_read_register(CANINTF);
	//debugArray[27]=mcp2515_read_register(REC);
	//debugArray[28]=mcp2515_read_register(TEC);
	debugArray[23]=0xF0F0F0;
    14f6:	80 ef       	ldi	r24, 0xF0	; 240
    14f8:	90 ef       	ldi	r25, 0xF0	; 240
    14fa:	a0 ef       	ldi	r26, 0xF0	; 240
    14fc:	b0 e0       	ldi	r27, 0x00	; 0
    14fe:	a1 96       	adiw	r28, 0x21	; 33
    1500:	8c af       	std	Y+60, r24	; 0x3c
    1502:	9d af       	std	Y+61, r25	; 0x3d
    1504:	ae af       	std	Y+62, r26	; 0x3e
    1506:	bf af       	std	Y+63, r27	; 0x3f
    1508:	a1 97       	sbiw	r28, 0x21	; 33

	for	 (uint8_t i = 0 ; debugArray[i]!=0xF0F0F0; i++)
    150a:	10 e0       	ldi	r17, 0x00	; 0
    150c:	e1 e0       	ldi	r30, 0x01	; 1
    150e:	f0 e0       	ldi	r31, 0x00	; 0
    1510:	ec 0f       	add	r30, r28
    1512:	fd 1f       	adc	r31, r29
    1514:	24 e0       	ldi	r18, 0x04	; 4
    1516:	12 9f       	mul	r17, r18
    1518:	e0 0d       	add	r30, r0
    151a:	f1 1d       	adc	r31, r1
    151c:	11 24       	eor	r1, r1
    151e:	60 81       	ld	r22, Z
    1520:	71 81       	ldd	r23, Z+1	; 0x01
    1522:	82 81       	ldd	r24, Z+2	; 0x02
    1524:	93 81       	ldd	r25, Z+3	; 0x03
    1526:	60 3f       	cpi	r22, 0xF0	; 240
    1528:	20 ef       	ldi	r18, 0xF0	; 240
    152a:	72 07       	cpc	r23, r18
    152c:	82 07       	cpc	r24, r18
    152e:	91 05       	cpc	r25, r1
    1530:	81 f0       	breq	.+32     	; 0x1552 <sendValuesViaUart+0x2f6>
    } else if (__radix < 2 || __radix > 36) {
	*__s = 0;
	return __s;
    } else {
	extern char *__ltoa_ncheck (long, char *, unsigned char);
	return __ltoa_ncheck (__val, __s, __radix);
    1532:	2a e0       	ldi	r18, 0x0A	; 10
    1534:	ae 01       	movw	r20, r28
    1536:	47 58       	subi	r20, 0x87	; 135
    1538:	5f 4f       	sbci	r21, 0xFF	; 255
    153a:	0e 94 ab 19 	call	0x3356	; 0x3356 <__ltoa_ncheck>
	{
		ltoa ( debugArray[i],cDebugValue,10);
		uart_put_s(cDebugValue);
    153e:	ce 01       	movw	r24, r28
    1540:	87 58       	subi	r24, 0x87	; 135
    1542:	9f 4f       	sbci	r25, 0xFF	; 255
    1544:	0e 94 b6 15 	call	0x2b6c	; 0x2b6c <uart_put_s>
		uart_put_c(';');
    1548:	8b e3       	ldi	r24, 0x3B	; 59
    154a:	0e 94 af 15 	call	0x2b5e	; 0x2b5e <uart_put_c>
	//debugArray[26]=mcp2515_read_register(CANINTF);
	//debugArray[27]=mcp2515_read_register(REC);
	//debugArray[28]=mcp2515_read_register(TEC);
	debugArray[23]=0xF0F0F0;

	for	 (uint8_t i = 0 ; debugArray[i]!=0xF0F0F0; i++)
    154e:	1f 5f       	subi	r17, 0xFF	; 255
    1550:	dd cf       	rjmp	.-70     	; 0x150c <sendValuesViaUart+0x2b0>
	{
		ltoa ( debugArray[i],cDebugValue,10);
		uart_put_s(cDebugValue);
		uart_put_c(';');
	}
	uart_put_c('\n');
    1552:	8a e0       	ldi	r24, 0x0A	; 10
    1554:	0e 94 af 15 	call	0x2b5e	; 0x2b5e <uart_put_c>
}
    1558:	c0 58       	subi	r28, 0x80	; 128
    155a:	df 4f       	sbci	r29, 0xFF	; 255
    155c:	0f b6       	in	r0, 0x3f	; 63
    155e:	f8 94       	cli
    1560:	de bf       	out	0x3e, r29	; 62
    1562:	0f be       	out	0x3f, r0	; 63
    1564:	cd bf       	out	0x3d, r28	; 61
    1566:	df 91       	pop	r29
    1568:	cf 91       	pop	r28
    156a:	1f 91       	pop	r17
    156c:	08 95       	ret

0000156e <getValues>:


uint8_t getValues(volatile sensValues* actualValues)
{
    156e:	2f 92       	push	r2
    1570:	3f 92       	push	r3
    1572:	4f 92       	push	r4
    1574:	5f 92       	push	r5
    1576:	6f 92       	push	r6
    1578:	7f 92       	push	r7
    157a:	8f 92       	push	r8
    157c:	9f 92       	push	r9
    157e:	af 92       	push	r10
    1580:	bf 92       	push	r11
    1582:	cf 92       	push	r12
    1584:	df 92       	push	r13
    1586:	ef 92       	push	r14
    1588:	ff 92       	push	r15
    158a:	0f 93       	push	r16
    158c:	1f 93       	push	r17
    158e:	cf 93       	push	r28
    1590:	df 93       	push	r29
    1592:	cd b7       	in	r28, 0x3d	; 61
    1594:	de b7       	in	r29, 0x3e	; 62
    1596:	2a 97       	sbiw	r28, 0x0a	; 10
    1598:	0f b6       	in	r0, 0x3f	; 63
    159a:	f8 94       	cli
    159c:	de bf       	out	0x3e, r29	; 62
    159e:	0f be       	out	0x3f, r0	; 63
    15a0:	cd bf       	out	0x3d, r28	; 61
    15a2:	9a 87       	std	Y+10, r25	; 0x0a
    15a4:	89 87       	std	Y+9, r24	; 0x09
	double sdd=0, dd=0,vpd=0,af=0, rf=0,rho=0,s=0,temp32=0, hum32=0, p32=0;
	
	k30_get_values(&actualValues->co,&actualValues->k30Status);
    15a6:	bc 01       	movw	r22, r24
    15a8:	62 5f       	subi	r22, 0xF2	; 242
    15aa:	7f 4f       	sbci	r23, 0xFF	; 255
    15ac:	02 96       	adiw	r24, 0x02	; 2
    15ae:	0e 94 2b 05 	call	0xa56	; 0xa56 <k30_get_values>
	simple_delay(10);
    15b2:	8a e0       	ldi	r24, 0x0A	; 10
    15b4:	90 e0       	ldi	r25, 0x00	; 0
    15b6:	0e 94 7e 15 	call	0x2afc	; 0x2afc <simple_delay>
	hyt_get_values(&actualValues->hytTemp,&actualValues->feuchte);
    15ba:	69 85       	ldd	r22, Y+9	; 0x09
    15bc:	7a 85       	ldd	r23, Y+10	; 0x0a
    15be:	6a 5f       	subi	r22, 0xFA	; 250
    15c0:	7f 4f       	sbci	r23, 0xFF	; 255
    15c2:	89 85       	ldd	r24, Y+9	; 0x09
    15c4:	9a 85       	ldd	r25, Y+10	; 0x0a
    15c6:	04 96       	adiw	r24, 0x04	; 4
    15c8:	0e 94 b2 05 	call	0xb64	; 0xb64 <hyt_get_values>
	simple_delay(10);
    15cc:	8a e0       	ldi	r24, 0x0A	; 10
    15ce:	90 e0       	ldi	r25, 0x00	; 0
    15d0:	0e 94 7e 15 	call	0x2afc	; 0x2afc <simple_delay>
	bmp_get_values(&actualValues->boschTemp,&actualValues->pressure);
    15d4:	69 85       	ldd	r22, Y+9	; 0x09
    15d6:	7a 85       	ldd	r23, Y+10	; 0x0a
    15d8:	68 5f       	subi	r22, 0xF8	; 248
    15da:	7f 4f       	sbci	r23, 0xFF	; 255
    15dc:	89 85       	ldd	r24, Y+9	; 0x09
    15de:	9a 85       	ldd	r25, Y+10	; 0x0a
    15e0:	0c 96       	adiw	r24, 0x0c	; 12
    15e2:	0e 94 fb 02 	call	0x5f6	; 0x5f6 <bmp_get_values>
	actualValues->ppfd=adc_read(0);
    15e6:	80 e0       	ldi	r24, 0x00	; 0
    15e8:	0e 94 67 00 	call	0xce	; 0xce <adc_read>
    15ec:	a9 85       	ldd	r26, Y+9	; 0x09
    15ee:	ba 85       	ldd	r27, Y+10	; 0x0a
    15f0:	11 96       	adiw	r26, 0x01	; 1
    15f2:	9c 93       	st	X, r25
    15f4:	8e 93       	st	-X, r24
	
	if ( (actualValues->hytTemp != -9999) && (actualValues->feuchte != -9999) )
    15f6:	14 96       	adiw	r26, 0x04	; 4
    15f8:	8d 91       	ld	r24, X+
    15fa:	9c 91       	ld	r25, X
    15fc:	15 97       	sbiw	r26, 0x05	; 5
    15fe:	81 3f       	cpi	r24, 0xF1	; 241
    1600:	98 4d       	sbci	r25, 0xD8	; 216
    1602:	09 f4       	brne	.+2      	; 0x1606 <getValues+0x98>
    1604:	4b c1       	rjmp	.+662    	; 0x189c <getValues+0x32e>
    1606:	e9 85       	ldd	r30, Y+9	; 0x09
    1608:	fa 85       	ldd	r31, Y+10	; 0x0a
    160a:	86 81       	ldd	r24, Z+6	; 0x06
    160c:	97 81       	ldd	r25, Z+7	; 0x07
    160e:	81 3f       	cpi	r24, 0xF1	; 241
    1610:	98 4d       	sbci	r25, 0xD8	; 216
    1612:	09 f4       	brne	.+2      	; 0x1616 <getValues+0xa8>
    1614:	43 c1       	rjmp	.+646    	; 0x189c <getValues+0x32e>
	{
		temp32 = (double)actualValues->hytTemp/100.0;
    1616:	a9 85       	ldd	r26, Y+9	; 0x09
    1618:	ba 85       	ldd	r27, Y+10	; 0x0a
    161a:	14 96       	adiw	r26, 0x04	; 4
    161c:	6d 91       	ld	r22, X+
    161e:	7c 91       	ld	r23, X
    1620:	15 97       	sbiw	r26, 0x05	; 5
    1622:	07 2e       	mov	r0, r23
    1624:	00 0c       	add	r0, r0
    1626:	88 0b       	sbc	r24, r24
    1628:	99 0b       	sbc	r25, r25
    162a:	0e 94 6d 17 	call	0x2eda	; 0x2eda <__floatsisf>
    162e:	20 e0       	ldi	r18, 0x00	; 0
    1630:	30 e0       	ldi	r19, 0x00	; 0
    1632:	48 ec       	ldi	r20, 0xC8	; 200
    1634:	52 e4       	ldi	r21, 0x42	; 66
    1636:	0e 94 89 16 	call	0x2d12	; 0x2d12 <__divsf3>
    163a:	2b 01       	movw	r4, r22
    163c:	3c 01       	movw	r6, r24
		hum32 = (double)actualValues->feuchte/100.0;
    163e:	e9 85       	ldd	r30, Y+9	; 0x09
    1640:	fa 85       	ldd	r31, Y+10	; 0x0a
    1642:	06 81       	ldd	r16, Z+6	; 0x06
    1644:	17 81       	ldd	r17, Z+7	; 0x07
		p32 = (double)actualValues->pressure/100.0;
    1646:	60 85       	ldd	r22, Z+8	; 0x08
    1648:	71 85       	ldd	r23, Z+9	; 0x09
    164a:	82 85       	ldd	r24, Z+10	; 0x0a
    164c:	93 85       	ldd	r25, Z+11	; 0x0b
    164e:	0e 94 6d 17 	call	0x2eda	; 0x2eda <__floatsisf>
    1652:	20 e0       	ldi	r18, 0x00	; 0
    1654:	30 e0       	ldi	r19, 0x00	; 0
    1656:	48 ec       	ldi	r20, 0xC8	; 200
    1658:	52 e4       	ldi	r21, 0x42	; 66
    165a:	0e 94 89 16 	call	0x2d12	; 0x2d12 <__divsf3>
    165e:	4b 01       	movw	r8, r22
    1660:	5c 01       	movw	r10, r24
		const double r1=287.058;
		const double r2=461.523;
		
		sdd=(6.1094*exp((17.625*(temp32))/(243.04+(temp32))))*(1.00071*exp(0.0000045*(p32)));
    1662:	20 e0       	ldi	r18, 0x00	; 0
    1664:	30 e0       	ldi	r19, 0x00	; 0
    1666:	4d e8       	ldi	r20, 0x8D	; 141
    1668:	51 e4       	ldi	r21, 0x41	; 65
    166a:	c3 01       	movw	r24, r6
    166c:	b2 01       	movw	r22, r4
    166e:	0e 94 96 18 	call	0x312c	; 0x312c <__mulsf3>
    1672:	6b 01       	movw	r12, r22
    1674:	7c 01       	movw	r14, r24
    1676:	2d e3       	ldi	r18, 0x3D	; 61
    1678:	3a e0       	ldi	r19, 0x0A	; 10
    167a:	43 e7       	ldi	r20, 0x73	; 115
    167c:	53 e4       	ldi	r21, 0x43	; 67
    167e:	c3 01       	movw	r24, r6
    1680:	b2 01       	movw	r22, r4
    1682:	0e 94 1d 16 	call	0x2c3a	; 0x2c3a <__addsf3>
    1686:	9b 01       	movw	r18, r22
    1688:	ac 01       	movw	r20, r24
    168a:	c7 01       	movw	r24, r14
    168c:	b6 01       	movw	r22, r12
    168e:	0e 94 89 16 	call	0x2d12	; 0x2d12 <__divsf3>
    1692:	0e 94 03 17 	call	0x2e06	; 0x2e06 <exp>
    1696:	6b 01       	movw	r12, r22
    1698:	7c 01       	movw	r14, r24
    169a:	25 eb       	ldi	r18, 0xB5	; 181
    169c:	3e ef       	ldi	r19, 0xFE	; 254
    169e:	46 e9       	ldi	r20, 0x96	; 150
    16a0:	56 e3       	ldi	r21, 0x36	; 54
    16a2:	c5 01       	movw	r24, r10
    16a4:	b4 01       	movw	r22, r8
    16a6:	0e 94 96 18 	call	0x312c	; 0x312c <__mulsf3>
    16aa:	0e 94 03 17 	call	0x2e06	; 0x2e06 <exp>
    16ae:	69 83       	std	Y+1, r22	; 0x01
    16b0:	7a 83       	std	Y+2, r23	; 0x02
    16b2:	8b 83       	std	Y+3, r24	; 0x03
    16b4:	9c 83       	std	Y+4, r25	; 0x04
    16b6:	24 e3       	ldi	r18, 0x34	; 52
    16b8:	30 e8       	ldi	r19, 0x80	; 128
    16ba:	43 ec       	ldi	r20, 0xC3	; 195
    16bc:	50 e4       	ldi	r21, 0x40	; 64
    16be:	c7 01       	movw	r24, r14
    16c0:	b6 01       	movw	r22, r12
    16c2:	0e 94 96 18 	call	0x312c	; 0x312c <__mulsf3>
    16c6:	6b 01       	movw	r12, r22
    16c8:	7c 01       	movw	r14, r24
    16ca:	24 e4       	ldi	r18, 0x44	; 68
    16cc:	37 e1       	ldi	r19, 0x17	; 23
    16ce:	40 e8       	ldi	r20, 0x80	; 128
    16d0:	5f e3       	ldi	r21, 0x3F	; 63
    16d2:	69 81       	ldd	r22, Y+1	; 0x01
    16d4:	7a 81       	ldd	r23, Y+2	; 0x02
    16d6:	8b 81       	ldd	r24, Y+3	; 0x03
    16d8:	9c 81       	ldd	r25, Y+4	; 0x04
    16da:	0e 94 96 18 	call	0x312c	; 0x312c <__mulsf3>
    16de:	9b 01       	movw	r18, r22
    16e0:	ac 01       	movw	r20, r24
    16e2:	c7 01       	movw	r24, r14
    16e4:	b6 01       	movw	r22, r12
    16e6:	0e 94 96 18 	call	0x312c	; 0x312c <__mulsf3>
    16ea:	69 83       	std	Y+1, r22	; 0x01
    16ec:	7a 83       	std	Y+2, r23	; 0x02
    16ee:	8b 83       	std	Y+3, r24	; 0x03
    16f0:	9c 83       	std	Y+4, r25	; 0x04
		dd=sdd*(hum32/100.0);
    16f2:	b8 01       	movw	r22, r16
    16f4:	11 0f       	add	r17, r17
    16f6:	88 0b       	sbc	r24, r24
    16f8:	99 0b       	sbc	r25, r25
    16fa:	0e 94 6d 17 	call	0x2eda	; 0x2eda <__floatsisf>
    16fe:	20 e0       	ldi	r18, 0x00	; 0
    1700:	30 e0       	ldi	r19, 0x00	; 0
    1702:	48 ec       	ldi	r20, 0xC8	; 200
    1704:	52 e4       	ldi	r21, 0x42	; 66
    1706:	0e 94 89 16 	call	0x2d12	; 0x2d12 <__divsf3>
    170a:	20 e0       	ldi	r18, 0x00	; 0
    170c:	30 e0       	ldi	r19, 0x00	; 0
    170e:	48 ec       	ldi	r20, 0xC8	; 200
    1710:	52 e4       	ldi	r21, 0x42	; 66
    1712:	0e 94 89 16 	call	0x2d12	; 0x2d12 <__divsf3>
    1716:	29 81       	ldd	r18, Y+1	; 0x01
    1718:	3a 81       	ldd	r19, Y+2	; 0x02
    171a:	4b 81       	ldd	r20, Y+3	; 0x03
    171c:	5c 81       	ldd	r21, Y+4	; 0x04
    171e:	0e 94 96 18 	call	0x312c	; 0x312c <__mulsf3>
    1722:	6b 01       	movw	r12, r22
    1724:	7c 01       	movw	r14, r24
		rf=r1/(1.0-(hum32/100.0)*sdd/p32*(1.0-r1/r2));
		rho=(p32*100.0)/(rf*((temp32)+273.15));
    1726:	23 e3       	ldi	r18, 0x33	; 51
    1728:	33 e9       	ldi	r19, 0x93	; 147
    172a:	48 e8       	ldi	r20, 0x88	; 136
    172c:	53 e4       	ldi	r21, 0x43	; 67
    172e:	c3 01       	movw	r24, r6
    1730:	b2 01       	movw	r22, r4
    1732:	0e 94 1d 16 	call	0x2c3a	; 0x2c3a <__addsf3>
    1736:	2b 01       	movw	r4, r22
    1738:	3c 01       	movw	r6, r24
		s=(621.98001*dd)/(p32-0.37802*dd);
		af=(dd*100.0)*100.0/(r2*(temp32+273.15));
		vpd=sdd-(sdd*(hum32/100.0));
		
		actualValues->RHO = (int16_t)(rho*1000);
    173a:	20 e0       	ldi	r18, 0x00	; 0
    173c:	30 e0       	ldi	r19, 0x00	; 0
    173e:	48 ec       	ldi	r20, 0xC8	; 200
    1740:	52 e4       	ldi	r21, 0x42	; 66
    1742:	c5 01       	movw	r24, r10
    1744:	b4 01       	movw	r22, r8
    1746:	0e 94 96 18 	call	0x312c	; 0x312c <__mulsf3>
    174a:	6d 83       	std	Y+5, r22	; 0x05
    174c:	7e 83       	std	Y+6, r23	; 0x06
    174e:	8f 83       	std	Y+7, r24	; 0x07
    1750:	98 87       	std	Y+8, r25	; 0x08
    1752:	a5 01       	movw	r20, r10
    1754:	94 01       	movw	r18, r8
    1756:	c7 01       	movw	r24, r14
    1758:	b6 01       	movw	r22, r12
    175a:	0e 94 89 16 	call	0x2d12	; 0x2d12 <__divsf3>
    175e:	2c ed       	ldi	r18, 0xDC	; 220
    1760:	3b e8       	ldi	r19, 0x8B	; 139
    1762:	41 ec       	ldi	r20, 0xC1	; 193
    1764:	5e e3       	ldi	r21, 0x3E	; 62
    1766:	0e 94 96 18 	call	0x312c	; 0x312c <__mulsf3>
    176a:	9b 01       	movw	r18, r22
    176c:	ac 01       	movw	r20, r24
    176e:	60 e0       	ldi	r22, 0x00	; 0
    1770:	70 e0       	ldi	r23, 0x00	; 0
    1772:	80 e8       	ldi	r24, 0x80	; 128
    1774:	9f e3       	ldi	r25, 0x3F	; 63
    1776:	0e 94 1c 16 	call	0x2c38	; 0x2c38 <__subsf3>
    177a:	9b 01       	movw	r18, r22
    177c:	ac 01       	movw	r20, r24
    177e:	6d e6       	ldi	r22, 0x6D	; 109
    1780:	77 e8       	ldi	r23, 0x87	; 135
    1782:	8f e8       	ldi	r24, 0x8F	; 143
    1784:	93 e4       	ldi	r25, 0x43	; 67
    1786:	0e 94 89 16 	call	0x2d12	; 0x2d12 <__divsf3>
    178a:	a3 01       	movw	r20, r6
    178c:	92 01       	movw	r18, r4
    178e:	0e 94 96 18 	call	0x312c	; 0x312c <__mulsf3>
    1792:	9b 01       	movw	r18, r22
    1794:	ac 01       	movw	r20, r24
    1796:	6d 81       	ldd	r22, Y+5	; 0x05
    1798:	7e 81       	ldd	r23, Y+6	; 0x06
    179a:	8f 81       	ldd	r24, Y+7	; 0x07
    179c:	98 85       	ldd	r25, Y+8	; 0x08
    179e:	0e 94 89 16 	call	0x2d12	; 0x2d12 <__divsf3>
    17a2:	20 e0       	ldi	r18, 0x00	; 0
    17a4:	30 e0       	ldi	r19, 0x00	; 0
    17a6:	4a e7       	ldi	r20, 0x7A	; 122
    17a8:	54 e4       	ldi	r21, 0x44	; 68
    17aa:	0e 94 96 18 	call	0x312c	; 0x312c <__mulsf3>
    17ae:	0e 94 35 17 	call	0x2e6a	; 0x2e6a <__fixsfsi>
    17b2:	a9 85       	ldd	r26, Y+9	; 0x09
    17b4:	ba 85       	ldd	r27, Y+10	; 0x0a
    17b6:	50 96       	adiw	r26, 0x10	; 16
    17b8:	7c 93       	st	X, r23
    17ba:	6e 93       	st	-X, r22
    17bc:	1f 97       	sbiw	r26, 0x0f	; 15
		actualValues->S = (int16_t)(s*1000);
    17be:	28 eb       	ldi	r18, 0xB8	; 184
    17c0:	3e e7       	ldi	r19, 0x7E	; 126
    17c2:	4b e1       	ldi	r20, 0x1B	; 27
    17c4:	54 e4       	ldi	r21, 0x44	; 68
    17c6:	c7 01       	movw	r24, r14
    17c8:	b6 01       	movw	r22, r12
    17ca:	0e 94 96 18 	call	0x312c	; 0x312c <__mulsf3>
    17ce:	6d 83       	std	Y+5, r22	; 0x05
    17d0:	7e 83       	std	Y+6, r23	; 0x06
    17d2:	8f 83       	std	Y+7, r24	; 0x07
    17d4:	98 87       	std	Y+8, r25	; 0x08
    17d6:	26 ed       	ldi	r18, 0xD6	; 214
    17d8:	3b e8       	ldi	r19, 0x8B	; 139
    17da:	41 ec       	ldi	r20, 0xC1	; 193
    17dc:	5e e3       	ldi	r21, 0x3E	; 62
    17de:	c7 01       	movw	r24, r14
    17e0:	b6 01       	movw	r22, r12
    17e2:	0e 94 96 18 	call	0x312c	; 0x312c <__mulsf3>
    17e6:	9b 01       	movw	r18, r22
    17e8:	ac 01       	movw	r20, r24
    17ea:	c5 01       	movw	r24, r10
    17ec:	b4 01       	movw	r22, r8
    17ee:	0e 94 1c 16 	call	0x2c38	; 0x2c38 <__subsf3>
    17f2:	9b 01       	movw	r18, r22
    17f4:	ac 01       	movw	r20, r24
    17f6:	6d 81       	ldd	r22, Y+5	; 0x05
    17f8:	7e 81       	ldd	r23, Y+6	; 0x06
    17fa:	8f 81       	ldd	r24, Y+7	; 0x07
    17fc:	98 85       	ldd	r25, Y+8	; 0x08
    17fe:	0e 94 89 16 	call	0x2d12	; 0x2d12 <__divsf3>
    1802:	20 e0       	ldi	r18, 0x00	; 0
    1804:	30 e0       	ldi	r19, 0x00	; 0
    1806:	4a e7       	ldi	r20, 0x7A	; 122
    1808:	54 e4       	ldi	r21, 0x44	; 68
    180a:	0e 94 96 18 	call	0x312c	; 0x312c <__mulsf3>
    180e:	0e 94 35 17 	call	0x2e6a	; 0x2e6a <__fixsfsi>
    1812:	e9 85       	ldd	r30, Y+9	; 0x09
    1814:	fa 85       	ldd	r31, Y+10	; 0x0a
    1816:	72 8b       	std	Z+18, r23	; 0x12
    1818:	61 8b       	std	Z+17, r22	; 0x11
		actualValues->AF = (int16_t)(af*1000);
    181a:	20 e0       	ldi	r18, 0x00	; 0
    181c:	30 e0       	ldi	r19, 0x00	; 0
    181e:	48 ec       	ldi	r20, 0xC8	; 200
    1820:	52 e4       	ldi	r21, 0x42	; 66
    1822:	c7 01       	movw	r24, r14
    1824:	b6 01       	movw	r22, r12
    1826:	0e 94 96 18 	call	0x312c	; 0x312c <__mulsf3>
    182a:	20 e0       	ldi	r18, 0x00	; 0
    182c:	30 e0       	ldi	r19, 0x00	; 0
    182e:	48 ec       	ldi	r20, 0xC8	; 200
    1830:	52 e4       	ldi	r21, 0x42	; 66
    1832:	0e 94 96 18 	call	0x312c	; 0x312c <__mulsf3>
    1836:	4b 01       	movw	r8, r22
    1838:	5c 01       	movw	r10, r24
    183a:	22 ef       	ldi	r18, 0xF2	; 242
    183c:	32 ec       	ldi	r19, 0xC2	; 194
    183e:	46 ee       	ldi	r20, 0xE6	; 230
    1840:	53 e4       	ldi	r21, 0x43	; 67
    1842:	c3 01       	movw	r24, r6
    1844:	b2 01       	movw	r22, r4
    1846:	0e 94 96 18 	call	0x312c	; 0x312c <__mulsf3>
    184a:	9b 01       	movw	r18, r22
    184c:	ac 01       	movw	r20, r24
    184e:	c5 01       	movw	r24, r10
    1850:	b4 01       	movw	r22, r8
    1852:	0e 94 89 16 	call	0x2d12	; 0x2d12 <__divsf3>
    1856:	20 e0       	ldi	r18, 0x00	; 0
    1858:	30 e0       	ldi	r19, 0x00	; 0
    185a:	4a e7       	ldi	r20, 0x7A	; 122
    185c:	54 e4       	ldi	r21, 0x44	; 68
    185e:	0e 94 96 18 	call	0x312c	; 0x312c <__mulsf3>
    1862:	0e 94 35 17 	call	0x2e6a	; 0x2e6a <__fixsfsi>
    1866:	a9 85       	ldd	r26, Y+9	; 0x09
    1868:	ba 85       	ldd	r27, Y+10	; 0x0a
    186a:	54 96       	adiw	r26, 0x14	; 20
    186c:	7c 93       	st	X, r23
    186e:	6e 93       	st	-X, r22
    1870:	53 97       	sbiw	r26, 0x13	; 19
		actualValues->VPD = (int16_t)(vpd*100);
    1872:	a7 01       	movw	r20, r14
    1874:	96 01       	movw	r18, r12
    1876:	69 81       	ldd	r22, Y+1	; 0x01
    1878:	7a 81       	ldd	r23, Y+2	; 0x02
    187a:	8b 81       	ldd	r24, Y+3	; 0x03
    187c:	9c 81       	ldd	r25, Y+4	; 0x04
    187e:	0e 94 1c 16 	call	0x2c38	; 0x2c38 <__subsf3>
    1882:	20 e0       	ldi	r18, 0x00	; 0
    1884:	30 e0       	ldi	r19, 0x00	; 0
    1886:	48 ec       	ldi	r20, 0xC8	; 200
    1888:	52 e4       	ldi	r21, 0x42	; 66
    188a:	0e 94 96 18 	call	0x312c	; 0x312c <__mulsf3>
    188e:	0e 94 35 17 	call	0x2e6a	; 0x2e6a <__fixsfsi>
    1892:	e9 85       	ldd	r30, Y+9	; 0x09
    1894:	fa 85       	ldd	r31, Y+10	; 0x0a
    1896:	76 8b       	std	Z+22, r23	; 0x16
    1898:	65 8b       	std	Z+21, r22	; 0x15
	simple_delay(10);
	bmp_get_values(&actualValues->boschTemp,&actualValues->pressure);
	actualValues->ppfd=adc_read(0);
	
	if ( (actualValues->hytTemp != -9999) && (actualValues->feuchte != -9999) )
	{
    189a:	14 c0       	rjmp	.+40     	; 0x18c4 <getValues+0x356>
		actualValues->AF = (int16_t)(af*1000);
		actualValues->VPD = (int16_t)(vpd*100);
	}
	else
	{
		actualValues->RHO = -9999;
    189c:	81 ef       	ldi	r24, 0xF1	; 241
    189e:	98 ed       	ldi	r25, 0xD8	; 216
    18a0:	a9 85       	ldd	r26, Y+9	; 0x09
    18a2:	ba 85       	ldd	r27, Y+10	; 0x0a
    18a4:	50 96       	adiw	r26, 0x10	; 16
    18a6:	9c 93       	st	X, r25
    18a8:	8e 93       	st	-X, r24
    18aa:	1f 97       	sbiw	r26, 0x0f	; 15
		actualValues->S = -9999;
    18ac:	52 96       	adiw	r26, 0x12	; 18
    18ae:	9c 93       	st	X, r25
    18b0:	8e 93       	st	-X, r24
    18b2:	51 97       	sbiw	r26, 0x11	; 17
		actualValues->AF = -9999;
    18b4:	54 96       	adiw	r26, 0x14	; 20
    18b6:	9c 93       	st	X, r25
    18b8:	8e 93       	st	-X, r24
    18ba:	53 97       	sbiw	r26, 0x13	; 19
		actualValues->VPD = -9999;
    18bc:	56 96       	adiw	r26, 0x16	; 22
    18be:	9c 93       	st	X, r25
    18c0:	8e 93       	st	-X, r24
    18c2:	55 97       	sbiw	r26, 0x15	; 21
	//ltoa((int16_t)(vpd*100),cdebug,10);
	//uart_put_s(cdebug);
	//uart_put_c('\n');

	
	if (actualValues->BufferCounter>=intervall)
    18c4:	69 84       	ldd	r6, Y+9	; 0x09
    18c6:	7a 84       	ldd	r7, Y+10	; 0x0a
    18c8:	b9 e6       	ldi	r27, 0x69	; 105
    18ca:	6b 0e       	add	r6, r27
    18cc:	71 1c       	adc	r7, r1
    18ce:	f3 01       	movw	r30, r6
    18d0:	80 81       	ld	r24, Z
    18d2:	91 81       	ldd	r25, Z+1	; 0x01
    18d4:	a0 e0       	ldi	r26, 0x00	; 0
    18d6:	b0 e0       	ldi	r27, 0x00	; 0
    18d8:	20 90 49 02 	lds	r2, 0x0249	; 0x800249 <intervall>
    18dc:	30 90 4a 02 	lds	r3, 0x024A	; 0x80024a <intervall+0x1>
    18e0:	40 90 4b 02 	lds	r4, 0x024B	; 0x80024b <intervall+0x2>
    18e4:	50 90 4c 02 	lds	r5, 0x024C	; 0x80024c <intervall+0x3>
    18e8:	09 85       	ldd	r16, Y+9	; 0x09
    18ea:	1a 85       	ldd	r17, Y+10	; 0x0a
    18ec:	0b 5b       	subi	r16, 0xBB	; 187
    18ee:	1f 4f       	sbci	r17, 0xFF	; 255
    18f0:	48 01       	movw	r8, r16
    18f2:	09 85       	ldd	r16, Y+9	; 0x09
    18f4:	1a 85       	ldd	r17, Y+10	; 0x0a
    18f6:	07 5b       	subi	r16, 0xB7	; 183
    18f8:	1f 4f       	sbci	r17, 0xFF	; 255
    18fa:	58 01       	movw	r10, r16
    18fc:	09 85       	ldd	r16, Y+9	; 0x09
    18fe:	1a 85       	ldd	r17, Y+10	; 0x0a
    1900:	03 5b       	subi	r16, 0xB3	; 179
    1902:	1f 4f       	sbci	r17, 0xFF	; 255
    1904:	68 01       	movw	r12, r16
    1906:	09 85       	ldd	r16, Y+9	; 0x09
    1908:	1a 85       	ldd	r17, Y+10	; 0x0a
    190a:	0f 5a       	subi	r16, 0xAF	; 175
    190c:	1f 4f       	sbci	r17, 0xFF	; 255
    190e:	78 01       	movw	r14, r16
    1910:	e9 85       	ldd	r30, Y+9	; 0x09
    1912:	fa 85       	ldd	r31, Y+10	; 0x0a
    1914:	eb 5a       	subi	r30, 0xAB	; 171
    1916:	ff 4f       	sbci	r31, 0xFF	; 255
    1918:	82 15       	cp	r24, r2
    191a:	93 05       	cpc	r25, r3
    191c:	a4 05       	cpc	r26, r4
    191e:	b5 05       	cpc	r27, r5
    1920:	08 f4       	brcc	.+2      	; 0x1924 <getValues+0x3b6>
    1922:	b8 c0       	rjmp	.+368    	; 0x1a94 <getValues+0x526>
	{
		actualValues->Mppfd=-9999;
    1924:	81 ef       	ldi	r24, 0xF1	; 241
    1926:	98 ed       	ldi	r25, 0xD8	; 216
    1928:	a9 85       	ldd	r26, Y+9	; 0x09
    192a:	ba 85       	ldd	r27, Y+10	; 0x0a
    192c:	58 96       	adiw	r26, 0x18	; 24
    192e:	9c 93       	st	X, r25
    1930:	8e 93       	st	-X, r24
    1932:	57 97       	sbiw	r26, 0x17	; 23
		actualValues->Mco=-9999;
    1934:	5a 96       	adiw	r26, 0x1a	; 26
    1936:	9c 93       	st	X, r25
    1938:	8e 93       	st	-X, r24
    193a:	59 97       	sbiw	r26, 0x19	; 25
		actualValues->MhytTemp=-9999;
    193c:	5c 96       	adiw	r26, 0x1c	; 28
    193e:	9c 93       	st	X, r25
    1940:	8e 93       	st	-X, r24
    1942:	5b 97       	sbiw	r26, 0x1b	; 27
		actualValues->Mfeuchte=-9999;
    1944:	5e 96       	adiw	r26, 0x1e	; 30
    1946:	9c 93       	st	X, r25
    1948:	8e 93       	st	-X, r24
    194a:	5d 97       	sbiw	r26, 0x1d	; 29
		actualValues->Mpressure=-9999;
    194c:	41 ef       	ldi	r20, 0xF1	; 241
    194e:	58 ed       	ldi	r21, 0xD8	; 216
    1950:	6f ef       	ldi	r22, 0xFF	; 255
    1952:	7f ef       	ldi	r23, 0xFF	; 255
    1954:	5f 96       	adiw	r26, 0x1f	; 31
    1956:	4d 93       	st	X+, r20
    1958:	5d 93       	st	X+, r21
    195a:	6d 93       	st	X+, r22
    195c:	7c 93       	st	X, r23
    195e:	92 97       	sbiw	r26, 0x22	; 34
		actualValues->MboschTemp=-9999;
    1960:	94 96       	adiw	r26, 0x24	; 36
    1962:	9c 93       	st	X, r25
    1964:	8e 93       	st	-X, r24
    1966:	93 97       	sbiw	r26, 0x23	; 35
		actualValues->MRHO=-9999;
    1968:	96 96       	adiw	r26, 0x26	; 38
    196a:	9c 93       	st	X, r25
    196c:	8e 93       	st	-X, r24
    196e:	95 97       	sbiw	r26, 0x25	; 37
		actualValues->MS=-9999;
    1970:	98 96       	adiw	r26, 0x28	; 40
    1972:	9c 93       	st	X, r25
    1974:	8e 93       	st	-X, r24
    1976:	97 97       	sbiw	r26, 0x27	; 39
		actualValues->MAF=-9999;
    1978:	9a 96       	adiw	r26, 0x2a	; 42
    197a:	9c 93       	st	X, r25
    197c:	8e 93       	st	-X, r24
    197e:	99 97       	sbiw	r26, 0x29	; 41
		actualValues->MVPD=-9999;
    1980:	9c 96       	adiw	r26, 0x2c	; 44
    1982:	9c 93       	st	X, r25
    1984:	8e 93       	st	-X, r24
    1986:	9b 97       	sbiw	r26, 0x2b	; 43
		
		actualValues->BufferCounter=0;
    1988:	d3 01       	movw	r26, r6
    198a:	11 96       	adiw	r26, 0x01	; 1
    198c:	1c 92       	st	X, r1
    198e:	1e 92       	st	-X, r1
		actualValues->Bppfd=0;
    1990:	a9 85       	ldd	r26, Y+9	; 0x09
    1992:	ba 85       	ldd	r27, Y+10	; 0x0a
    1994:	9d 96       	adiw	r26, 0x2d	; 45
    1996:	1d 92       	st	X+, r1
    1998:	1d 92       	st	X+, r1
    199a:	1d 92       	st	X+, r1
    199c:	1c 92       	st	X, r1
    199e:	d0 97       	sbiw	r26, 0x30	; 48
		actualValues->Bco=0;
    19a0:	d1 96       	adiw	r26, 0x31	; 49
    19a2:	1d 92       	st	X+, r1
    19a4:	1d 92       	st	X+, r1
    19a6:	1d 92       	st	X+, r1
    19a8:	1c 92       	st	X, r1
    19aa:	d4 97       	sbiw	r26, 0x34	; 52
		actualValues->BhytTemp=0;
    19ac:	d5 96       	adiw	r26, 0x35	; 53
    19ae:	1d 92       	st	X+, r1
    19b0:	1d 92       	st	X+, r1
    19b2:	1d 92       	st	X+, r1
    19b4:	1c 92       	st	X, r1
    19b6:	d8 97       	sbiw	r26, 0x38	; 56
		actualValues->Bfeuchte=0;
    19b8:	d9 96       	adiw	r26, 0x39	; 57
    19ba:	1d 92       	st	X+, r1
    19bc:	1d 92       	st	X+, r1
    19be:	1d 92       	st	X+, r1
    19c0:	1c 92       	st	X, r1
    19c2:	dc 97       	sbiw	r26, 0x3c	; 60
		actualValues->Bpressure=0;
    19c4:	dd 96       	adiw	r26, 0x3d	; 61
    19c6:	1d 92       	st	X+, r1
    19c8:	1d 92       	st	X+, r1
    19ca:	1d 92       	st	X+, r1
    19cc:	1c 92       	st	X, r1
    19ce:	13 97       	sbiw	r26, 0x03	; 3
		actualValues->BboschTemp=0;
    19d0:	a9 85       	ldd	r26, Y+9	; 0x09
    19d2:	ba 85       	ldd	r27, Y+10	; 0x0a
    19d4:	af 5b       	subi	r26, 0xBF	; 191
    19d6:	bf 4f       	sbci	r27, 0xFF	; 255
    19d8:	1d 92       	st	X+, r1
    19da:	1d 92       	st	X+, r1
    19dc:	1d 92       	st	X+, r1
    19de:	1c 92       	st	X, r1
    19e0:	13 97       	sbiw	r26, 0x03	; 3
		actualValues->BRHO=0;
    19e2:	d4 01       	movw	r26, r8
    19e4:	1d 92       	st	X+, r1
    19e6:	1d 92       	st	X+, r1
    19e8:	1d 92       	st	X+, r1
    19ea:	1c 92       	st	X, r1
    19ec:	13 97       	sbiw	r26, 0x03	; 3
		actualValues->BS=0;
    19ee:	d5 01       	movw	r26, r10
    19f0:	1d 92       	st	X+, r1
    19f2:	1d 92       	st	X+, r1
    19f4:	1d 92       	st	X+, r1
    19f6:	1c 92       	st	X, r1
    19f8:	13 97       	sbiw	r26, 0x03	; 3
		actualValues->BAF=0;
    19fa:	d6 01       	movw	r26, r12
    19fc:	1d 92       	st	X+, r1
    19fe:	1d 92       	st	X+, r1
    1a00:	1d 92       	st	X+, r1
    1a02:	1c 92       	st	X, r1
    1a04:	13 97       	sbiw	r26, 0x03	; 3
		actualValues->BVPD=0;
    1a06:	d8 01       	movw	r26, r16
    1a08:	1d 92       	st	X+, r1
    1a0a:	1d 92       	st	X+, r1
    1a0c:	1d 92       	st	X+, r1
    1a0e:	1c 92       	st	X, r1
    1a10:	13 97       	sbiw	r26, 0x03	; 3
		
		actualValues->BppfdCounter=0;
    1a12:	11 82       	std	Z+1, r1	; 0x01
    1a14:	10 82       	st	Z, r1
		actualValues->BcoCounter=0;
    1a16:	a9 85       	ldd	r26, Y+9	; 0x09
    1a18:	ba 85       	ldd	r27, Y+10	; 0x0a
    1a1a:	a9 5a       	subi	r26, 0xA9	; 169
    1a1c:	bf 4f       	sbci	r27, 0xFF	; 255
    1a1e:	11 96       	adiw	r26, 0x01	; 1
    1a20:	1c 92       	st	X, r1
    1a22:	1e 92       	st	-X, r1
		actualValues->BhytTempCounter=0;
    1a24:	a9 85       	ldd	r26, Y+9	; 0x09
    1a26:	ba 85       	ldd	r27, Y+10	; 0x0a
    1a28:	a7 5a       	subi	r26, 0xA7	; 167
    1a2a:	bf 4f       	sbci	r27, 0xFF	; 255
    1a2c:	11 96       	adiw	r26, 0x01	; 1
    1a2e:	1c 92       	st	X, r1
    1a30:	1e 92       	st	-X, r1
		actualValues->BfeuchteCounter=0;
    1a32:	a9 85       	ldd	r26, Y+9	; 0x09
    1a34:	ba 85       	ldd	r27, Y+10	; 0x0a
    1a36:	a5 5a       	subi	r26, 0xA5	; 165
    1a38:	bf 4f       	sbci	r27, 0xFF	; 255
    1a3a:	11 96       	adiw	r26, 0x01	; 1
    1a3c:	1c 92       	st	X, r1
    1a3e:	1e 92       	st	-X, r1
		actualValues->BpressureCounter=0;
    1a40:	a9 85       	ldd	r26, Y+9	; 0x09
    1a42:	ba 85       	ldd	r27, Y+10	; 0x0a
    1a44:	a3 5a       	subi	r26, 0xA3	; 163
    1a46:	bf 4f       	sbci	r27, 0xFF	; 255
    1a48:	11 96       	adiw	r26, 0x01	; 1
    1a4a:	1c 92       	st	X, r1
    1a4c:	1e 92       	st	-X, r1
		actualValues->BboschTempCounter=0;
    1a4e:	a9 85       	ldd	r26, Y+9	; 0x09
    1a50:	ba 85       	ldd	r27, Y+10	; 0x0a
    1a52:	a1 5a       	subi	r26, 0xA1	; 161
    1a54:	bf 4f       	sbci	r27, 0xFF	; 255
    1a56:	11 96       	adiw	r26, 0x01	; 1
    1a58:	1c 92       	st	X, r1
    1a5a:	1e 92       	st	-X, r1
		actualValues->BRHOCounter=0;
    1a5c:	a9 85       	ldd	r26, Y+9	; 0x09
    1a5e:	ba 85       	ldd	r27, Y+10	; 0x0a
    1a60:	af 59       	subi	r26, 0x9F	; 159
    1a62:	bf 4f       	sbci	r27, 0xFF	; 255
    1a64:	11 96       	adiw	r26, 0x01	; 1
    1a66:	1c 92       	st	X, r1
    1a68:	1e 92       	st	-X, r1
		actualValues->BSCounter=0;
    1a6a:	a9 85       	ldd	r26, Y+9	; 0x09
    1a6c:	ba 85       	ldd	r27, Y+10	; 0x0a
    1a6e:	ad 59       	subi	r26, 0x9D	; 157
    1a70:	bf 4f       	sbci	r27, 0xFF	; 255
    1a72:	11 96       	adiw	r26, 0x01	; 1
    1a74:	1c 92       	st	X, r1
    1a76:	1e 92       	st	-X, r1
		actualValues->BAFCounter=0;
    1a78:	a9 85       	ldd	r26, Y+9	; 0x09
    1a7a:	ba 85       	ldd	r27, Y+10	; 0x0a
    1a7c:	ab 59       	subi	r26, 0x9B	; 155
    1a7e:	bf 4f       	sbci	r27, 0xFF	; 255
    1a80:	11 96       	adiw	r26, 0x01	; 1
    1a82:	1c 92       	st	X, r1
    1a84:	1e 92       	st	-X, r1
		actualValues->BVPDCounter=0;
    1a86:	a9 85       	ldd	r26, Y+9	; 0x09
    1a88:	ba 85       	ldd	r27, Y+10	; 0x0a
    1a8a:	a9 59       	subi	r26, 0x99	; 153
    1a8c:	bf 4f       	sbci	r27, 0xFF	; 255
    1a8e:	11 96       	adiw	r26, 0x01	; 1
    1a90:	1c 92       	st	X, r1
    1a92:	1e 92       	st	-X, r1
	}
	actualValues->BufferCounter++;
    1a94:	d3 01       	movw	r26, r6
    1a96:	8d 91       	ld	r24, X+
    1a98:	9c 91       	ld	r25, X
    1a9a:	11 97       	sbiw	r26, 0x01	; 1
    1a9c:	01 96       	adiw	r24, 0x01	; 1
    1a9e:	11 96       	adiw	r26, 0x01	; 1
    1aa0:	9c 93       	st	X, r25
    1aa2:	8e 93       	st	-X, r24
	
	actualValues->BppfdCounter++;
    1aa4:	80 81       	ld	r24, Z
    1aa6:	91 81       	ldd	r25, Z+1	; 0x01
    1aa8:	01 96       	adiw	r24, 0x01	; 1
    1aaa:	91 83       	std	Z+1, r25	; 0x01
    1aac:	80 83       	st	Z, r24
	actualValues->Bppfd+=actualValues->ppfd;
    1aae:	a9 85       	ldd	r26, Y+9	; 0x09
    1ab0:	ba 85       	ldd	r27, Y+10	; 0x0a
    1ab2:	8d 91       	ld	r24, X+
    1ab4:	9c 91       	ld	r25, X
    1ab6:	11 97       	sbiw	r26, 0x01	; 1
    1ab8:	9d 96       	adiw	r26, 0x2d	; 45
    1aba:	4d 91       	ld	r20, X+
    1abc:	5d 91       	ld	r21, X+
    1abe:	6d 91       	ld	r22, X+
    1ac0:	7c 91       	ld	r23, X
    1ac2:	d0 97       	sbiw	r26, 0x30	; 48
    1ac4:	09 2e       	mov	r0, r25
    1ac6:	00 0c       	add	r0, r0
    1ac8:	aa 0b       	sbc	r26, r26
    1aca:	bb 0b       	sbc	r27, r27
    1acc:	48 0f       	add	r20, r24
    1ace:	59 1f       	adc	r21, r25
    1ad0:	6a 1f       	adc	r22, r26
    1ad2:	7b 1f       	adc	r23, r27
    1ad4:	a9 85       	ldd	r26, Y+9	; 0x09
    1ad6:	ba 85       	ldd	r27, Y+10	; 0x0a
    1ad8:	9d 96       	adiw	r26, 0x2d	; 45
    1ada:	4d 93       	st	X+, r20
    1adc:	5d 93       	st	X+, r21
    1ade:	6d 93       	st	X+, r22
    1ae0:	7c 93       	st	X, r23
    1ae2:	d0 97       	sbiw	r26, 0x30	; 48
	actualValues->Mppfd=(actualValues->Bppfd+(actualValues->BppfdCounter/2) ) / actualValues->BppfdCounter;
    1ae4:	9d 96       	adiw	r26, 0x2d	; 45
    1ae6:	4d 91       	ld	r20, X+
    1ae8:	5d 91       	ld	r21, X+
    1aea:	6d 91       	ld	r22, X+
    1aec:	7c 91       	ld	r23, X
    1aee:	d0 97       	sbiw	r26, 0x30	; 48
    1af0:	80 81       	ld	r24, Z
    1af2:	91 81       	ldd	r25, Z+1	; 0x01
    1af4:	01 90       	ld	r0, Z+
    1af6:	f0 81       	ld	r31, Z
    1af8:	e0 2d       	mov	r30, r0
    1afa:	97 fd       	sbrc	r25, 7
    1afc:	01 96       	adiw	r24, 0x01	; 1
    1afe:	95 95       	asr	r25
    1b00:	87 95       	ror	r24
    1b02:	09 2e       	mov	r0, r25
    1b04:	00 0c       	add	r0, r0
    1b06:	aa 0b       	sbc	r26, r26
    1b08:	bb 0b       	sbc	r27, r27
    1b0a:	8c 01       	movw	r16, r24
    1b0c:	9d 01       	movw	r18, r26
    1b0e:	04 0f       	add	r16, r20
    1b10:	15 1f       	adc	r17, r21
    1b12:	26 1f       	adc	r18, r22
    1b14:	37 1f       	adc	r19, r23
    1b16:	c9 01       	movw	r24, r18
    1b18:	b8 01       	movw	r22, r16
    1b1a:	9f 01       	movw	r18, r30
    1b1c:	ff 0f       	add	r31, r31
    1b1e:	44 0b       	sbc	r20, r20
    1b20:	55 0b       	sbc	r21, r21
    1b22:	0e 94 43 19 	call	0x3286	; 0x3286 <__divmodsi4>
    1b26:	a9 85       	ldd	r26, Y+9	; 0x09
    1b28:	ba 85       	ldd	r27, Y+10	; 0x0a
    1b2a:	58 96       	adiw	r26, 0x18	; 24
    1b2c:	3c 93       	st	X, r19
    1b2e:	2e 93       	st	-X, r18
    1b30:	57 97       	sbiw	r26, 0x17	; 23

	if (actualValues->co!=-9999)
    1b32:	12 96       	adiw	r26, 0x02	; 2
    1b34:	8d 91       	ld	r24, X+
    1b36:	9c 91       	ld	r25, X
    1b38:	13 97       	sbiw	r26, 0x03	; 3
    1b3a:	8d 01       	movw	r16, r26
    1b3c:	05 59       	subi	r16, 0x95	; 149
    1b3e:	1f 4f       	sbci	r17, 0xFF	; 255
    1b40:	81 3f       	cpi	r24, 0xF1	; 241
    1b42:	98 4d       	sbci	r25, 0xD8	; 216
    1b44:	09 f4       	brne	.+2      	; 0x1b48 <getValues+0x5da>
    1b46:	57 c0       	rjmp	.+174    	; 0x1bf6 <getValues+0x688>
	{
		actualValues->BcoCounter++;
    1b48:	e9 85       	ldd	r30, Y+9	; 0x09
    1b4a:	fa 85       	ldd	r31, Y+10	; 0x0a
    1b4c:	e9 5a       	subi	r30, 0xA9	; 169
    1b4e:	ff 4f       	sbci	r31, 0xFF	; 255
    1b50:	80 81       	ld	r24, Z
    1b52:	91 81       	ldd	r25, Z+1	; 0x01
    1b54:	01 96       	adiw	r24, 0x01	; 1
    1b56:	91 83       	std	Z+1, r25	; 0x01
    1b58:	80 83       	st	Z, r24
		actualValues->Bco+=actualValues->co;
    1b5a:	a9 85       	ldd	r26, Y+9	; 0x09
    1b5c:	ba 85       	ldd	r27, Y+10	; 0x0a
    1b5e:	12 96       	adiw	r26, 0x02	; 2
    1b60:	8d 91       	ld	r24, X+
    1b62:	9c 91       	ld	r25, X
    1b64:	13 97       	sbiw	r26, 0x03	; 3
    1b66:	d1 96       	adiw	r26, 0x31	; 49
    1b68:	4d 91       	ld	r20, X+
    1b6a:	5d 91       	ld	r21, X+
    1b6c:	6d 91       	ld	r22, X+
    1b6e:	7c 91       	ld	r23, X
    1b70:	d4 97       	sbiw	r26, 0x34	; 52
    1b72:	09 2e       	mov	r0, r25
    1b74:	00 0c       	add	r0, r0
    1b76:	aa 0b       	sbc	r26, r26
    1b78:	bb 0b       	sbc	r27, r27
    1b7a:	48 0f       	add	r20, r24
    1b7c:	59 1f       	adc	r21, r25
    1b7e:	6a 1f       	adc	r22, r26
    1b80:	7b 1f       	adc	r23, r27
    1b82:	a9 85       	ldd	r26, Y+9	; 0x09
    1b84:	ba 85       	ldd	r27, Y+10	; 0x0a
    1b86:	d1 96       	adiw	r26, 0x31	; 49
    1b88:	4d 93       	st	X+, r20
    1b8a:	5d 93       	st	X+, r21
    1b8c:	6d 93       	st	X+, r22
    1b8e:	7c 93       	st	X, r23
    1b90:	d4 97       	sbiw	r26, 0x34	; 52
		actualValues->Mco=(actualValues->Bco+(actualValues->BcoCounter/2) ) / actualValues->BcoCounter;
    1b92:	d1 96       	adiw	r26, 0x31	; 49
    1b94:	2d 91       	ld	r18, X+
    1b96:	3d 91       	ld	r19, X+
    1b98:	4d 91       	ld	r20, X+
    1b9a:	5c 91       	ld	r21, X
    1b9c:	d4 97       	sbiw	r26, 0x34	; 52
    1b9e:	29 83       	std	Y+1, r18	; 0x01
    1ba0:	3a 83       	std	Y+2, r19	; 0x02
    1ba2:	4b 83       	std	Y+3, r20	; 0x03
    1ba4:	5c 83       	std	Y+4, r21	; 0x04
    1ba6:	80 81       	ld	r24, Z
    1ba8:	91 81       	ldd	r25, Z+1	; 0x01
    1baa:	01 90       	ld	r0, Z+
    1bac:	f0 81       	ld	r31, Z
    1bae:	e0 2d       	mov	r30, r0
    1bb0:	97 fd       	sbrc	r25, 7
    1bb2:	01 96       	adiw	r24, 0x01	; 1
    1bb4:	95 95       	asr	r25
    1bb6:	87 95       	ror	r24
    1bb8:	09 2e       	mov	r0, r25
    1bba:	00 0c       	add	r0, r0
    1bbc:	aa 0b       	sbc	r26, r26
    1bbe:	bb 0b       	sbc	r27, r27
    1bc0:	29 81       	ldd	r18, Y+1	; 0x01
    1bc2:	3a 81       	ldd	r19, Y+2	; 0x02
    1bc4:	4b 81       	ldd	r20, Y+3	; 0x03
    1bc6:	5c 81       	ldd	r21, Y+4	; 0x04
    1bc8:	28 0f       	add	r18, r24
    1bca:	39 1f       	adc	r19, r25
    1bcc:	4a 1f       	adc	r20, r26
    1bce:	5b 1f       	adc	r21, r27
    1bd0:	ca 01       	movw	r24, r20
    1bd2:	b9 01       	movw	r22, r18
    1bd4:	9f 01       	movw	r18, r30
    1bd6:	ff 0f       	add	r31, r31
    1bd8:	44 0b       	sbc	r20, r20
    1bda:	55 0b       	sbc	r21, r21
    1bdc:	0e 94 43 19 	call	0x3286	; 0x3286 <__divmodsi4>
    1be0:	a9 85       	ldd	r26, Y+9	; 0x09
    1be2:	ba 85       	ldd	r27, Y+10	; 0x0a
    1be4:	5a 96       	adiw	r26, 0x1a	; 26
    1be6:	3c 93       	st	X, r19
    1be8:	2e 93       	st	-X, r18
    1bea:	59 97       	sbiw	r26, 0x19	; 25
		actualValues->status &= ~(1<<0);
    1bec:	f8 01       	movw	r30, r16
    1bee:	80 81       	ld	r24, Z
    1bf0:	8e 7f       	andi	r24, 0xFE	; 254
    1bf2:	80 83       	st	Z, r24
    1bf4:	04 c0       	rjmp	.+8      	; 0x1bfe <getValues+0x690>
	}
	else
	{
		actualValues->status |= (1<<0);
    1bf6:	d8 01       	movw	r26, r16
    1bf8:	8c 91       	ld	r24, X
    1bfa:	81 60       	ori	r24, 0x01	; 1
    1bfc:	8c 93       	st	X, r24
	}
	

	if (actualValues->hytTemp!=-9999)
    1bfe:	e9 85       	ldd	r30, Y+9	; 0x09
    1c00:	fa 85       	ldd	r31, Y+10	; 0x0a
    1c02:	84 81       	ldd	r24, Z+4	; 0x04
    1c04:	95 81       	ldd	r25, Z+5	; 0x05
    1c06:	81 3f       	cpi	r24, 0xF1	; 241
    1c08:	98 4d       	sbci	r25, 0xD8	; 216
    1c0a:	09 f4       	brne	.+2      	; 0x1c0e <getValues+0x6a0>
    1c0c:	57 c0       	rjmp	.+174    	; 0x1cbc <getValues+0x74e>
	{
		actualValues->BhytTempCounter++;
    1c0e:	e9 85       	ldd	r30, Y+9	; 0x09
    1c10:	fa 85       	ldd	r31, Y+10	; 0x0a
    1c12:	e7 5a       	subi	r30, 0xA7	; 167
    1c14:	ff 4f       	sbci	r31, 0xFF	; 255
    1c16:	80 81       	ld	r24, Z
    1c18:	91 81       	ldd	r25, Z+1	; 0x01
    1c1a:	01 96       	adiw	r24, 0x01	; 1
    1c1c:	91 83       	std	Z+1, r25	; 0x01
    1c1e:	80 83       	st	Z, r24
		actualValues->BhytTemp+=actualValues->hytTemp;
    1c20:	a9 85       	ldd	r26, Y+9	; 0x09
    1c22:	ba 85       	ldd	r27, Y+10	; 0x0a
    1c24:	14 96       	adiw	r26, 0x04	; 4
    1c26:	8d 91       	ld	r24, X+
    1c28:	9c 91       	ld	r25, X
    1c2a:	15 97       	sbiw	r26, 0x05	; 5
    1c2c:	d5 96       	adiw	r26, 0x35	; 53
    1c2e:	4d 91       	ld	r20, X+
    1c30:	5d 91       	ld	r21, X+
    1c32:	6d 91       	ld	r22, X+
    1c34:	7c 91       	ld	r23, X
    1c36:	d8 97       	sbiw	r26, 0x38	; 56
    1c38:	09 2e       	mov	r0, r25
    1c3a:	00 0c       	add	r0, r0
    1c3c:	aa 0b       	sbc	r26, r26
    1c3e:	bb 0b       	sbc	r27, r27
    1c40:	48 0f       	add	r20, r24
    1c42:	59 1f       	adc	r21, r25
    1c44:	6a 1f       	adc	r22, r26
    1c46:	7b 1f       	adc	r23, r27
    1c48:	a9 85       	ldd	r26, Y+9	; 0x09
    1c4a:	ba 85       	ldd	r27, Y+10	; 0x0a
    1c4c:	d5 96       	adiw	r26, 0x35	; 53
    1c4e:	4d 93       	st	X+, r20
    1c50:	5d 93       	st	X+, r21
    1c52:	6d 93       	st	X+, r22
    1c54:	7c 93       	st	X, r23
    1c56:	d8 97       	sbiw	r26, 0x38	; 56
		actualValues->MhytTemp=(actualValues->BhytTemp+(actualValues->BhytTempCounter/2) ) / actualValues->BhytTempCounter;
    1c58:	d5 96       	adiw	r26, 0x35	; 53
    1c5a:	2d 91       	ld	r18, X+
    1c5c:	3d 91       	ld	r19, X+
    1c5e:	4d 91       	ld	r20, X+
    1c60:	5c 91       	ld	r21, X
    1c62:	d8 97       	sbiw	r26, 0x38	; 56
    1c64:	29 83       	std	Y+1, r18	; 0x01
    1c66:	3a 83       	std	Y+2, r19	; 0x02
    1c68:	4b 83       	std	Y+3, r20	; 0x03
    1c6a:	5c 83       	std	Y+4, r21	; 0x04
    1c6c:	80 81       	ld	r24, Z
    1c6e:	91 81       	ldd	r25, Z+1	; 0x01
    1c70:	01 90       	ld	r0, Z+
    1c72:	f0 81       	ld	r31, Z
    1c74:	e0 2d       	mov	r30, r0
    1c76:	97 fd       	sbrc	r25, 7
    1c78:	01 96       	adiw	r24, 0x01	; 1
    1c7a:	95 95       	asr	r25
    1c7c:	87 95       	ror	r24
    1c7e:	09 2e       	mov	r0, r25
    1c80:	00 0c       	add	r0, r0
    1c82:	aa 0b       	sbc	r26, r26
    1c84:	bb 0b       	sbc	r27, r27
    1c86:	29 81       	ldd	r18, Y+1	; 0x01
    1c88:	3a 81       	ldd	r19, Y+2	; 0x02
    1c8a:	4b 81       	ldd	r20, Y+3	; 0x03
    1c8c:	5c 81       	ldd	r21, Y+4	; 0x04
    1c8e:	28 0f       	add	r18, r24
    1c90:	39 1f       	adc	r19, r25
    1c92:	4a 1f       	adc	r20, r26
    1c94:	5b 1f       	adc	r21, r27
    1c96:	ca 01       	movw	r24, r20
    1c98:	b9 01       	movw	r22, r18
    1c9a:	9f 01       	movw	r18, r30
    1c9c:	ff 0f       	add	r31, r31
    1c9e:	44 0b       	sbc	r20, r20
    1ca0:	55 0b       	sbc	r21, r21
    1ca2:	0e 94 43 19 	call	0x3286	; 0x3286 <__divmodsi4>
    1ca6:	a9 85       	ldd	r26, Y+9	; 0x09
    1ca8:	ba 85       	ldd	r27, Y+10	; 0x0a
    1caa:	5c 96       	adiw	r26, 0x1c	; 28
    1cac:	3c 93       	st	X, r19
    1cae:	2e 93       	st	-X, r18
    1cb0:	5b 97       	sbiw	r26, 0x1b	; 27
		actualValues->status &= ~(1<<1);
    1cb2:	f8 01       	movw	r30, r16
    1cb4:	80 81       	ld	r24, Z
    1cb6:	8d 7f       	andi	r24, 0xFD	; 253
    1cb8:	80 83       	st	Z, r24
    1cba:	04 c0       	rjmp	.+8      	; 0x1cc4 <getValues+0x756>
	}
	else
	{
		actualValues->status |= (1<<1);
    1cbc:	d8 01       	movw	r26, r16
    1cbe:	8c 91       	ld	r24, X
    1cc0:	82 60       	ori	r24, 0x02	; 2
    1cc2:	8c 93       	st	X, r24
	}
	
	

	if (actualValues->feuchte != -9999)
    1cc4:	e9 85       	ldd	r30, Y+9	; 0x09
    1cc6:	fa 85       	ldd	r31, Y+10	; 0x0a
    1cc8:	86 81       	ldd	r24, Z+6	; 0x06
    1cca:	97 81       	ldd	r25, Z+7	; 0x07
    1ccc:	81 3f       	cpi	r24, 0xF1	; 241
    1cce:	98 4d       	sbci	r25, 0xD8	; 216
    1cd0:	09 f4       	brne	.+2      	; 0x1cd4 <getValues+0x766>
    1cd2:	57 c0       	rjmp	.+174    	; 0x1d82 <getValues+0x814>
	{
		actualValues->BfeuchteCounter++;
    1cd4:	e9 85       	ldd	r30, Y+9	; 0x09
    1cd6:	fa 85       	ldd	r31, Y+10	; 0x0a
    1cd8:	e5 5a       	subi	r30, 0xA5	; 165
    1cda:	ff 4f       	sbci	r31, 0xFF	; 255
    1cdc:	80 81       	ld	r24, Z
    1cde:	91 81       	ldd	r25, Z+1	; 0x01
    1ce0:	01 96       	adiw	r24, 0x01	; 1
    1ce2:	91 83       	std	Z+1, r25	; 0x01
    1ce4:	80 83       	st	Z, r24
		actualValues->Bfeuchte+=actualValues->feuchte;
    1ce6:	a9 85       	ldd	r26, Y+9	; 0x09
    1ce8:	ba 85       	ldd	r27, Y+10	; 0x0a
    1cea:	16 96       	adiw	r26, 0x06	; 6
    1cec:	8d 91       	ld	r24, X+
    1cee:	9c 91       	ld	r25, X
    1cf0:	17 97       	sbiw	r26, 0x07	; 7
    1cf2:	d9 96       	adiw	r26, 0x39	; 57
    1cf4:	4d 91       	ld	r20, X+
    1cf6:	5d 91       	ld	r21, X+
    1cf8:	6d 91       	ld	r22, X+
    1cfa:	7c 91       	ld	r23, X
    1cfc:	dc 97       	sbiw	r26, 0x3c	; 60
    1cfe:	09 2e       	mov	r0, r25
    1d00:	00 0c       	add	r0, r0
    1d02:	aa 0b       	sbc	r26, r26
    1d04:	bb 0b       	sbc	r27, r27
    1d06:	48 0f       	add	r20, r24
    1d08:	59 1f       	adc	r21, r25
    1d0a:	6a 1f       	adc	r22, r26
    1d0c:	7b 1f       	adc	r23, r27
    1d0e:	a9 85       	ldd	r26, Y+9	; 0x09
    1d10:	ba 85       	ldd	r27, Y+10	; 0x0a
    1d12:	d9 96       	adiw	r26, 0x39	; 57
    1d14:	4d 93       	st	X+, r20
    1d16:	5d 93       	st	X+, r21
    1d18:	6d 93       	st	X+, r22
    1d1a:	7c 93       	st	X, r23
    1d1c:	dc 97       	sbiw	r26, 0x3c	; 60
		actualValues->Mfeuchte=(actualValues->Bfeuchte+(actualValues->BfeuchteCounter/2) ) / actualValues->BfeuchteCounter;
    1d1e:	d9 96       	adiw	r26, 0x39	; 57
    1d20:	2d 91       	ld	r18, X+
    1d22:	3d 91       	ld	r19, X+
    1d24:	4d 91       	ld	r20, X+
    1d26:	5c 91       	ld	r21, X
    1d28:	dc 97       	sbiw	r26, 0x3c	; 60
    1d2a:	29 83       	std	Y+1, r18	; 0x01
    1d2c:	3a 83       	std	Y+2, r19	; 0x02
    1d2e:	4b 83       	std	Y+3, r20	; 0x03
    1d30:	5c 83       	std	Y+4, r21	; 0x04
    1d32:	80 81       	ld	r24, Z
    1d34:	91 81       	ldd	r25, Z+1	; 0x01
    1d36:	01 90       	ld	r0, Z+
    1d38:	f0 81       	ld	r31, Z
    1d3a:	e0 2d       	mov	r30, r0
    1d3c:	97 fd       	sbrc	r25, 7
    1d3e:	01 96       	adiw	r24, 0x01	; 1
    1d40:	95 95       	asr	r25
    1d42:	87 95       	ror	r24
    1d44:	09 2e       	mov	r0, r25
    1d46:	00 0c       	add	r0, r0
    1d48:	aa 0b       	sbc	r26, r26
    1d4a:	bb 0b       	sbc	r27, r27
    1d4c:	29 81       	ldd	r18, Y+1	; 0x01
    1d4e:	3a 81       	ldd	r19, Y+2	; 0x02
    1d50:	4b 81       	ldd	r20, Y+3	; 0x03
    1d52:	5c 81       	ldd	r21, Y+4	; 0x04
    1d54:	28 0f       	add	r18, r24
    1d56:	39 1f       	adc	r19, r25
    1d58:	4a 1f       	adc	r20, r26
    1d5a:	5b 1f       	adc	r21, r27
    1d5c:	ca 01       	movw	r24, r20
    1d5e:	b9 01       	movw	r22, r18
    1d60:	9f 01       	movw	r18, r30
    1d62:	ff 0f       	add	r31, r31
    1d64:	44 0b       	sbc	r20, r20
    1d66:	55 0b       	sbc	r21, r21
    1d68:	0e 94 43 19 	call	0x3286	; 0x3286 <__divmodsi4>
    1d6c:	a9 85       	ldd	r26, Y+9	; 0x09
    1d6e:	ba 85       	ldd	r27, Y+10	; 0x0a
    1d70:	5e 96       	adiw	r26, 0x1e	; 30
    1d72:	3c 93       	st	X, r19
    1d74:	2e 93       	st	-X, r18
    1d76:	5d 97       	sbiw	r26, 0x1d	; 29

		actualValues->status &= ~(1<<2);
    1d78:	f8 01       	movw	r30, r16
    1d7a:	80 81       	ld	r24, Z
    1d7c:	8b 7f       	andi	r24, 0xFB	; 251
    1d7e:	80 83       	st	Z, r24
    1d80:	04 c0       	rjmp	.+8      	; 0x1d8a <getValues+0x81c>
	}
	else
	{
		actualValues->status |= (1<<2);
    1d82:	d8 01       	movw	r26, r16
    1d84:	8c 91       	ld	r24, X
    1d86:	84 60       	ori	r24, 0x04	; 4
    1d88:	8c 93       	st	X, r24
	}
	

	if (actualValues->pressure != -9999)
    1d8a:	e9 85       	ldd	r30, Y+9	; 0x09
    1d8c:	fa 85       	ldd	r31, Y+10	; 0x0a
    1d8e:	80 85       	ldd	r24, Z+8	; 0x08
    1d90:	91 85       	ldd	r25, Z+9	; 0x09
    1d92:	a2 85       	ldd	r26, Z+10	; 0x0a
    1d94:	b3 85       	ldd	r27, Z+11	; 0x0b
    1d96:	81 3f       	cpi	r24, 0xF1	; 241
    1d98:	98 4d       	sbci	r25, 0xD8	; 216
    1d9a:	af 4f       	sbci	r26, 0xFF	; 255
    1d9c:	bf 4f       	sbci	r27, 0xFF	; 255
    1d9e:	09 f4       	brne	.+2      	; 0x1da2 <getValues+0x834>
    1da0:	57 c0       	rjmp	.+174    	; 0x1e50 <getValues+0x8e2>
	{
		actualValues->BpressureCounter++;
    1da2:	e9 85       	ldd	r30, Y+9	; 0x09
    1da4:	fa 85       	ldd	r31, Y+10	; 0x0a
    1da6:	e3 5a       	subi	r30, 0xA3	; 163
    1da8:	ff 4f       	sbci	r31, 0xFF	; 255
    1daa:	80 81       	ld	r24, Z
    1dac:	91 81       	ldd	r25, Z+1	; 0x01
    1dae:	01 96       	adiw	r24, 0x01	; 1
    1db0:	91 83       	std	Z+1, r25	; 0x01
    1db2:	80 83       	st	Z, r24
		actualValues->Bpressure+=actualValues->pressure;
    1db4:	a9 85       	ldd	r26, Y+9	; 0x09
    1db6:	ba 85       	ldd	r27, Y+10	; 0x0a
    1db8:	18 96       	adiw	r26, 0x08	; 8
    1dba:	4d 91       	ld	r20, X+
    1dbc:	5d 91       	ld	r21, X+
    1dbe:	6d 91       	ld	r22, X+
    1dc0:	7c 91       	ld	r23, X
    1dc2:	1b 97       	sbiw	r26, 0x0b	; 11
    1dc4:	9d 01       	movw	r18, r26
    1dc6:	23 5c       	subi	r18, 0xC3	; 195
    1dc8:	3f 4f       	sbci	r19, 0xFF	; 255
    1dca:	d9 01       	movw	r26, r18
    1dcc:	8d 91       	ld	r24, X+
    1dce:	9d 91       	ld	r25, X+
    1dd0:	0d 90       	ld	r0, X+
    1dd2:	bc 91       	ld	r27, X
    1dd4:	a0 2d       	mov	r26, r0
    1dd6:	48 0f       	add	r20, r24
    1dd8:	59 1f       	adc	r21, r25
    1dda:	6a 1f       	adc	r22, r26
    1ddc:	7b 1f       	adc	r23, r27
    1dde:	d9 01       	movw	r26, r18
    1de0:	4d 93       	st	X+, r20
    1de2:	5d 93       	st	X+, r21
    1de4:	6d 93       	st	X+, r22
    1de6:	7c 93       	st	X, r23
    1de8:	13 97       	sbiw	r26, 0x03	; 3
		actualValues->Mpressure=(actualValues->Bpressure+(actualValues->BpressureCounter/2) ) / actualValues->BpressureCounter;
    1dea:	8d 91       	ld	r24, X+
    1dec:	9d 91       	ld	r25, X+
    1dee:	0d 90       	ld	r0, X+
    1df0:	bc 91       	ld	r27, X
    1df2:	a0 2d       	mov	r26, r0
    1df4:	89 83       	std	Y+1, r24	; 0x01
    1df6:	9a 83       	std	Y+2, r25	; 0x02
    1df8:	ab 83       	std	Y+3, r26	; 0x03
    1dfa:	bc 83       	std	Y+4, r27	; 0x04
    1dfc:	80 81       	ld	r24, Z
    1dfe:	91 81       	ldd	r25, Z+1	; 0x01
    1e00:	01 90       	ld	r0, Z+
    1e02:	f0 81       	ld	r31, Z
    1e04:	e0 2d       	mov	r30, r0
    1e06:	97 fd       	sbrc	r25, 7
    1e08:	01 96       	adiw	r24, 0x01	; 1
    1e0a:	95 95       	asr	r25
    1e0c:	87 95       	ror	r24
    1e0e:	09 2e       	mov	r0, r25
    1e10:	00 0c       	add	r0, r0
    1e12:	aa 0b       	sbc	r26, r26
    1e14:	bb 0b       	sbc	r27, r27
    1e16:	29 81       	ldd	r18, Y+1	; 0x01
    1e18:	3a 81       	ldd	r19, Y+2	; 0x02
    1e1a:	4b 81       	ldd	r20, Y+3	; 0x03
    1e1c:	5c 81       	ldd	r21, Y+4	; 0x04
    1e1e:	28 0f       	add	r18, r24
    1e20:	39 1f       	adc	r19, r25
    1e22:	4a 1f       	adc	r20, r26
    1e24:	5b 1f       	adc	r21, r27
    1e26:	ca 01       	movw	r24, r20
    1e28:	b9 01       	movw	r22, r18
    1e2a:	9f 01       	movw	r18, r30
    1e2c:	ff 0f       	add	r31, r31
    1e2e:	44 0b       	sbc	r20, r20
    1e30:	55 0b       	sbc	r21, r21
    1e32:	0e 94 43 19 	call	0x3286	; 0x3286 <__divmodsi4>
    1e36:	a9 85       	ldd	r26, Y+9	; 0x09
    1e38:	ba 85       	ldd	r27, Y+10	; 0x0a
    1e3a:	5f 96       	adiw	r26, 0x1f	; 31
    1e3c:	2d 93       	st	X+, r18
    1e3e:	3d 93       	st	X+, r19
    1e40:	4d 93       	st	X+, r20
    1e42:	5c 93       	st	X, r21
    1e44:	92 97       	sbiw	r26, 0x22	; 34
		actualValues->status &= ~(1<<3);
    1e46:	f8 01       	movw	r30, r16
    1e48:	80 81       	ld	r24, Z
    1e4a:	87 7f       	andi	r24, 0xF7	; 247
    1e4c:	80 83       	st	Z, r24
    1e4e:	04 c0       	rjmp	.+8      	; 0x1e58 <getValues+0x8ea>
	}
	else
	{
		actualValues->status |= (1<<3);
    1e50:	d8 01       	movw	r26, r16
    1e52:	8c 91       	ld	r24, X
    1e54:	88 60       	ori	r24, 0x08	; 8
    1e56:	8c 93       	st	X, r24
	}
	
	if (actualValues->boschTemp != -9999)
    1e58:	e9 85       	ldd	r30, Y+9	; 0x09
    1e5a:	fa 85       	ldd	r31, Y+10	; 0x0a
    1e5c:	84 85       	ldd	r24, Z+12	; 0x0c
    1e5e:	95 85       	ldd	r25, Z+13	; 0x0d
    1e60:	81 3f       	cpi	r24, 0xF1	; 241
    1e62:	98 4d       	sbci	r25, 0xD8	; 216
    1e64:	09 f4       	brne	.+2      	; 0x1e68 <getValues+0x8fa>
    1e66:	56 c0       	rjmp	.+172    	; 0x1f14 <getValues+0x9a6>
	{
		actualValues->BboschTempCounter++;
    1e68:	e9 85       	ldd	r30, Y+9	; 0x09
    1e6a:	fa 85       	ldd	r31, Y+10	; 0x0a
    1e6c:	e1 5a       	subi	r30, 0xA1	; 161
    1e6e:	ff 4f       	sbci	r31, 0xFF	; 255
    1e70:	80 81       	ld	r24, Z
    1e72:	91 81       	ldd	r25, Z+1	; 0x01
    1e74:	01 96       	adiw	r24, 0x01	; 1
    1e76:	91 83       	std	Z+1, r25	; 0x01
    1e78:	80 83       	st	Z, r24
		actualValues->BboschTemp+=actualValues->boschTemp;
    1e7a:	a9 85       	ldd	r26, Y+9	; 0x09
    1e7c:	ba 85       	ldd	r27, Y+10	; 0x0a
    1e7e:	1c 96       	adiw	r26, 0x0c	; 12
    1e80:	8d 91       	ld	r24, X+
    1e82:	9c 91       	ld	r25, X
    1e84:	1d 97       	sbiw	r26, 0x0d	; 13
    1e86:	9d 01       	movw	r18, r26
    1e88:	2f 5b       	subi	r18, 0xBF	; 191
    1e8a:	3f 4f       	sbci	r19, 0xFF	; 255
    1e8c:	d9 01       	movw	r26, r18
    1e8e:	4d 91       	ld	r20, X+
    1e90:	5d 91       	ld	r21, X+
    1e92:	6d 91       	ld	r22, X+
    1e94:	7c 91       	ld	r23, X
    1e96:	09 2e       	mov	r0, r25
    1e98:	00 0c       	add	r0, r0
    1e9a:	aa 0b       	sbc	r26, r26
    1e9c:	bb 0b       	sbc	r27, r27
    1e9e:	48 0f       	add	r20, r24
    1ea0:	59 1f       	adc	r21, r25
    1ea2:	6a 1f       	adc	r22, r26
    1ea4:	7b 1f       	adc	r23, r27
    1ea6:	d9 01       	movw	r26, r18
    1ea8:	4d 93       	st	X+, r20
    1eaa:	5d 93       	st	X+, r21
    1eac:	6d 93       	st	X+, r22
    1eae:	7c 93       	st	X, r23
    1eb0:	13 97       	sbiw	r26, 0x03	; 3
		actualValues->MboschTemp=(actualValues->BboschTemp+(actualValues->BboschTempCounter/2) ) / actualValues->BboschTempCounter;
    1eb2:	8d 91       	ld	r24, X+
    1eb4:	9d 91       	ld	r25, X+
    1eb6:	0d 90       	ld	r0, X+
    1eb8:	bc 91       	ld	r27, X
    1eba:	a0 2d       	mov	r26, r0
    1ebc:	89 83       	std	Y+1, r24	; 0x01
    1ebe:	9a 83       	std	Y+2, r25	; 0x02
    1ec0:	ab 83       	std	Y+3, r26	; 0x03
    1ec2:	bc 83       	std	Y+4, r27	; 0x04
    1ec4:	80 81       	ld	r24, Z
    1ec6:	91 81       	ldd	r25, Z+1	; 0x01
    1ec8:	01 90       	ld	r0, Z+
    1eca:	f0 81       	ld	r31, Z
    1ecc:	e0 2d       	mov	r30, r0
    1ece:	97 fd       	sbrc	r25, 7
    1ed0:	01 96       	adiw	r24, 0x01	; 1
    1ed2:	95 95       	asr	r25
    1ed4:	87 95       	ror	r24
    1ed6:	09 2e       	mov	r0, r25
    1ed8:	00 0c       	add	r0, r0
    1eda:	aa 0b       	sbc	r26, r26
    1edc:	bb 0b       	sbc	r27, r27
    1ede:	29 81       	ldd	r18, Y+1	; 0x01
    1ee0:	3a 81       	ldd	r19, Y+2	; 0x02
    1ee2:	4b 81       	ldd	r20, Y+3	; 0x03
    1ee4:	5c 81       	ldd	r21, Y+4	; 0x04
    1ee6:	28 0f       	add	r18, r24
    1ee8:	39 1f       	adc	r19, r25
    1eea:	4a 1f       	adc	r20, r26
    1eec:	5b 1f       	adc	r21, r27
    1eee:	ca 01       	movw	r24, r20
    1ef0:	b9 01       	movw	r22, r18
    1ef2:	9f 01       	movw	r18, r30
    1ef4:	ff 0f       	add	r31, r31
    1ef6:	44 0b       	sbc	r20, r20
    1ef8:	55 0b       	sbc	r21, r21
    1efa:	0e 94 43 19 	call	0x3286	; 0x3286 <__divmodsi4>
    1efe:	a9 85       	ldd	r26, Y+9	; 0x09
    1f00:	ba 85       	ldd	r27, Y+10	; 0x0a
    1f02:	94 96       	adiw	r26, 0x24	; 36
    1f04:	3c 93       	st	X, r19
    1f06:	2e 93       	st	-X, r18
    1f08:	93 97       	sbiw	r26, 0x23	; 35
		actualValues->status &= ~(1<<4);
    1f0a:	f8 01       	movw	r30, r16
    1f0c:	80 81       	ld	r24, Z
    1f0e:	8f 7e       	andi	r24, 0xEF	; 239
    1f10:	80 83       	st	Z, r24
    1f12:	04 c0       	rjmp	.+8      	; 0x1f1c <getValues+0x9ae>
	}
	else
	{
		actualValues->status |= (1<<4);
    1f14:	d8 01       	movw	r26, r16
    1f16:	8c 91       	ld	r24, X
    1f18:	80 61       	ori	r24, 0x10	; 16
    1f1a:	8c 93       	st	X, r24
	}
	
	if (actualValues->RHO != -9999)
    1f1c:	e9 85       	ldd	r30, Y+9	; 0x09
    1f1e:	fa 85       	ldd	r31, Y+10	; 0x0a
    1f20:	87 85       	ldd	r24, Z+15	; 0x0f
    1f22:	90 89       	ldd	r25, Z+16	; 0x10
    1f24:	81 3f       	cpi	r24, 0xF1	; 241
    1f26:	98 4d       	sbci	r25, 0xD8	; 216
    1f28:	09 f4       	brne	.+2      	; 0x1f2c <getValues+0x9be>
    1f2a:	49 c0       	rjmp	.+146    	; 0x1fbe <getValues+0xa50>
	{
		actualValues->BRHOCounter++;
    1f2c:	e9 85       	ldd	r30, Y+9	; 0x09
    1f2e:	fa 85       	ldd	r31, Y+10	; 0x0a
    1f30:	ef 59       	subi	r30, 0x9F	; 159
    1f32:	ff 4f       	sbci	r31, 0xFF	; 255
    1f34:	80 81       	ld	r24, Z
    1f36:	91 81       	ldd	r25, Z+1	; 0x01
    1f38:	01 96       	adiw	r24, 0x01	; 1
    1f3a:	91 83       	std	Z+1, r25	; 0x01
    1f3c:	80 83       	st	Z, r24
		actualValues->BRHO+=actualValues->RHO;
    1f3e:	a9 85       	ldd	r26, Y+9	; 0x09
    1f40:	ba 85       	ldd	r27, Y+10	; 0x0a
    1f42:	1f 96       	adiw	r26, 0x0f	; 15
    1f44:	8d 91       	ld	r24, X+
    1f46:	9c 91       	ld	r25, X
    1f48:	50 97       	sbiw	r26, 0x10	; 16
    1f4a:	d4 01       	movw	r26, r8
    1f4c:	4d 91       	ld	r20, X+
    1f4e:	5d 91       	ld	r21, X+
    1f50:	6d 91       	ld	r22, X+
    1f52:	7c 91       	ld	r23, X
    1f54:	09 2e       	mov	r0, r25
    1f56:	00 0c       	add	r0, r0
    1f58:	aa 0b       	sbc	r26, r26
    1f5a:	bb 0b       	sbc	r27, r27
    1f5c:	48 0f       	add	r20, r24
    1f5e:	59 1f       	adc	r21, r25
    1f60:	6a 1f       	adc	r22, r26
    1f62:	7b 1f       	adc	r23, r27
    1f64:	d4 01       	movw	r26, r8
    1f66:	4d 93       	st	X+, r20
    1f68:	5d 93       	st	X+, r21
    1f6a:	6d 93       	st	X+, r22
    1f6c:	7c 93       	st	X, r23
    1f6e:	13 97       	sbiw	r26, 0x03	; 3
		actualValues->MRHO=(actualValues->BRHO+(actualValues->BRHOCounter/2) ) / actualValues->BRHOCounter;
    1f70:	4d 91       	ld	r20, X+
    1f72:	5d 91       	ld	r21, X+
    1f74:	6d 91       	ld	r22, X+
    1f76:	7c 91       	ld	r23, X
    1f78:	20 81       	ld	r18, Z
    1f7a:	31 81       	ldd	r19, Z+1	; 0x01
    1f7c:	01 90       	ld	r0, Z+
    1f7e:	f0 81       	ld	r31, Z
    1f80:	e0 2d       	mov	r30, r0
    1f82:	c9 01       	movw	r24, r18
    1f84:	37 fd       	sbrc	r19, 7
    1f86:	01 96       	adiw	r24, 0x01	; 1
    1f88:	95 95       	asr	r25
    1f8a:	87 95       	ror	r24
    1f8c:	09 2e       	mov	r0, r25
    1f8e:	00 0c       	add	r0, r0
    1f90:	aa 0b       	sbc	r26, r26
    1f92:	bb 0b       	sbc	r27, r27
    1f94:	8c 01       	movw	r16, r24
    1f96:	9d 01       	movw	r18, r26
    1f98:	04 0f       	add	r16, r20
    1f9a:	15 1f       	adc	r17, r21
    1f9c:	26 1f       	adc	r18, r22
    1f9e:	37 1f       	adc	r19, r23
    1fa0:	c9 01       	movw	r24, r18
    1fa2:	b8 01       	movw	r22, r16
    1fa4:	9f 01       	movw	r18, r30
    1fa6:	ff 0f       	add	r31, r31
    1fa8:	44 0b       	sbc	r20, r20
    1faa:	55 0b       	sbc	r21, r21
    1fac:	0e 94 43 19 	call	0x3286	; 0x3286 <__divmodsi4>
    1fb0:	a9 85       	ldd	r26, Y+9	; 0x09
    1fb2:	ba 85       	ldd	r27, Y+10	; 0x0a
    1fb4:	96 96       	adiw	r26, 0x26	; 38
    1fb6:	3c 93       	st	X, r19
    1fb8:	2e 93       	st	-X, r18
    1fba:	95 97       	sbiw	r26, 0x25	; 37
    1fbc:	16 c0       	rjmp	.+44     	; 0x1fea <getValues+0xa7c>
	}
	else
	{
		actualValues->BRHO+=actualValues->MRHO;
    1fbe:	e9 85       	ldd	r30, Y+9	; 0x09
    1fc0:	fa 85       	ldd	r31, Y+10	; 0x0a
    1fc2:	85 a1       	ldd	r24, Z+37	; 0x25
    1fc4:	96 a1       	ldd	r25, Z+38	; 0x26
    1fc6:	d4 01       	movw	r26, r8
    1fc8:	4d 91       	ld	r20, X+
    1fca:	5d 91       	ld	r21, X+
    1fcc:	6d 91       	ld	r22, X+
    1fce:	7c 91       	ld	r23, X
    1fd0:	09 2e       	mov	r0, r25
    1fd2:	00 0c       	add	r0, r0
    1fd4:	aa 0b       	sbc	r26, r26
    1fd6:	bb 0b       	sbc	r27, r27
    1fd8:	84 0f       	add	r24, r20
    1fda:	95 1f       	adc	r25, r21
    1fdc:	a6 1f       	adc	r26, r22
    1fde:	b7 1f       	adc	r27, r23
    1fe0:	f4 01       	movw	r30, r8
    1fe2:	80 83       	st	Z, r24
    1fe4:	91 83       	std	Z+1, r25	; 0x01
    1fe6:	a2 83       	std	Z+2, r26	; 0x02
    1fe8:	b3 83       	std	Z+3, r27	; 0x03
	}
	

	if (actualValues->S != -9999)
    1fea:	a9 85       	ldd	r26, Y+9	; 0x09
    1fec:	ba 85       	ldd	r27, Y+10	; 0x0a
    1fee:	51 96       	adiw	r26, 0x11	; 17
    1ff0:	8d 91       	ld	r24, X+
    1ff2:	9c 91       	ld	r25, X
    1ff4:	52 97       	sbiw	r26, 0x12	; 18
    1ff6:	81 3f       	cpi	r24, 0xF1	; 241
    1ff8:	98 4d       	sbci	r25, 0xD8	; 216
    1ffa:	09 f4       	brne	.+2      	; 0x1ffe <getValues+0xa90>
    1ffc:	44 c0       	rjmp	.+136    	; 0x2086 <getValues+0xb18>
	{
		actualValues->BSCounter++;
    1ffe:	e9 85       	ldd	r30, Y+9	; 0x09
    2000:	fa 85       	ldd	r31, Y+10	; 0x0a
    2002:	ed 59       	subi	r30, 0x9D	; 157
    2004:	ff 4f       	sbci	r31, 0xFF	; 255
    2006:	80 81       	ld	r24, Z
    2008:	91 81       	ldd	r25, Z+1	; 0x01
    200a:	01 96       	adiw	r24, 0x01	; 1
    200c:	91 83       	std	Z+1, r25	; 0x01
    200e:	80 83       	st	Z, r24
		actualValues->BS+=actualValues->S;
    2010:	a9 85       	ldd	r26, Y+9	; 0x09
    2012:	ba 85       	ldd	r27, Y+10	; 0x0a
    2014:	51 96       	adiw	r26, 0x11	; 17
    2016:	2d 91       	ld	r18, X+
    2018:	3c 91       	ld	r19, X
    201a:	52 97       	sbiw	r26, 0x12	; 18
    201c:	d5 01       	movw	r26, r10
    201e:	4d 91       	ld	r20, X+
    2020:	5d 91       	ld	r21, X+
    2022:	6d 91       	ld	r22, X+
    2024:	7c 91       	ld	r23, X
    2026:	c9 01       	movw	r24, r18
    2028:	33 0f       	add	r19, r19
    202a:	aa 0b       	sbc	r26, r26
    202c:	bb 0b       	sbc	r27, r27
    202e:	48 0f       	add	r20, r24
    2030:	59 1f       	adc	r21, r25
    2032:	6a 1f       	adc	r22, r26
    2034:	7b 1f       	adc	r23, r27
    2036:	d5 01       	movw	r26, r10
    2038:	4d 93       	st	X+, r20
    203a:	5d 93       	st	X+, r21
    203c:	6d 93       	st	X+, r22
    203e:	7c 93       	st	X, r23
    2040:	13 97       	sbiw	r26, 0x03	; 3
		actualValues->MS=(actualValues->BS+(actualValues->BSCounter/2) ) / actualValues->BSCounter;
    2042:	8d 90       	ld	r8, X+
    2044:	9d 90       	ld	r9, X+
    2046:	ad 90       	ld	r10, X+
    2048:	bc 90       	ld	r11, X
    204a:	40 81       	ld	r20, Z
    204c:	51 81       	ldd	r21, Z+1	; 0x01
    204e:	20 81       	ld	r18, Z
    2050:	31 81       	ldd	r19, Z+1	; 0x01
    2052:	ca 01       	movw	r24, r20
    2054:	57 fd       	sbrc	r21, 7
    2056:	01 96       	adiw	r24, 0x01	; 1
    2058:	95 95       	asr	r25
    205a:	87 95       	ror	r24
    205c:	09 2e       	mov	r0, r25
    205e:	00 0c       	add	r0, r0
    2060:	aa 0b       	sbc	r26, r26
    2062:	bb 0b       	sbc	r27, r27
    2064:	bc 01       	movw	r22, r24
    2066:	cd 01       	movw	r24, r26
    2068:	68 0d       	add	r22, r8
    206a:	79 1d       	adc	r23, r9
    206c:	8a 1d       	adc	r24, r10
    206e:	9b 1d       	adc	r25, r11
    2070:	03 2e       	mov	r0, r19
    2072:	00 0c       	add	r0, r0
    2074:	44 0b       	sbc	r20, r20
    2076:	55 0b       	sbc	r21, r21
    2078:	0e 94 43 19 	call	0x3286	; 0x3286 <__divmodsi4>
    207c:	e9 85       	ldd	r30, Y+9	; 0x09
    207e:	fa 85       	ldd	r31, Y+10	; 0x0a
    2080:	30 a7       	std	Z+40, r19	; 0x28
    2082:	27 a3       	std	Z+39, r18	; 0x27
    2084:	17 c0       	rjmp	.+46     	; 0x20b4 <getValues+0xb46>
	}
	else
	{
		actualValues->BS+=actualValues->MS;
    2086:	a9 85       	ldd	r26, Y+9	; 0x09
    2088:	ba 85       	ldd	r27, Y+10	; 0x0a
    208a:	97 96       	adiw	r26, 0x27	; 39
    208c:	8d 91       	ld	r24, X+
    208e:	9c 91       	ld	r25, X
    2090:	98 97       	sbiw	r26, 0x28	; 40
    2092:	f5 01       	movw	r30, r10
    2094:	40 81       	ld	r20, Z
    2096:	51 81       	ldd	r21, Z+1	; 0x01
    2098:	62 81       	ldd	r22, Z+2	; 0x02
    209a:	73 81       	ldd	r23, Z+3	; 0x03
    209c:	09 2e       	mov	r0, r25
    209e:	00 0c       	add	r0, r0
    20a0:	aa 0b       	sbc	r26, r26
    20a2:	bb 0b       	sbc	r27, r27
    20a4:	84 0f       	add	r24, r20
    20a6:	95 1f       	adc	r25, r21
    20a8:	a6 1f       	adc	r26, r22
    20aa:	b7 1f       	adc	r27, r23
    20ac:	80 83       	st	Z, r24
    20ae:	91 83       	std	Z+1, r25	; 0x01
    20b0:	a2 83       	std	Z+2, r26	; 0x02
    20b2:	b3 83       	std	Z+3, r27	; 0x03
	}
	
	if (actualValues->AF != -9999)
    20b4:	a9 85       	ldd	r26, Y+9	; 0x09
    20b6:	ba 85       	ldd	r27, Y+10	; 0x0a
    20b8:	53 96       	adiw	r26, 0x13	; 19
    20ba:	8d 91       	ld	r24, X+
    20bc:	9c 91       	ld	r25, X
    20be:	54 97       	sbiw	r26, 0x14	; 20
    20c0:	81 3f       	cpi	r24, 0xF1	; 241
    20c2:	98 4d       	sbci	r25, 0xD8	; 216
    20c4:	09 f4       	brne	.+2      	; 0x20c8 <getValues+0xb5a>
    20c6:	46 c0       	rjmp	.+140    	; 0x2154 <getValues+0xbe6>
	{
		actualValues->BAFCounter++;
    20c8:	e9 85       	ldd	r30, Y+9	; 0x09
    20ca:	fa 85       	ldd	r31, Y+10	; 0x0a
    20cc:	eb 59       	subi	r30, 0x9B	; 155
    20ce:	ff 4f       	sbci	r31, 0xFF	; 255
    20d0:	80 81       	ld	r24, Z
    20d2:	91 81       	ldd	r25, Z+1	; 0x01
    20d4:	01 96       	adiw	r24, 0x01	; 1
    20d6:	91 83       	std	Z+1, r25	; 0x01
    20d8:	80 83       	st	Z, r24
		actualValues->BAF+=actualValues->AF;
    20da:	a9 85       	ldd	r26, Y+9	; 0x09
    20dc:	ba 85       	ldd	r27, Y+10	; 0x0a
    20de:	53 96       	adiw	r26, 0x13	; 19
    20e0:	2d 91       	ld	r18, X+
    20e2:	3c 91       	ld	r19, X
    20e4:	54 97       	sbiw	r26, 0x14	; 20
    20e6:	d6 01       	movw	r26, r12
    20e8:	4d 91       	ld	r20, X+
    20ea:	5d 91       	ld	r21, X+
    20ec:	6d 91       	ld	r22, X+
    20ee:	7c 91       	ld	r23, X
    20f0:	c9 01       	movw	r24, r18
    20f2:	33 0f       	add	r19, r19
    20f4:	aa 0b       	sbc	r26, r26
    20f6:	bb 0b       	sbc	r27, r27
    20f8:	48 0f       	add	r20, r24
    20fa:	59 1f       	adc	r21, r25
    20fc:	6a 1f       	adc	r22, r26
    20fe:	7b 1f       	adc	r23, r27
    2100:	d6 01       	movw	r26, r12
    2102:	4d 93       	st	X+, r20
    2104:	5d 93       	st	X+, r21
    2106:	6d 93       	st	X+, r22
    2108:	7c 93       	st	X, r23
    210a:	13 97       	sbiw	r26, 0x03	; 3
		actualValues->MAF=(actualValues->BAF+(actualValues->BAFCounter/2) ) / actualValues->BAFCounter;
    210c:	8d 90       	ld	r8, X+
    210e:	9d 90       	ld	r9, X+
    2110:	ad 90       	ld	r10, X+
    2112:	bc 90       	ld	r11, X
    2114:	40 81       	ld	r20, Z
    2116:	51 81       	ldd	r21, Z+1	; 0x01
    2118:	20 81       	ld	r18, Z
    211a:	31 81       	ldd	r19, Z+1	; 0x01
    211c:	57 ff       	sbrs	r21, 7
    211e:	02 c0       	rjmp	.+4      	; 0x2124 <getValues+0xbb6>
    2120:	4f 5f       	subi	r20, 0xFF	; 255
    2122:	5f 4f       	sbci	r21, 0xFF	; 255
    2124:	ca 01       	movw	r24, r20
    2126:	95 95       	asr	r25
    2128:	87 95       	ror	r24
    212a:	09 2e       	mov	r0, r25
    212c:	00 0c       	add	r0, r0
    212e:	aa 0b       	sbc	r26, r26
    2130:	bb 0b       	sbc	r27, r27
    2132:	bc 01       	movw	r22, r24
    2134:	cd 01       	movw	r24, r26
    2136:	68 0d       	add	r22, r8
    2138:	79 1d       	adc	r23, r9
    213a:	8a 1d       	adc	r24, r10
    213c:	9b 1d       	adc	r25, r11
    213e:	03 2e       	mov	r0, r19
    2140:	00 0c       	add	r0, r0
    2142:	44 0b       	sbc	r20, r20
    2144:	55 0b       	sbc	r21, r21
    2146:	0e 94 43 19 	call	0x3286	; 0x3286 <__divmodsi4>
    214a:	e9 85       	ldd	r30, Y+9	; 0x09
    214c:	fa 85       	ldd	r31, Y+10	; 0x0a
    214e:	32 a7       	std	Z+42, r19	; 0x2a
    2150:	21 a7       	std	Z+41, r18	; 0x29
    2152:	17 c0       	rjmp	.+46     	; 0x2182 <getValues+0xc14>
	}
	else
	{
		actualValues->BAF+=actualValues->MAF;
    2154:	a9 85       	ldd	r26, Y+9	; 0x09
    2156:	ba 85       	ldd	r27, Y+10	; 0x0a
    2158:	99 96       	adiw	r26, 0x29	; 41
    215a:	8d 91       	ld	r24, X+
    215c:	9c 91       	ld	r25, X
    215e:	9a 97       	sbiw	r26, 0x2a	; 42
    2160:	f6 01       	movw	r30, r12
    2162:	40 81       	ld	r20, Z
    2164:	51 81       	ldd	r21, Z+1	; 0x01
    2166:	62 81       	ldd	r22, Z+2	; 0x02
    2168:	73 81       	ldd	r23, Z+3	; 0x03
    216a:	09 2e       	mov	r0, r25
    216c:	00 0c       	add	r0, r0
    216e:	aa 0b       	sbc	r26, r26
    2170:	bb 0b       	sbc	r27, r27
    2172:	84 0f       	add	r24, r20
    2174:	95 1f       	adc	r25, r21
    2176:	a6 1f       	adc	r26, r22
    2178:	b7 1f       	adc	r27, r23
    217a:	80 83       	st	Z, r24
    217c:	91 83       	std	Z+1, r25	; 0x01
    217e:	a2 83       	std	Z+2, r26	; 0x02
    2180:	b3 83       	std	Z+3, r27	; 0x03
	}
	

	if (actualValues->VPD != -9999)
    2182:	a9 85       	ldd	r26, Y+9	; 0x09
    2184:	ba 85       	ldd	r27, Y+10	; 0x0a
    2186:	55 96       	adiw	r26, 0x15	; 21
    2188:	8d 91       	ld	r24, X+
    218a:	9c 91       	ld	r25, X
    218c:	56 97       	sbiw	r26, 0x16	; 22
    218e:	81 3f       	cpi	r24, 0xF1	; 241
    2190:	98 4d       	sbci	r25, 0xD8	; 216
    2192:	09 f4       	brne	.+2      	; 0x2196 <getValues+0xc28>
    2194:	46 c0       	rjmp	.+140    	; 0x2222 <getValues+0xcb4>
	{
		actualValues->BVPDCounter++;
    2196:	e9 85       	ldd	r30, Y+9	; 0x09
    2198:	fa 85       	ldd	r31, Y+10	; 0x0a
    219a:	e9 59       	subi	r30, 0x99	; 153
    219c:	ff 4f       	sbci	r31, 0xFF	; 255
    219e:	80 81       	ld	r24, Z
    21a0:	91 81       	ldd	r25, Z+1	; 0x01
    21a2:	01 96       	adiw	r24, 0x01	; 1
    21a4:	91 83       	std	Z+1, r25	; 0x01
    21a6:	80 83       	st	Z, r24
		actualValues->BVPD+=actualValues->VPD;
    21a8:	a9 85       	ldd	r26, Y+9	; 0x09
    21aa:	ba 85       	ldd	r27, Y+10	; 0x0a
    21ac:	55 96       	adiw	r26, 0x15	; 21
    21ae:	8d 91       	ld	r24, X+
    21b0:	9c 91       	ld	r25, X
    21b2:	56 97       	sbiw	r26, 0x16	; 22
    21b4:	d7 01       	movw	r26, r14
    21b6:	4d 91       	ld	r20, X+
    21b8:	5d 91       	ld	r21, X+
    21ba:	6d 91       	ld	r22, X+
    21bc:	7c 91       	ld	r23, X
    21be:	09 2e       	mov	r0, r25
    21c0:	00 0c       	add	r0, r0
    21c2:	aa 0b       	sbc	r26, r26
    21c4:	bb 0b       	sbc	r27, r27
    21c6:	48 0f       	add	r20, r24
    21c8:	59 1f       	adc	r21, r25
    21ca:	6a 1f       	adc	r22, r26
    21cc:	7b 1f       	adc	r23, r27
    21ce:	d7 01       	movw	r26, r14
    21d0:	4d 93       	st	X+, r20
    21d2:	5d 93       	st	X+, r21
    21d4:	6d 93       	st	X+, r22
    21d6:	7c 93       	st	X, r23
    21d8:	13 97       	sbiw	r26, 0x03	; 3
		actualValues->MVPD=(actualValues->BVPD+(actualValues->BVPDCounter/2) ) / actualValues->BVPDCounter;
    21da:	cd 90       	ld	r12, X+
    21dc:	dd 90       	ld	r13, X+
    21de:	ed 90       	ld	r14, X+
    21e0:	fc 90       	ld	r15, X
    21e2:	40 81       	ld	r20, Z
    21e4:	51 81       	ldd	r21, Z+1	; 0x01
    21e6:	20 81       	ld	r18, Z
    21e8:	31 81       	ldd	r19, Z+1	; 0x01
    21ea:	57 ff       	sbrs	r21, 7
    21ec:	02 c0       	rjmp	.+4      	; 0x21f2 <getValues+0xc84>
    21ee:	4f 5f       	subi	r20, 0xFF	; 255
    21f0:	5f 4f       	sbci	r21, 0xFF	; 255
    21f2:	ca 01       	movw	r24, r20
    21f4:	95 95       	asr	r25
    21f6:	87 95       	ror	r24
    21f8:	09 2e       	mov	r0, r25
    21fa:	00 0c       	add	r0, r0
    21fc:	aa 0b       	sbc	r26, r26
    21fe:	bb 0b       	sbc	r27, r27
    2200:	bc 01       	movw	r22, r24
    2202:	cd 01       	movw	r24, r26
    2204:	6c 0d       	add	r22, r12
    2206:	7d 1d       	adc	r23, r13
    2208:	8e 1d       	adc	r24, r14
    220a:	9f 1d       	adc	r25, r15
    220c:	03 2e       	mov	r0, r19
    220e:	00 0c       	add	r0, r0
    2210:	44 0b       	sbc	r20, r20
    2212:	55 0b       	sbc	r21, r21
    2214:	0e 94 43 19 	call	0x3286	; 0x3286 <__divmodsi4>
    2218:	e9 85       	ldd	r30, Y+9	; 0x09
    221a:	fa 85       	ldd	r31, Y+10	; 0x0a
    221c:	34 a7       	std	Z+44, r19	; 0x2c
    221e:	23 a7       	std	Z+43, r18	; 0x2b
    2220:	17 c0       	rjmp	.+46     	; 0x2250 <getValues+0xce2>
	}
	else
	{
		actualValues->BVPD+=actualValues->MVPD;
    2222:	a9 85       	ldd	r26, Y+9	; 0x09
    2224:	ba 85       	ldd	r27, Y+10	; 0x0a
    2226:	9b 96       	adiw	r26, 0x2b	; 43
    2228:	8d 91       	ld	r24, X+
    222a:	9c 91       	ld	r25, X
    222c:	9c 97       	sbiw	r26, 0x2c	; 44
    222e:	f7 01       	movw	r30, r14
    2230:	40 81       	ld	r20, Z
    2232:	51 81       	ldd	r21, Z+1	; 0x01
    2234:	62 81       	ldd	r22, Z+2	; 0x02
    2236:	73 81       	ldd	r23, Z+3	; 0x03
    2238:	09 2e       	mov	r0, r25
    223a:	00 0c       	add	r0, r0
    223c:	aa 0b       	sbc	r26, r26
    223e:	bb 0b       	sbc	r27, r27
    2240:	84 0f       	add	r24, r20
    2242:	95 1f       	adc	r25, r21
    2244:	a6 1f       	adc	r26, r22
    2246:	b7 1f       	adc	r27, r23
    2248:	80 83       	st	Z, r24
    224a:	91 83       	std	Z+1, r25	; 0x01
    224c:	a2 83       	std	Z+2, r26	; 0x02
    224e:	b3 83       	std	Z+3, r27	; 0x03
	}
	


	if (actualValues->BufferCounter>=intervall)
    2250:	d3 01       	movw	r26, r6
    2252:	8d 91       	ld	r24, X+
    2254:	9c 91       	ld	r25, X
    2256:	a0 e0       	ldi	r26, 0x00	; 0
    2258:	b0 e0       	ldi	r27, 0x00	; 0
    225a:	82 15       	cp	r24, r2
    225c:	93 05       	cpc	r25, r3
    225e:	a4 05       	cpc	r26, r4
    2260:	b5 05       	cpc	r27, r5
    2262:	d0 f0       	brcs	.+52     	; 0x2298 <getValues+0xd2a>
	{
		sendMeanValuesViaCan(*actualValues);
    2264:	ed b7       	in	r30, 0x3d	; 61
    2266:	fe b7       	in	r31, 0x3e	; 62
    2268:	ec 56       	subi	r30, 0x6C	; 108
    226a:	f1 09       	sbc	r31, r1
    226c:	0f b6       	in	r0, 0x3f	; 63
    226e:	f8 94       	cli
    2270:	fe bf       	out	0x3e, r31	; 62
    2272:	0f be       	out	0x3f, r0	; 63
    2274:	ed bf       	out	0x3d, r30	; 61
    2276:	ad b7       	in	r26, 0x3d	; 61
    2278:	be b7       	in	r27, 0x3e	; 62
    227a:	11 96       	adiw	r26, 0x01	; 1
    227c:	8c e6       	ldi	r24, 0x6C	; 108
    227e:	e9 85       	ldd	r30, Y+9	; 0x09
    2280:	fa 85       	ldd	r31, Y+10	; 0x0a
    2282:	01 90       	ld	r0, Z+
    2284:	0d 92       	st	X+, r0
    2286:	8a 95       	dec	r24
    2288:	e1 f7       	brne	.-8      	; 0x2282 <getValues+0xd14>
    228a:	0e 94 99 08 	call	0x1132	; 0x1132 <sendMeanValuesViaCan>
    228e:	0f b6       	in	r0, 0x3f	; 63
    2290:	f8 94       	cli
    2292:	de bf       	out	0x3e, r29	; 62
    2294:	0f be       	out	0x3f, r0	; 63
    2296:	cd bf       	out	0x3d, r28	; 61
	}

	return 1;
}
    2298:	81 e0       	ldi	r24, 0x01	; 1
    229a:	2a 96       	adiw	r28, 0x0a	; 10
    229c:	0f b6       	in	r0, 0x3f	; 63
    229e:	f8 94       	cli
    22a0:	de bf       	out	0x3e, r29	; 62
    22a2:	0f be       	out	0x3f, r0	; 63
    22a4:	cd bf       	out	0x3d, r28	; 61
    22a6:	df 91       	pop	r29
    22a8:	cf 91       	pop	r28
    22aa:	1f 91       	pop	r17
    22ac:	0f 91       	pop	r16
    22ae:	ff 90       	pop	r15
    22b0:	ef 90       	pop	r14
    22b2:	df 90       	pop	r13
    22b4:	cf 90       	pop	r12
    22b6:	bf 90       	pop	r11
    22b8:	af 90       	pop	r10
    22ba:	9f 90       	pop	r9
    22bc:	8f 90       	pop	r8
    22be:	7f 90       	pop	r7
    22c0:	6f 90       	pop	r6
    22c2:	5f 90       	pop	r5
    22c4:	4f 90       	pop	r4
    22c6:	3f 90       	pop	r3
    22c8:	2f 90       	pop	r2
    22ca:	08 95       	ret

000022cc <receive_command>:


void receive_command()
{
    22cc:	1f 93       	push	r17
    22ce:	cf 93       	push	r28
    22d0:	df 93       	push	r29
    22d2:	cd b7       	in	r28, 0x3d	; 61
    22d4:	de b7       	in	r29, 0x3e	; 62
    22d6:	2b 97       	sbiw	r28, 0x0b	; 11
    22d8:	0f b6       	in	r0, 0x3f	; 63
    22da:	f8 94       	cli
    22dc:	de bf       	out	0x3e, r29	; 62
    22de:	0f be       	out	0x3f, r0	; 63
    22e0:	cd bf       	out	0x3d, r28	; 61

	unsigned char category = uart_struct.uart_buffer[0];
    22e2:	10 91 1c 02 	lds	r17, 0x021C	; 0x80021c <__data_end+0x2>
	unsigned char cValue[9];
	int32_t value=0;
	unsigned char i=0;
    22e6:	80 e0       	ldi	r24, 0x00	; 0

	while (uart_struct.uart_buffer[i]!='\0')
    22e8:	e8 2f       	mov	r30, r24
    22ea:	f0 e0       	ldi	r31, 0x00	; 0
    22ec:	e6 5e       	subi	r30, 0xE6	; 230
    22ee:	fd 4f       	sbci	r31, 0xFD	; 253
    22f0:	92 81       	ldd	r25, Z+2	; 0x02
    22f2:	99 23       	and	r25, r25
    22f4:	61 f0       	breq	.+24     	; 0x230e <receive_command+0x42>
	{
		i++;
    22f6:	8f 5f       	subi	r24, 0xFF	; 255
		cValue[i-1]=uart_struct.uart_buffer[i];
    22f8:	28 2f       	mov	r18, r24
    22fa:	30 e0       	ldi	r19, 0x00	; 0
    22fc:	f9 01       	movw	r30, r18
    22fe:	e6 5e       	subi	r30, 0xE6	; 230
    2300:	fd 4f       	sbci	r31, 0xFD	; 253
    2302:	92 81       	ldd	r25, Z+2	; 0x02
    2304:	fe 01       	movw	r30, r28
    2306:	e2 0f       	add	r30, r18
    2308:	f3 1f       	adc	r31, r19
    230a:	90 83       	st	Z, r25
    230c:	ed cf       	rjmp	.-38     	; 0x22e8 <receive_command+0x1c>
	}
	value=atol ( (char*)cValue);
    230e:	ce 01       	movw	r24, r28
    2310:	01 96       	adiw	r24, 0x01	; 1
    2312:	0e 94 84 19 	call	0x3308	; 0x3308 <atol>


	switch(category)
    2316:	14 35       	cpi	r17, 0x54	; 84
    2318:	c1 f0       	breq	.+48     	; 0x234a <receive_command+0x7e>
    231a:	15 36       	cpi	r17, 0x65	; 101
    231c:	29 f1       	breq	.+74     	; 0x2368 <receive_command+0x9c>
    231e:	11 34       	cpi	r17, 0x41	; 65
    2320:	61 f5       	brne	.+88     	; 0x237a <receive_command+0xae>
    2322:	10 e0       	ldi	r17, 0x00	; 0
	{
		case 'A':
		{
			for (uint8_t i=0; i<255; i++)
			{
				uart_put_c(i);
    2324:	81 2f       	mov	r24, r17
    2326:	0e 94 af 15 	call	0x2b5e	; 0x2b5e <uart_put_c>
				volatile uint8_t data[1];
				data[0]=i;
    232a:	1b 87       	std	Y+11, r17	; 0x0b
				i2c_comm(data,1,0,0);
    232c:	20 e0       	ldi	r18, 0x00	; 0
    232e:	40 e0       	ldi	r20, 0x00	; 0
    2330:	61 e0       	ldi	r22, 0x01	; 1
    2332:	ce 01       	movw	r24, r28
    2334:	0b 96       	adiw	r24, 0x0b	; 11
    2336:	0e 94 db 11 	call	0x23b6	; 0x23b6 <i2c_comm>
				simple_delay(5);
    233a:	85 e0       	ldi	r24, 0x05	; 5
    233c:	90 e0       	ldi	r25, 0x00	; 0
    233e:	0e 94 7e 15 	call	0x2afc	; 0x2afc <simple_delay>

	switch(category)
	{
		case 'A':
		{
			for (uint8_t i=0; i<255; i++)
    2342:	1f 5f       	subi	r17, 0xFF	; 255
    2344:	1f 3f       	cpi	r17, 0xFF	; 255
    2346:	71 f7       	brne	.-36     	; 0x2324 <receive_command+0x58>
    2348:	1c c0       	rjmp	.+56     	; 0x2382 <receive_command+0xb6>
		}
		break;
		
		case 'T':
		{
			if (value>=0 && value<=255)
    234a:	6f 3f       	cpi	r22, 0xFF	; 255
    234c:	71 05       	cpc	r23, r1
    234e:	81 05       	cpc	r24, r1
    2350:	91 05       	cpc	r25, r1
    2352:	09 f0       	breq	.+2      	; 0x2356 <receive_command+0x8a>
    2354:	b0 f4       	brcc	.+44     	; 0x2382 <receive_command+0xb6>
			{
				volatile uint8_t data[1];
				data[0]=value;//80;
    2356:	6a 87       	std	Y+10, r22	; 0x0a
				i2c_comm(data,1,0,0);
    2358:	20 e0       	ldi	r18, 0x00	; 0
    235a:	40 e0       	ldi	r20, 0x00	; 0
    235c:	61 e0       	ldi	r22, 0x01	; 1
    235e:	ce 01       	movw	r24, r28
    2360:	0a 96       	adiw	r24, 0x0a	; 10
    2362:	0e 94 db 11 	call	0x23b6	; 0x23b6 <i2c_comm>
    2366:	0d c0       	rjmp	.+26     	; 0x2382 <receive_command+0xb6>
		break;
		
		#ifdef Special_Functions
		case 'e':
		{
			if (value < 7)
    2368:	67 30       	cpi	r22, 0x07	; 7
    236a:	71 05       	cpc	r23, r1
    236c:	81 05       	cpc	r24, r1
    236e:	91 05       	cpc	r25, r1
    2370:	44 f4       	brge	.+16     	; 0x2382 <receive_command+0xb6>
			{
				k30_change_mCon(value);
    2372:	86 2f       	mov	r24, r22
    2374:	0e 94 ff 06 	call	0xdfe	; 0xdfe <k30_change_mCon>
    2378:	04 c0       	rjmp	.+8      	; 0x2382 <receive_command+0xb6>
		#ifdef can_debug
		#include "CANDEBUG.h"
		#endif
		
		default:
		uart_put_s("bullshit string");
    237a:	89 e0       	ldi	r24, 0x09	; 9
    237c:	92 e0       	ldi	r25, 0x02	; 2
    237e:	0e 94 b6 15 	call	0x2b6c	; 0x2b6c <uart_put_s>
	}
	uart_struct.uart_state=no_string;
    2382:	10 92 1a 02 	sts	0x021A, r1	; 0x80021a <__data_end>
    2386:	2b 96       	adiw	r28, 0x0b	; 11
    2388:	0f b6       	in	r0, 0x3f	; 63
    238a:	f8 94       	cli
    238c:	de bf       	out	0x3e, r29	; 62
    238e:	0f be       	out	0x3f, r0	; 63
    2390:	cd bf       	out	0x3d, r28	; 61
    2392:	df 91       	pop	r29
    2394:	cf 91       	pop	r28
    2396:	1f 91       	pop	r17
    2398:	08 95       	ret

0000239a <twi_init>:
//#define DEBUG_TWI  //EEPROM Functions won't work


int twi_init()
{
	TWSR &= ~(1<<TWPS1);
    239a:	e9 eb       	ldi	r30, 0xB9	; 185
    239c:	f0 e0       	ldi	r31, 0x00	; 0
    239e:	80 81       	ld	r24, Z
    23a0:	8d 7f       	andi	r24, 0xFD	; 253
    23a2:	80 83       	st	Z, r24
	TWSR |=  (1<<TWPS0);
    23a4:	80 81       	ld	r24, Z
    23a6:	81 60       	ori	r24, 0x01	; 1
    23a8:	80 83       	st	Z, r24

	TWBR = 1;
    23aa:	81 e0       	ldi	r24, 0x01	; 1
    23ac:	80 93 b8 00 	sts	0x00B8, r24	; 0x8000b8 <__DATA_REGION_ORIGIN__+0x58>
	return TWSR;
    23b0:	80 81       	ld	r24, Z
}
    23b2:	90 e0       	ldi	r25, 0x00	; 0
    23b4:	08 95       	ret

000023b6 <i2c_comm>:

uint8_t* i2c_comm (volatile uint8_t* buffer,volatile uint8_t write_length,volatile uint8_t read_length,uint8_t rs)
{
    23b6:	cf 93       	push	r28
    23b8:	df 93       	push	r29
    23ba:	00 d0       	rcall	.+0      	; 0x23bc <i2c_comm+0x6>
    23bc:	cd b7       	in	r28, 0x3d	; 61
    23be:	de b7       	in	r29, 0x3e	; 62
    23c0:	69 83       	std	Y+1, r22	; 0x01
    23c2:	4a 83       	std	Y+2, r20	; 0x02
	I2CBuffer.write_buffer=( uint8_t*)buffer;
    23c4:	90 93 28 02 	sts	0x0228, r25	; 0x800228 <I2CBuffer+0x1>
    23c8:	80 93 27 02 	sts	0x0227, r24	; 0x800227 <I2CBuffer>
	I2CBuffer.inpos=(uint8_t*)buffer;
    23cc:	90 93 40 02 	sts	0x0240, r25	; 0x800240 <I2CBuffer+0x19>
    23d0:	80 93 3f 02 	sts	0x023F, r24	; 0x80023f <I2CBuffer+0x18>

	I2CBuffer.rs=rs;
    23d4:	20 93 45 02 	sts	0x0245, r18	; 0x800245 <I2CBuffer+0x1e>
	I2CBuffer.position=0;
    23d8:	10 92 43 02 	sts	0x0243, r1	; 0x800243 <I2CBuffer+0x1c>
	I2CBuffer.succesBit=9;
    23dc:	89 e0       	ldi	r24, 0x09	; 9
    23de:	80 93 44 02 	sts	0x0244, r24	; 0x800244 <I2CBuffer+0x1d>

	I2CBuffer.read_length=(volatile uint8_t) read_length;
    23e2:	8a 81       	ldd	r24, Y+2	; 0x02
    23e4:	80 93 42 02 	sts	0x0242, r24	; 0x800242 <I2CBuffer+0x1b>
	I2CBuffer.write_length=(volatile uint8_t) write_length;
    23e8:	89 81       	ldd	r24, Y+1	; 0x01
    23ea:	80 93 41 02 	sts	0x0241, r24	; 0x800241 <I2CBuffer+0x1a>

	TWCR = ( (1<<TWEN) | (1<<TWSTA) | (1<<TWINT) | (1<<TWIE) );
    23ee:	85 ea       	ldi	r24, 0xA5	; 165
    23f0:	80 93 bc 00 	sts	0x00BC, r24	; 0x8000bc <__DATA_REGION_ORIGIN__+0x5c>
	
	milisecCounter2=0;
    23f4:	10 92 77 02 	sts	0x0277, r1	; 0x800277 <milisecCounter2+0x1>
    23f8:	10 92 76 02 	sts	0x0276, r1	; 0x800276 <milisecCounter2>
	while (I2CBuffer.succesBit==9)
	{
		if (milisecCounter2>=200)
		{
			I2CBuffer.succesBit=3;
    23fc:	93 e0       	ldi	r25, 0x03	; 3
	I2CBuffer.write_length=(volatile uint8_t) write_length;

	TWCR = ( (1<<TWEN) | (1<<TWSTA) | (1<<TWINT) | (1<<TWIE) );
	
	milisecCounter2=0;
	while (I2CBuffer.succesBit==9)
    23fe:	80 91 44 02 	lds	r24, 0x0244	; 0x800244 <I2CBuffer+0x1d>
    2402:	89 30       	cpi	r24, 0x09	; 9
    2404:	51 f4       	brne	.+20     	; 0x241a <i2c_comm+0x64>
	{
		if (milisecCounter2>=200)
    2406:	20 91 76 02 	lds	r18, 0x0276	; 0x800276 <milisecCounter2>
    240a:	30 91 77 02 	lds	r19, 0x0277	; 0x800277 <milisecCounter2+0x1>
    240e:	28 3c       	cpi	r18, 0xC8	; 200
    2410:	31 05       	cpc	r19, r1
    2412:	a8 f3       	brcs	.-22     	; 0x23fe <i2c_comm+0x48>
		{
			I2CBuffer.succesBit=3;
    2414:	90 93 44 02 	sts	0x0244, r25	; 0x800244 <I2CBuffer+0x1d>
    2418:	f2 cf       	rjmp	.-28     	; 0x23fe <i2c_comm+0x48>
		}
	}

	if (I2CBuffer.succesBit)
    241a:	80 91 44 02 	lds	r24, 0x0244	; 0x800244 <I2CBuffer+0x1d>
	{
		//TwiReset();
	}
	return (uint8_t*) I2CBuffer.read_buffer;
}
    241e:	89 e2       	ldi	r24, 0x29	; 41
    2420:	92 e0       	ldi	r25, 0x02	; 2
    2422:	0f 90       	pop	r0
    2424:	0f 90       	pop	r0
    2426:	df 91       	pop	r29
    2428:	cf 91       	pop	r28
    242a:	08 95       	ret

0000242c <__vector_24>:




ISR(TWI_vect)
{
    242c:	1f 92       	push	r1
    242e:	0f 92       	push	r0
    2430:	0f b6       	in	r0, 0x3f	; 63
    2432:	0f 92       	push	r0
    2434:	11 24       	eor	r1, r1
    2436:	2f 93       	push	r18
    2438:	3f 93       	push	r19
    243a:	8f 93       	push	r24
    243c:	9f 93       	push	r25
    243e:	ef 93       	push	r30
    2440:	ff 93       	push	r31
	uart_put_c('\n');
	
	#endif
	
	
	uint8_t twi_status = TWSR&0xF8;
    2442:	80 91 b9 00 	lds	r24, 0x00B9	; 0x8000b9 <__DATA_REGION_ORIGIN__+0x59>
	switch (twi_status)
    2446:	88 7f       	andi	r24, 0xF8	; 248
    2448:	88 32       	cpi	r24, 0x28	; 40
    244a:	09 f4       	brne	.+2      	; 0x244e <__vector_24+0x22>
    244c:	99 c0       	rjmp	.+306    	; 0x2580 <__vector_24+0x154>
    244e:	88 f4       	brcc	.+34     	; 0x2472 <__vector_24+0x46>
    2450:	80 31       	cpi	r24, 0x10	; 16
    2452:	09 f4       	brne	.+2      	; 0x2456 <__vector_24+0x2a>
    2454:	51 c0       	rjmp	.+162    	; 0x24f8 <__vector_24+0xcc>
    2456:	30 f4       	brcc	.+12     	; 0x2464 <__vector_24+0x38>
    2458:	88 23       	and	r24, r24
    245a:	09 f4       	brne	.+2      	; 0x245e <__vector_24+0x32>
    245c:	07 c1       	rjmp	.+526    	; 0x266c <__vector_24+0x240>
    245e:	88 30       	cpi	r24, 0x08	; 8
    2460:	f1 f0       	breq	.+60     	; 0x249e <__vector_24+0x72>
    2462:	04 c1       	rjmp	.+520    	; 0x266c <__vector_24+0x240>
    2464:	88 31       	cpi	r24, 0x18	; 24
    2466:	09 f4       	brne	.+2      	; 0x246a <__vector_24+0x3e>
    2468:	75 c0       	rjmp	.+234    	; 0x2554 <__vector_24+0x128>
    246a:	80 32       	cpi	r24, 0x20	; 32
    246c:	09 f4       	brne	.+2      	; 0x2470 <__vector_24+0x44>
    246e:	cf c0       	rjmp	.+414    	; 0x260e <__vector_24+0x1e2>
    2470:	fd c0       	rjmp	.+506    	; 0x266c <__vector_24+0x240>
    2472:	80 34       	cpi	r24, 0x40	; 64
    2474:	09 f4       	brne	.+2      	; 0x2478 <__vector_24+0x4c>
    2476:	c6 c0       	rjmp	.+396    	; 0x2604 <__vector_24+0x1d8>
    2478:	40 f4       	brcc	.+16     	; 0x248a <__vector_24+0x5e>
    247a:	80 33       	cpi	r24, 0x30	; 48
    247c:	09 f4       	brne	.+2      	; 0x2480 <__vector_24+0x54>
    247e:	c7 c0       	rjmp	.+398    	; 0x260e <__vector_24+0x1e2>
    2480:	88 33       	cpi	r24, 0x38	; 56
    2482:	09 f0       	breq	.+2      	; 0x2486 <__vector_24+0x5a>
    2484:	f3 c0       	rjmp	.+486    	; 0x266c <__vector_24+0x240>
		}
		break;

		case 0x38:										//Arbitration lost in SLA+W or data bytes
		{
			TWCR = (1<<TWINT);
    2486:	80 e8       	ldi	r24, 0x80	; 128
    2488:	e0 c0       	rjmp	.+448    	; 0x264a <__vector_24+0x21e>
	
	#endif
	
	
	uint8_t twi_status = TWSR&0xF8;
	switch (twi_status)
    248a:	80 35       	cpi	r24, 0x50	; 80
    248c:	09 f4       	brne	.+2      	; 0x2490 <__vector_24+0x64>
    248e:	c4 c0       	rjmp	.+392    	; 0x2618 <__vector_24+0x1ec>
    2490:	88 35       	cpi	r24, 0x58	; 88
    2492:	09 f4       	brne	.+2      	; 0x2496 <__vector_24+0x6a>
    2494:	dd c0       	rjmp	.+442    	; 0x2650 <__vector_24+0x224>
    2496:	88 34       	cpi	r24, 0x48	; 72
    2498:	09 f0       	breq	.+2      	; 0x249c <__vector_24+0x70>
    249a:	e8 c0       	rjmp	.+464    	; 0x266c <__vector_24+0x240>
    249c:	b8 c0       	rjmp	.+368    	; 0x260e <__vector_24+0x1e2>
	{
		case 0x08:								//start transmitted
		{
			if ( (I2CBuffer.position==I2CBuffer.write_length) && I2CBuffer.read_length)
    249e:	90 91 43 02 	lds	r25, 0x0243	; 0x800243 <I2CBuffer+0x1c>
    24a2:	80 91 41 02 	lds	r24, 0x0241	; 0x800241 <I2CBuffer+0x1a>
    24a6:	98 13       	cpse	r25, r24
    24a8:	04 c0       	rjmp	.+8      	; 0x24b2 <__vector_24+0x86>
    24aa:	80 91 42 02 	lds	r24, 0x0242	; 0x800242 <I2CBuffer+0x1b>
    24ae:	81 11       	cpse	r24, r1
    24b0:	2d c0       	rjmp	.+90     	; 0x250c <__vector_24+0xe0>
				TWDR = *I2CBuffer.write_buffer;
				TWCR = ( (1<<TWINT) | (1<<TWEN) | (1<<TWIE) );
			}
			else
			{
				I2CBuffer.position=0;
    24b2:	10 92 43 02 	sts	0x0243, r1	; 0x800243 <I2CBuffer+0x1c>
				I2CBuffer.write_buffer=I2CBuffer.inpos;
    24b6:	80 91 3f 02 	lds	r24, 0x023F	; 0x80023f <I2CBuffer+0x18>
    24ba:	90 91 40 02 	lds	r25, 0x0240	; 0x800240 <I2CBuffer+0x19>
    24be:	90 93 28 02 	sts	0x0228, r25	; 0x800228 <I2CBuffer+0x1>
    24c2:	80 93 27 02 	sts	0x0227, r24	; 0x800227 <I2CBuffer>
				TWDR = *I2CBuffer.write_buffer;
    24c6:	e0 91 27 02 	lds	r30, 0x0227	; 0x800227 <I2CBuffer>
    24ca:	f0 91 28 02 	lds	r31, 0x0228	; 0x800228 <I2CBuffer+0x1>
    24ce:	80 81       	ld	r24, Z
    24d0:	80 93 bb 00 	sts	0x00BB, r24	; 0x8000bb <__DATA_REGION_ORIGIN__+0x5b>
				TWCR = ( (1<<TWINT) | (1<<TWEN) | (1<<TWIE) );
    24d4:	85 e8       	ldi	r24, 0x85	; 133
    24d6:	80 93 bc 00 	sts	0x00BC, r24	; 0x8000bc <__DATA_REGION_ORIGIN__+0x5c>
				I2CBuffer.write_buffer++;
    24da:	80 91 27 02 	lds	r24, 0x0227	; 0x800227 <I2CBuffer>
    24de:	90 91 28 02 	lds	r25, 0x0228	; 0x800228 <I2CBuffer+0x1>
    24e2:	01 96       	adiw	r24, 0x01	; 1
    24e4:	90 93 28 02 	sts	0x0228, r25	; 0x800228 <I2CBuffer+0x1>
    24e8:	80 93 27 02 	sts	0x0227, r24	; 0x800227 <I2CBuffer>
				I2CBuffer.position++;
    24ec:	80 91 43 02 	lds	r24, 0x0243	; 0x800243 <I2CBuffer+0x1c>
    24f0:	8f 5f       	subi	r24, 0xFF	; 255
    24f2:	80 93 43 02 	sts	0x0243, r24	; 0x800243 <I2CBuffer+0x1c>
    24f6:	c0 c0       	rjmp	.+384    	; 0x2678 <__vector_24+0x24c>
		}
		break;

		case 0x10:
		{
			if ( (I2CBuffer.position==I2CBuffer.write_length) && (I2CBuffer.read_length) )
    24f8:	90 91 43 02 	lds	r25, 0x0243	; 0x800243 <I2CBuffer+0x1c>
    24fc:	80 91 41 02 	lds	r24, 0x0241	; 0x800241 <I2CBuffer+0x1a>
    2500:	98 13       	cpse	r25, r24
    2502:	16 c0       	rjmp	.+44     	; 0x2530 <__vector_24+0x104>
    2504:	80 91 42 02 	lds	r24, 0x0242	; 0x800242 <I2CBuffer+0x1b>
    2508:	88 23       	and	r24, r24
    250a:	91 f0       	breq	.+36     	; 0x2530 <__vector_24+0x104>
			{
				I2CBuffer.write_buffer=I2CBuffer.inpos;
    250c:	80 91 3f 02 	lds	r24, 0x023F	; 0x80023f <I2CBuffer+0x18>
    2510:	90 91 40 02 	lds	r25, 0x0240	; 0x800240 <I2CBuffer+0x19>
    2514:	90 93 28 02 	sts	0x0228, r25	; 0x800228 <I2CBuffer+0x1>
    2518:	80 93 27 02 	sts	0x0227, r24	; 0x800227 <I2CBuffer>
				*I2CBuffer.write_buffer |= 1;
    251c:	e0 91 27 02 	lds	r30, 0x0227	; 0x800227 <I2CBuffer>
    2520:	f0 91 28 02 	lds	r31, 0x0228	; 0x800228 <I2CBuffer+0x1>
    2524:	80 81       	ld	r24, Z
    2526:	81 60       	ori	r24, 0x01	; 1
    2528:	80 83       	st	Z, r24
				I2CBuffer.position=0;
    252a:	10 92 43 02 	sts	0x0243, r1	; 0x800243 <I2CBuffer+0x1c>
    252e:	0a c0       	rjmp	.+20     	; 0x2544 <__vector_24+0x118>
				TWCR = ( (1<<TWINT) | (1<<TWEN) | (1<<TWIE) );
			}
			else
			{
				//rep start transmitted
				I2CBuffer.position=0;
    2530:	10 92 43 02 	sts	0x0243, r1	; 0x800243 <I2CBuffer+0x1c>
				I2CBuffer.write_buffer=I2CBuffer.inpos;
    2534:	80 91 3f 02 	lds	r24, 0x023F	; 0x80023f <I2CBuffer+0x18>
    2538:	90 91 40 02 	lds	r25, 0x0240	; 0x800240 <I2CBuffer+0x19>
    253c:	90 93 28 02 	sts	0x0228, r25	; 0x800228 <I2CBuffer+0x1>
    2540:	80 93 27 02 	sts	0x0227, r24	; 0x800227 <I2CBuffer>
				TWDR = *I2CBuffer.write_buffer;
    2544:	e0 91 27 02 	lds	r30, 0x0227	; 0x800227 <I2CBuffer>
    2548:	f0 91 28 02 	lds	r31, 0x0228	; 0x800228 <I2CBuffer+0x1>
    254c:	80 81       	ld	r24, Z
    254e:	80 93 bb 00 	sts	0x00BB, r24	; 0x8000bb <__DATA_REGION_ORIGIN__+0x5b>
    2552:	78 c0       	rjmp	.+240    	; 0x2644 <__vector_24+0x218>
		}
		break;

		case 0x18:										//SLA+W transmitted ACK received
		{
			if ( (I2CBuffer.position==I2CBuffer.write_length) && (!I2CBuffer.read_length) )
    2554:	90 91 43 02 	lds	r25, 0x0243	; 0x800243 <I2CBuffer+0x1c>
    2558:	80 91 41 02 	lds	r24, 0x0241	; 0x800241 <I2CBuffer+0x1a>
    255c:	98 13       	cpse	r25, r24
    255e:	05 c0       	rjmp	.+10     	; 0x256a <__vector_24+0x13e>
    2560:	80 91 42 02 	lds	r24, 0x0242	; 0x800242 <I2CBuffer+0x1b>
    2564:	88 23       	and	r24, r24
    2566:	09 f4       	brne	.+2      	; 0x256a <__vector_24+0x13e>
    2568:	7b c0       	rjmp	.+246    	; 0x2660 <__vector_24+0x234>
			{
				TWCR = ( (1<<TWINT) | (1<<TWSTO) );
				I2CBuffer.succesBit=0;
			}
			else if ( (I2CBuffer.position==I2CBuffer.write_length) && I2CBuffer.read_length)
    256a:	90 91 43 02 	lds	r25, 0x0243	; 0x800243 <I2CBuffer+0x1c>
    256e:	80 91 41 02 	lds	r24, 0x0241	; 0x800241 <I2CBuffer+0x1a>
    2572:	98 13       	cpse	r25, r24
    2574:	31 c0       	rjmp	.+98     	; 0x25d8 <__vector_24+0x1ac>
    2576:	80 91 42 02 	lds	r24, 0x0242	; 0x800242 <I2CBuffer+0x1b>
    257a:	88 23       	and	r24, r24
    257c:	69 f1       	breq	.+90     	; 0x25d8 <__vector_24+0x1ac>
    257e:	1a c0       	rjmp	.+52     	; 0x25b4 <__vector_24+0x188>
		}
		break;

		case 0x28:										//Data byte transmitted ACK received
		{
			if ( (I2CBuffer.position>=I2CBuffer.write_length) && (!I2CBuffer.read_length) )
    2580:	90 91 43 02 	lds	r25, 0x0243	; 0x800243 <I2CBuffer+0x1c>
    2584:	80 91 41 02 	lds	r24, 0x0241	; 0x800241 <I2CBuffer+0x1a>
    2588:	98 17       	cp	r25, r24
    258a:	30 f0       	brcs	.+12     	; 0x2598 <__vector_24+0x16c>
    258c:	80 91 42 02 	lds	r24, 0x0242	; 0x800242 <I2CBuffer+0x1b>
    2590:	81 11       	cpse	r24, r1
    2592:	02 c0       	rjmp	.+4      	; 0x2598 <__vector_24+0x16c>
			{
				TWCR = ( (1<<TWINT) | (1<<TWSTO) | (1<<TWEN));
    2594:	84 e9       	ldi	r24, 0x94	; 148
    2596:	65 c0       	rjmp	.+202    	; 0x2662 <__vector_24+0x236>
				I2CBuffer.succesBit=0;
			}
			else if ( (I2CBuffer.position==I2CBuffer.write_length) && (I2CBuffer.read_length) && (!I2CBuffer.rs) )
    2598:	90 91 43 02 	lds	r25, 0x0243	; 0x800243 <I2CBuffer+0x1c>
    259c:	80 91 41 02 	lds	r24, 0x0241	; 0x800241 <I2CBuffer+0x1a>
    25a0:	98 13       	cpse	r25, r24
    25a2:	0a c0       	rjmp	.+20     	; 0x25b8 <__vector_24+0x18c>
    25a4:	80 91 42 02 	lds	r24, 0x0242	; 0x800242 <I2CBuffer+0x1b>
    25a8:	88 23       	and	r24, r24
    25aa:	31 f0       	breq	.+12     	; 0x25b8 <__vector_24+0x18c>
    25ac:	80 91 45 02 	lds	r24, 0x0245	; 0x800245 <I2CBuffer+0x1e>
    25b0:	81 11       	cpse	r24, r1
    25b2:	02 c0       	rjmp	.+4      	; 0x25b8 <__vector_24+0x18c>
			{
				TWCR = ( (1<<TWINT) | (1<<TWSTA)  | (1<<TWSTO)| (1<<TWEN) | (1<<TWIE) );
    25b4:	85 eb       	ldi	r24, 0xB5	; 181
    25b6:	49 c0       	rjmp	.+146    	; 0x264a <__vector_24+0x21e>
			}
			else if ( (I2CBuffer.position==I2CBuffer.write_length) && (I2CBuffer.read_length) && (I2CBuffer.rs) )
    25b8:	90 91 43 02 	lds	r25, 0x0243	; 0x800243 <I2CBuffer+0x1c>
    25bc:	80 91 41 02 	lds	r24, 0x0241	; 0x800241 <I2CBuffer+0x1a>
    25c0:	98 13       	cpse	r25, r24
    25c2:	0a c0       	rjmp	.+20     	; 0x25d8 <__vector_24+0x1ac>
    25c4:	80 91 42 02 	lds	r24, 0x0242	; 0x800242 <I2CBuffer+0x1b>
    25c8:	88 23       	and	r24, r24
    25ca:	31 f0       	breq	.+12     	; 0x25d8 <__vector_24+0x1ac>
    25cc:	80 91 45 02 	lds	r24, 0x0245	; 0x800245 <I2CBuffer+0x1e>
    25d0:	88 23       	and	r24, r24
    25d2:	11 f0       	breq	.+4      	; 0x25d8 <__vector_24+0x1ac>
			{
				TWCR = ( (1<<TWINT) | (1<<TWSTA)  | (1<<TWEN) | (1<<TWIE) );
    25d4:	85 ea       	ldi	r24, 0xA5	; 165
    25d6:	39 c0       	rjmp	.+114    	; 0x264a <__vector_24+0x21e>
			}
			else
			{
				TWDR = *I2CBuffer.write_buffer;
    25d8:	e0 91 27 02 	lds	r30, 0x0227	; 0x800227 <I2CBuffer>
    25dc:	f0 91 28 02 	lds	r31, 0x0228	; 0x800228 <I2CBuffer+0x1>
    25e0:	80 81       	ld	r24, Z
    25e2:	80 93 bb 00 	sts	0x00BB, r24	; 0x8000bb <__DATA_REGION_ORIGIN__+0x5b>
				I2CBuffer.write_buffer++;
    25e6:	80 91 27 02 	lds	r24, 0x0227	; 0x800227 <I2CBuffer>
    25ea:	90 91 28 02 	lds	r25, 0x0228	; 0x800228 <I2CBuffer+0x1>
    25ee:	01 96       	adiw	r24, 0x01	; 1
    25f0:	90 93 28 02 	sts	0x0228, r25	; 0x800228 <I2CBuffer+0x1>
    25f4:	80 93 27 02 	sts	0x0227, r24	; 0x800227 <I2CBuffer>
				I2CBuffer.position++;
    25f8:	80 91 43 02 	lds	r24, 0x0243	; 0x800243 <I2CBuffer+0x1c>
    25fc:	8f 5f       	subi	r24, 0xFF	; 255
    25fe:	80 93 43 02 	sts	0x0243, r24	; 0x800243 <I2CBuffer+0x1c>
    2602:	20 c0       	rjmp	.+64     	; 0x2644 <__vector_24+0x218>
		}
		break;

		case 0x40:										//SLA+R transmitted ACK
		{
			if (I2CBuffer.read_length==1)
    2604:	80 91 42 02 	lds	r24, 0x0242	; 0x800242 <I2CBuffer+0x1b>
    2608:	81 30       	cpi	r24, 0x01	; 1
    260a:	f1 f4       	brne	.+60     	; 0x2648 <__vector_24+0x21c>
    260c:	1b c0       	rjmp	.+54     	; 0x2644 <__vector_24+0x218>
		}
		break;

		case 0x48: 										//SLA+R transmitted NACK
		{
			TWCR = ( (1<<TWINT) | (1<<TWSTO) );
    260e:	80 e9       	ldi	r24, 0x90	; 144
    2610:	80 93 bc 00 	sts	0x00BC, r24	; 0x8000bc <__DATA_REGION_ORIGIN__+0x5c>
			I2CBuffer.succesBit=2;
    2614:	82 e0       	ldi	r24, 0x02	; 2
    2616:	2e c0       	rjmp	.+92     	; 0x2674 <__vector_24+0x248>
		}
		break;

		case 0x50:										 //Data byte received ACK returned
		{
			I2CBuffer.read_buffer[I2CBuffer.position++]=TWDR;
    2618:	e0 91 43 02 	lds	r30, 0x0243	; 0x800243 <I2CBuffer+0x1c>
    261c:	81 e0       	ldi	r24, 0x01	; 1
    261e:	8e 0f       	add	r24, r30
    2620:	80 93 43 02 	sts	0x0243, r24	; 0x800243 <I2CBuffer+0x1c>
    2624:	f0 e0       	ldi	r31, 0x00	; 0
    2626:	80 91 bb 00 	lds	r24, 0x00BB	; 0x8000bb <__DATA_REGION_ORIGIN__+0x5b>
    262a:	e9 5d       	subi	r30, 0xD9	; 217
    262c:	fd 4f       	sbci	r31, 0xFD	; 253
    262e:	82 83       	std	Z+2, r24	; 0x02

			if (I2CBuffer.position>=(I2CBuffer.read_length-1) )
    2630:	20 91 43 02 	lds	r18, 0x0243	; 0x800243 <I2CBuffer+0x1c>
    2634:	80 91 42 02 	lds	r24, 0x0242	; 0x800242 <I2CBuffer+0x1b>
    2638:	30 e0       	ldi	r19, 0x00	; 0
    263a:	90 e0       	ldi	r25, 0x00	; 0
    263c:	01 97       	sbiw	r24, 0x01	; 1
    263e:	28 17       	cp	r18, r24
    2640:	39 07       	cpc	r19, r25
    2642:	14 f0       	brlt	.+4      	; 0x2648 <__vector_24+0x21c>
			{
				TWCR = ( (1<<TWINT) | (1<<TWEN) | (1<<TWIE) );
    2644:	85 e8       	ldi	r24, 0x85	; 133
    2646:	01 c0       	rjmp	.+2      	; 0x264a <__vector_24+0x21e>
			}
			else
			{
				TWCR = ( (1<<TWINT) | (1<<TWEN) | (1<<TWIE) | (1<<TWEA) );
    2648:	85 ec       	ldi	r24, 0xC5	; 197
    264a:	80 93 bc 00 	sts	0x00BC, r24	; 0x8000bc <__DATA_REGION_ORIGIN__+0x5c>
    264e:	14 c0       	rjmp	.+40     	; 0x2678 <__vector_24+0x24c>
		}
		break;

		case 0x58:										//Data byte received NACK returned
		{
			I2CBuffer.read_buffer[I2CBuffer.position]=TWDR;
    2650:	e0 91 43 02 	lds	r30, 0x0243	; 0x800243 <I2CBuffer+0x1c>
    2654:	f0 e0       	ldi	r31, 0x00	; 0
    2656:	80 91 bb 00 	lds	r24, 0x00BB	; 0x8000bb <__DATA_REGION_ORIGIN__+0x5b>
    265a:	e9 5d       	subi	r30, 0xD9	; 217
    265c:	fd 4f       	sbci	r31, 0xFD	; 253
    265e:	82 83       	std	Z+2, r24	; 0x02
			TWCR = ( (1<<TWINT) | (1<<TWSTO) );
    2660:	80 e9       	ldi	r24, 0x90	; 144
    2662:	80 93 bc 00 	sts	0x00BC, r24	; 0x8000bc <__DATA_REGION_ORIGIN__+0x5c>
			I2CBuffer.succesBit=0;
    2666:	10 92 44 02 	sts	0x0244, r1	; 0x800244 <I2CBuffer+0x1d>
		}
		break;
    266a:	06 c0       	rjmp	.+12     	; 0x2678 <__vector_24+0x24c>
		}
		break;

		default:
		{
			TWCR = ( (1<<TWINT) | (1<<TWSTO) );
    266c:	80 e9       	ldi	r24, 0x90	; 144
    266e:	80 93 bc 00 	sts	0x00BC, r24	; 0x8000bc <__DATA_REGION_ORIGIN__+0x5c>
			I2CBuffer.succesBit=1;
    2672:	81 e0       	ldi	r24, 0x01	; 1
    2674:	80 93 44 02 	sts	0x0244, r24	; 0x800244 <I2CBuffer+0x1d>
		}
		break;
	}
}
    2678:	ff 91       	pop	r31
    267a:	ef 91       	pop	r30
    267c:	9f 91       	pop	r25
    267e:	8f 91       	pop	r24
    2680:	3f 91       	pop	r19
    2682:	2f 91       	pop	r18
    2684:	0f 90       	pop	r0
    2686:	0f be       	out	0x3f, r0	; 63
    2688:	0f 90       	pop	r0
    268a:	1f 90       	pop	r1
    268c:	18 95       	reti

0000268e <init>:

#include "include/sensorBoard.h"


void init (volatile sensValues* actualValues)
{
    268e:	cf 93       	push	r28
    2690:	df 93       	push	r29
    2692:	ec 01       	movw	r28, r24
	//Timer2 fuer Zeit:
	TCCR2A |= (1<<WGM21);
    2694:	e0 eb       	ldi	r30, 0xB0	; 176
    2696:	f0 e0       	ldi	r31, 0x00	; 0
    2698:	80 81       	ld	r24, Z
    269a:	82 60       	ori	r24, 0x02	; 2
    269c:	80 83       	st	Z, r24
	TCCR2B |= ( (1<<CS21) | (1<<CS20) );
    269e:	e1 eb       	ldi	r30, 0xB1	; 177
    26a0:	f0 e0       	ldi	r31, 0x00	; 0
    26a2:	80 81       	ld	r24, Z
    26a4:	83 60       	ori	r24, 0x03	; 3
    26a6:	80 83       	st	Z, r24
	TIMSK2 |= (1<<OCIE2A);
    26a8:	e0 e7       	ldi	r30, 0x70	; 112
    26aa:	f0 e0       	ldi	r31, 0x00	; 0
    26ac:	80 81       	ld	r24, Z
    26ae:	82 60       	ori	r24, 0x02	; 2
    26b0:	80 83       	st	Z, r24
	OCR2A = 250;
    26b2:	8a ef       	ldi	r24, 0xFA	; 250
    26b4:	80 93 b3 00 	sts	0x00B3, r24	; 0x8000b3 <__DATA_REGION_ORIGIN__+0x53>
	
	//Can Interrupt:
	DDRD  &= ~(1<<DDD3);
    26b8:	53 98       	cbi	0x0a, 3	; 10
	//PORTD |= ~(1<<PD3);
	EICRA |= (1<<ISC11);
    26ba:	e9 e6       	ldi	r30, 0x69	; 105
    26bc:	f0 e0       	ldi	r31, 0x00	; 0
    26be:	80 81       	ld	r24, Z
    26c0:	88 60       	ori	r24, 0x08	; 8
    26c2:	80 83       	st	Z, r24
	EIMSK |= (1<<INT1) ;
    26c4:	e9 9a       	sbi	0x1d, 1	; 29
	
	//Taster Interrupt:
	DDRD  &= ~(1<<DDD2);
    26c6:	52 98       	cbi	0x0a, 2	; 10
	PORTD |=  (1<<PD2);
    26c8:	5a 9a       	sbi	0x0b, 2	; 11
	EICRA |= (1<<ISC01);
    26ca:	80 81       	ld	r24, Z
    26cc:	82 60       	ori	r24, 0x02	; 2
    26ce:	80 83       	st	Z, r24
	EIMSK |= (1<<INT0) ;
    26d0:	e8 9a       	sbi	0x1d, 0	; 29
		
	//LEDs:
	DDRD |= (1<<DDD7) ;
    26d2:	57 9a       	sbi	0x0a, 7	; 10
	DDRB |= (1<<DDB0) ;
    26d4:	20 9a       	sbi	0x04, 0	; 4

	//TWI HUB
	DDRC |=  ((1<<DDC2) | (1<<DDC3));
    26d6:	87 b1       	in	r24, 0x07	; 7
    26d8:	8c 60       	ori	r24, 0x0C	; 12
    26da:	87 b9       	out	0x07, r24	; 7
	PORTC &= ~(1<<PC3);
    26dc:	43 98       	cbi	0x08, 3	; 8
	PORTC &= ~(1<<PC2);
    26de:	42 98       	cbi	0x08, 2	; 8
	
	//ADC-Pins

	DDRC   &= ~(1<<DDC0);
    26e0:	38 98       	cbi	0x07, 0	; 7
	DDRC   &= ~(1<<DDC1);
    26e2:	39 98       	cbi	0x07, 1	; 7

	//ADC-VRef
	ADMUX  |=  (1<<REFS0) ;
    26e4:	ec e7       	ldi	r30, 0x7C	; 124
    26e6:	f0 e0       	ldi	r31, 0x00	; 0
    26e8:	80 81       	ld	r24, Z
    26ea:	80 64       	ori	r24, 0x40	; 64
    26ec:	80 83       	st	Z, r24
	ADMUX  &=  ~(1<<REFS1) ;
    26ee:	80 81       	ld	r24, Z
    26f0:	8f 77       	andi	r24, 0x7F	; 127
    26f2:	80 83       	st	Z, r24
	ADCSRA |= (1<<ADEN)  ;
    26f4:	ea e7       	ldi	r30, 0x7A	; 122
    26f6:	f0 e0       	ldi	r31, 0x00	; 0
    26f8:	80 81       	ld	r24, Z
    26fa:	80 68       	ori	r24, 0x80	; 128
    26fc:	80 83       	st	Z, r24
	DIDR0|= (1<<ADC0D) | (1<<ADC1D);
    26fe:	ee e7       	ldi	r30, 0x7E	; 126
    2700:	f0 e0       	ldi	r31, 0x00	; 0
    2702:	80 81       	ld	r24, Z
    2704:	83 60       	ori	r24, 0x03	; 3
    2706:	80 83       	st	Z, r24
	
	
	entprellsperre=0;
    2708:	10 92 5b 02 	sts	0x025B, r1	; 0x80025b <entprellsperre>
	
	sei();
    270c:	78 94       	sei
	
	uart_init(51);
    270e:	83 e3       	ldi	r24, 0x33	; 51
    2710:	90 e0       	ldi	r25, 0x00	; 0
    2712:	0e 94 a0 15 	call	0x2b40	; 0x2b40 <uart_init>
	twi_init();	
    2716:	0e 94 cd 11 	call	0x239a	; 0x239a <twi_init>
	#else
		//round up by default
		__ticks_dc = (uint32_t)(ceil(fabs(__tmp)));
	#endif

	__builtin_avr_delay_cycles(__ticks_dc);
    271a:	8f e1       	ldi	r24, 0x1F	; 31
    271c:	9e e4       	ldi	r25, 0x4E	; 78
    271e:	01 97       	sbiw	r24, 0x01	; 1
    2720:	f1 f7       	brne	.-4      	; 0x271e <init+0x90>
    2722:	00 c0       	rjmp	.+0      	; 0x2724 <init+0x96>
    2724:	00 00       	nop
	_delay_ms(10);
	spi_init();
    2726:	0e 94 8a 15 	call	0x2b14	; 0x2b14 <spi_init>
    272a:	8f ec       	ldi	r24, 0xCF	; 207
    272c:	97 e0       	ldi	r25, 0x07	; 7
    272e:	01 97       	sbiw	r24, 0x01	; 1
    2730:	f1 f7       	brne	.-4      	; 0x272e <init+0xa0>
    2732:	00 c0       	rjmp	.+0      	; 0x2734 <init+0xa6>
    2734:	00 00       	nop
	_delay_ms(1);
	mcp2515_init(0X7FF,senderID<<4);
    2736:	60 e1       	ldi	r22, 0x10	; 16
    2738:	70 e0       	ldi	r23, 0x00	; 0
    273a:	8f ef       	ldi	r24, 0xFF	; 255
    273c:	97 e0       	ldi	r25, 0x07	; 7
    273e:	0e 94 d2 00 	call	0x1a4	; 0x1a4 <mcp2515_init>
	
	AC1=0;
    2742:	10 92 4e 02 	sts	0x024E, r1	; 0x80024e <AC1+0x1>
    2746:	10 92 4d 02 	sts	0x024D, r1	; 0x80024d <AC1>
	AC2=0;
    274a:	10 92 70 02 	sts	0x0270, r1	; 0x800270 <AC2+0x1>
    274e:	10 92 6f 02 	sts	0x026F, r1	; 0x80026f <AC2>
	AC3=0;
    2752:	10 92 72 02 	sts	0x0272, r1	; 0x800272 <AC3+0x1>
    2756:	10 92 71 02 	sts	0x0271, r1	; 0x800271 <AC3>
	AC4=0;
    275a:	10 92 6c 02 	sts	0x026C, r1	; 0x80026c <AC4+0x1>
    275e:	10 92 6b 02 	sts	0x026B, r1	; 0x80026b <AC4>
	AC5=0;
    2762:	10 92 69 02 	sts	0x0269, r1	; 0x800269 <AC5+0x1>
    2766:	10 92 68 02 	sts	0x0268, r1	; 0x800268 <AC5>
	AC6=0;
    276a:	10 92 50 02 	sts	0x0250, r1	; 0x800250 <AC6+0x1>
    276e:	10 92 4f 02 	sts	0x024F, r1	; 0x80024f <AC6>
	B1=0;
    2772:	10 92 81 02 	sts	0x0281, r1	; 0x800281 <B1+0x1>
    2776:	10 92 80 02 	sts	0x0280, r1	; 0x800280 <B1>
	B2=0;
    277a:	10 92 75 02 	sts	0x0275, r1	; 0x800275 <B2+0x1>
    277e:	10 92 74 02 	sts	0x0274, r1	; 0x800274 <B2>
	MB=0;
    2782:	10 92 6e 02 	sts	0x026E, r1	; 0x80026e <MB+0x1>
    2786:	10 92 6d 02 	sts	0x026D, r1	; 0x80026d <MB>
	MC=0;
    278a:	10 92 83 02 	sts	0x0283, r1	; 0x800283 <MC+0x1>
    278e:	10 92 82 02 	sts	0x0282, r1	; 0x800282 <MC>
	MD=0;
    2792:	10 92 48 02 	sts	0x0248, r1	; 0x800248 <MD+0x1>
    2796:	10 92 47 02 	sts	0x0247, r1	; 0x800247 <MD>
	
	actualValues->boschTemp=-9999;
    279a:	81 ef       	ldi	r24, 0xF1	; 241
    279c:	98 ed       	ldi	r25, 0xD8	; 216
    279e:	9d 87       	std	Y+13, r25	; 0x0d
    27a0:	8c 87       	std	Y+12, r24	; 0x0c
	actualValues->co=-9999;
    27a2:	9b 83       	std	Y+3, r25	; 0x03
    27a4:	8a 83       	std	Y+2, r24	; 0x02
	actualValues->feuchte=-9999;
    27a6:	9f 83       	std	Y+7, r25	; 0x07
    27a8:	8e 83       	std	Y+6, r24	; 0x06
	actualValues->hytTemp=-9999;
    27aa:	9d 83       	std	Y+5, r25	; 0x05
    27ac:	8c 83       	std	Y+4, r24	; 0x04
	actualValues->k30Status=0;
    27ae:	1e 86       	std	Y+14, r1	; 0x0e
	actualValues->ppfd=-9999;
    27b0:	99 83       	std	Y+1, r25	; 0x01
    27b2:	88 83       	st	Y, r24
	actualValues->pressure=-9999;
    27b4:	41 ef       	ldi	r20, 0xF1	; 241
    27b6:	58 ed       	ldi	r21, 0xD8	; 216
    27b8:	6f ef       	ldi	r22, 0xFF	; 255
    27ba:	7f ef       	ldi	r23, 0xFF	; 255
    27bc:	48 87       	std	Y+8, r20	; 0x08
    27be:	59 87       	std	Y+9, r21	; 0x09
    27c0:	6a 87       	std	Y+10, r22	; 0x0a
    27c2:	7b 87       	std	Y+11, r23	; 0x0b
	actualValues->RHO=-9999;
    27c4:	98 8b       	std	Y+16, r25	; 0x10
    27c6:	8f 87       	std	Y+15, r24	; 0x0f
	actualValues->S=-9999;
    27c8:	9a 8b       	std	Y+18, r25	; 0x12
    27ca:	89 8b       	std	Y+17, r24	; 0x11
	actualValues->AF=-9999;
    27cc:	9c 8b       	std	Y+20, r25	; 0x14
    27ce:	8b 8b       	std	Y+19, r24	; 0x13
	actualValues->VPD=-9999;
    27d0:	9e 8b       	std	Y+22, r25	; 0x16
    27d2:	8d 8b       	std	Y+21, r24	; 0x15
	
	actualValues->Mppfd=0;
    27d4:	18 8e       	std	Y+24, r1	; 0x18
    27d6:	1f 8a       	std	Y+23, r1	; 0x17
	actualValues->Mco=0;
    27d8:	1a 8e       	std	Y+26, r1	; 0x1a
    27da:	19 8e       	std	Y+25, r1	; 0x19
	actualValues->MhytTemp=0;
    27dc:	1c 8e       	std	Y+28, r1	; 0x1c
    27de:	1b 8e       	std	Y+27, r1	; 0x1b
	actualValues->Mfeuchte=0;
    27e0:	1e 8e       	std	Y+30, r1	; 0x1e
    27e2:	1d 8e       	std	Y+29, r1	; 0x1d
	actualValues->Mpressure=0;
    27e4:	1f 8e       	std	Y+31, r1	; 0x1f
    27e6:	18 a2       	std	Y+32, r1	; 0x20
    27e8:	19 a2       	std	Y+33, r1	; 0x21
    27ea:	1a a2       	std	Y+34, r1	; 0x22
	actualValues->MboschTemp=0;
    27ec:	1c a2       	std	Y+36, r1	; 0x24
    27ee:	1b a2       	std	Y+35, r1	; 0x23
	actualValues->MRHO=0;
    27f0:	1e a2       	std	Y+38, r1	; 0x26
    27f2:	1d a2       	std	Y+37, r1	; 0x25
	actualValues->MS=0;
    27f4:	18 a6       	std	Y+40, r1	; 0x28
    27f6:	1f a2       	std	Y+39, r1	; 0x27
	actualValues->MAF=0;
    27f8:	1a a6       	std	Y+42, r1	; 0x2a
    27fa:	19 a6       	std	Y+41, r1	; 0x29
	actualValues->MVPD=0;
    27fc:	1c a6       	std	Y+44, r1	; 0x2c
    27fe:	1b a6       	std	Y+43, r1	; 0x2b
	
	actualValues->Bppfd=0;
    2800:	1d a6       	std	Y+45, r1	; 0x2d
    2802:	1e a6       	std	Y+46, r1	; 0x2e
    2804:	1f a6       	std	Y+47, r1	; 0x2f
    2806:	18 aa       	std	Y+48, r1	; 0x30
	actualValues->Bco=0;
    2808:	19 aa       	std	Y+49, r1	; 0x31
    280a:	1a aa       	std	Y+50, r1	; 0x32
    280c:	1b aa       	std	Y+51, r1	; 0x33
    280e:	1c aa       	std	Y+52, r1	; 0x34
	actualValues->BhytTemp=0;
    2810:	1d aa       	std	Y+53, r1	; 0x35
    2812:	1e aa       	std	Y+54, r1	; 0x36
    2814:	1f aa       	std	Y+55, r1	; 0x37
    2816:	18 ae       	std	Y+56, r1	; 0x38
	actualValues->Bfeuchte=0;
    2818:	19 ae       	std	Y+57, r1	; 0x39
    281a:	1a ae       	std	Y+58, r1	; 0x3a
    281c:	1b ae       	std	Y+59, r1	; 0x3b
    281e:	1c ae       	std	Y+60, r1	; 0x3c
	actualValues->Bpressure=0;
    2820:	fe 01       	movw	r30, r28
    2822:	fd 96       	adiw	r30, 0x3d	; 61
    2824:	10 82       	st	Z, r1
    2826:	11 82       	std	Z+1, r1	; 0x01
    2828:	12 82       	std	Z+2, r1	; 0x02
    282a:	13 82       	std	Z+3, r1	; 0x03
	actualValues->BboschTemp=0;
    282c:	34 96       	adiw	r30, 0x04	; 4
    282e:	10 82       	st	Z, r1
    2830:	11 82       	std	Z+1, r1	; 0x01
    2832:	12 82       	std	Z+2, r1	; 0x02
    2834:	13 82       	std	Z+3, r1	; 0x03
	actualValues->BRHO=0;
    2836:	34 96       	adiw	r30, 0x04	; 4
    2838:	10 82       	st	Z, r1
    283a:	11 82       	std	Z+1, r1	; 0x01
    283c:	12 82       	std	Z+2, r1	; 0x02
    283e:	13 82       	std	Z+3, r1	; 0x03
	actualValues->BS=0;
    2840:	34 96       	adiw	r30, 0x04	; 4
    2842:	10 82       	st	Z, r1
    2844:	11 82       	std	Z+1, r1	; 0x01
    2846:	12 82       	std	Z+2, r1	; 0x02
    2848:	13 82       	std	Z+3, r1	; 0x03
	actualValues->BAF=0;
    284a:	34 96       	adiw	r30, 0x04	; 4
    284c:	10 82       	st	Z, r1
    284e:	11 82       	std	Z+1, r1	; 0x01
    2850:	12 82       	std	Z+2, r1	; 0x02
    2852:	13 82       	std	Z+3, r1	; 0x03
	actualValues->BVPD=0;
    2854:	34 96       	adiw	r30, 0x04	; 4
    2856:	10 82       	st	Z, r1
    2858:	11 82       	std	Z+1, r1	; 0x01
    285a:	12 82       	std	Z+2, r1	; 0x02
    285c:	13 82       	std	Z+3, r1	; 0x03
	
	actualValues->BppfdCounter=0;
    285e:	34 96       	adiw	r30, 0x04	; 4
    2860:	11 82       	std	Z+1, r1	; 0x01
    2862:	10 82       	st	Z, r1
	actualValues->BcoCounter=0;
    2864:	32 96       	adiw	r30, 0x02	; 2
    2866:	11 82       	std	Z+1, r1	; 0x01
    2868:	10 82       	st	Z, r1
	actualValues->BhytTempCounter=0;
    286a:	32 96       	adiw	r30, 0x02	; 2
    286c:	11 82       	std	Z+1, r1	; 0x01
    286e:	10 82       	st	Z, r1
	actualValues->BfeuchteCounter=0;
    2870:	32 96       	adiw	r30, 0x02	; 2
    2872:	11 82       	std	Z+1, r1	; 0x01
    2874:	10 82       	st	Z, r1
	actualValues->BpressureCounter=0;
    2876:	32 96       	adiw	r30, 0x02	; 2
    2878:	11 82       	std	Z+1, r1	; 0x01
    287a:	10 82       	st	Z, r1
	actualValues->BboschTempCounter=0;
    287c:	32 96       	adiw	r30, 0x02	; 2
    287e:	11 82       	std	Z+1, r1	; 0x01
    2880:	10 82       	st	Z, r1
	actualValues->BRHOCounter=0;
    2882:	32 96       	adiw	r30, 0x02	; 2
    2884:	11 82       	std	Z+1, r1	; 0x01
    2886:	10 82       	st	Z, r1
	actualValues->BSCounter=0;
    2888:	32 96       	adiw	r30, 0x02	; 2
    288a:	11 82       	std	Z+1, r1	; 0x01
    288c:	10 82       	st	Z, r1
	actualValues->BAFCounter=0;
    288e:	32 96       	adiw	r30, 0x02	; 2
    2890:	11 82       	std	Z+1, r1	; 0x01
    2892:	10 82       	st	Z, r1
	actualValues->BVPDCounter=0;
    2894:	32 96       	adiw	r30, 0x02	; 2
    2896:	11 82       	std	Z+1, r1	; 0x01
    2898:	10 82       	st	Z, r1
	
	actualValues->BufferCounter=0;
    289a:	32 96       	adiw	r30, 0x02	; 2
    289c:	11 82       	std	Z+1, r1	; 0x01
    289e:	10 82       	st	Z, r1
	actualValues->status=0;
    28a0:	c5 59       	subi	r28, 0x95	; 149
    28a2:	df 4f       	sbci	r29, 0xFF	; 255
    28a4:	18 82       	st	Y, r1
	
	can_new_message=0;
    28a6:	10 92 7c 02 	sts	0x027C, r1	; 0x80027c <can_new_message>
	can_new_interrupt=0;
    28aa:	10 92 5a 02 	sts	0x025A, r1	; 0x80025a <can_new_interrupt>
	send_always=1;
    28ae:	81 e0       	ldi	r24, 0x01	; 1
    28b0:	80 93 7f 02 	sts	0x027F, r24	; 0x80027f <send_always>
	message_request=0;
    28b4:	10 92 7b 02 	sts	0x027B, r1	; 0x80027b <message_request>
	intervall=10;
    28b8:	8a e0       	ldi	r24, 0x0A	; 10
    28ba:	90 e0       	ldi	r25, 0x00	; 0
    28bc:	a0 e0       	ldi	r26, 0x00	; 0
    28be:	b0 e0       	ldi	r27, 0x00	; 0
    28c0:	80 93 49 02 	sts	0x0249, r24	; 0x800249 <intervall>
    28c4:	90 93 4a 02 	sts	0x024A, r25	; 0x80024a <intervall+0x1>
    28c8:	a0 93 4b 02 	sts	0x024B, r26	; 0x80024b <intervall+0x2>
    28cc:	b0 93 4c 02 	sts	0x024C, r27	; 0x80024c <intervall+0x3>
	meansRequest=0;
    28d0:	10 92 78 02 	sts	0x0278, r1	; 0x800278 <meansRequest>
	CanErrorStatus=0;
    28d4:	10 92 6a 02 	sts	0x026A, r1	; 0x80026a <CanErrorStatus>
    28d8:	df 91       	pop	r29
    28da:	cf 91       	pop	r28
    28dc:	08 95       	ret

000028de <__vector_7>:


#include "include/Interrupts.h"

ISR(TIMER2_COMPA_vect)
{
    28de:	1f 92       	push	r1
    28e0:	0f 92       	push	r0
    28e2:	0f b6       	in	r0, 0x3f	; 63
    28e4:	0f 92       	push	r0
    28e6:	11 24       	eor	r1, r1
    28e8:	2f 93       	push	r18
    28ea:	8f 93       	push	r24
    28ec:	9f 93       	push	r25
    28ee:	af 93       	push	r26
    28f0:	bf 93       	push	r27
    milisecCounter++;
    28f2:	80 91 79 02 	lds	r24, 0x0279	; 0x800279 <milisecCounter>
    28f6:	90 91 7a 02 	lds	r25, 0x027A	; 0x80027a <milisecCounter+0x1>
    28fa:	01 96       	adiw	r24, 0x01	; 1
    28fc:	90 93 7a 02 	sts	0x027A, r25	; 0x80027a <milisecCounter+0x1>
    2900:	80 93 79 02 	sts	0x0279, r24	; 0x800279 <milisecCounter>
    if (milisecCounter>=997)
    2904:	80 91 79 02 	lds	r24, 0x0279	; 0x800279 <milisecCounter>
    2908:	90 91 7a 02 	lds	r25, 0x027A	; 0x80027a <milisecCounter+0x1>
    290c:	85 3e       	cpi	r24, 0xE5	; 229
    290e:	93 40       	sbci	r25, 0x03	; 3
    2910:	d0 f0       	brcs	.+52     	; 0x2946 <__vector_7+0x68>
    {
        milisecCounter=0;
    2912:	10 92 7a 02 	sts	0x027A, r1	; 0x80027a <milisecCounter+0x1>
    2916:	10 92 79 02 	sts	0x0279, r1	; 0x800279 <milisecCounter>
        tick=1;
    291a:	81 e0       	ldi	r24, 0x01	; 1
    291c:	80 93 73 02 	sts	0x0273, r24	; 0x800273 <tick>
        sTime.daySecs++;
    2920:	80 91 52 02 	lds	r24, 0x0252	; 0x800252 <sTime+0x1>
    2924:	90 91 53 02 	lds	r25, 0x0253	; 0x800253 <sTime+0x2>
    2928:	a0 91 54 02 	lds	r26, 0x0254	; 0x800254 <sTime+0x3>
    292c:	b0 91 55 02 	lds	r27, 0x0255	; 0x800255 <sTime+0x4>
    2930:	01 96       	adiw	r24, 0x01	; 1
    2932:	a1 1d       	adc	r26, r1
    2934:	b1 1d       	adc	r27, r1
    2936:	80 93 52 02 	sts	0x0252, r24	; 0x800252 <sTime+0x1>
    293a:	90 93 53 02 	sts	0x0253, r25	; 0x800253 <sTime+0x2>
    293e:	a0 93 54 02 	sts	0x0254, r26	; 0x800254 <sTime+0x3>
    2942:	b0 93 55 02 	sts	0x0255, r27	; 0x800255 <sTime+0x4>
	}

		
    if (entprellsperre)
    2946:	80 91 5b 02 	lds	r24, 0x025B	; 0x80025b <entprellsperre>
    294a:	88 23       	and	r24, r24
    294c:	29 f0       	breq	.+10     	; 0x2958 <__vector_7+0x7a>
    {
        entprellsperre--;
    294e:	80 91 5b 02 	lds	r24, 0x025B	; 0x80025b <entprellsperre>
    2952:	81 50       	subi	r24, 0x01	; 1
    2954:	80 93 5b 02 	sts	0x025B, r24	; 0x80025b <entprellsperre>
    }
    milisecCounter2++;
    2958:	80 91 76 02 	lds	r24, 0x0276	; 0x800276 <milisecCounter2>
    295c:	90 91 77 02 	lds	r25, 0x0277	; 0x800277 <milisecCounter2+0x1>
    2960:	01 96       	adiw	r24, 0x01	; 1
    2962:	90 93 77 02 	sts	0x0277, r25	; 0x800277 <milisecCounter2+0x1>
    2966:	80 93 76 02 	sts	0x0276, r24	; 0x800276 <milisecCounter2>
	milisecCounter3++;
    296a:	80 91 7d 02 	lds	r24, 0x027D	; 0x80027d <milisecCounter3>
    296e:	90 91 7e 02 	lds	r25, 0x027E	; 0x80027e <milisecCounter3+0x1>
    2972:	01 96       	adiw	r24, 0x01	; 1
    2974:	90 93 7e 02 	sts	0x027E, r25	; 0x80027e <milisecCounter3+0x1>
    2978:	80 93 7d 02 	sts	0x027D, r24	; 0x80027d <milisecCounter3>
	milisecCounter4++;
    297c:	80 91 5c 02 	lds	r24, 0x025C	; 0x80025c <milisecCounter4>
    2980:	90 91 5d 02 	lds	r25, 0x025D	; 0x80025d <milisecCounter4+0x1>
    2984:	01 96       	adiw	r24, 0x01	; 1
    2986:	90 93 5d 02 	sts	0x025D, r25	; 0x80025d <milisecCounter4+0x1>
    298a:	80 93 5c 02 	sts	0x025C, r24	; 0x80025c <milisecCounter4>
}
    298e:	bf 91       	pop	r27
    2990:	af 91       	pop	r26
    2992:	9f 91       	pop	r25
    2994:	8f 91       	pop	r24
    2996:	2f 91       	pop	r18
    2998:	0f 90       	pop	r0
    299a:	0f be       	out	0x3f, r0	; 63
    299c:	0f 90       	pop	r0
    299e:	1f 90       	pop	r1
    29a0:	18 95       	reti

000029a2 <__vector_1>:


ISR(INT0_vect)
{
    29a2:	1f 92       	push	r1
    29a4:	0f 92       	push	r0
    29a6:	0f b6       	in	r0, 0x3f	; 63
    29a8:	0f 92       	push	r0
    29aa:	11 24       	eor	r1, r1
    29ac:	8f 93       	push	r24
    29ae:	9f 93       	push	r25
    if (!entprellsperre)
    29b0:	80 91 5b 02 	lds	r24, 0x025B	; 0x80025b <entprellsperre>
    29b4:	81 11       	cpse	r24, r1
    29b6:	09 c0       	rjmp	.+18     	; 0x29ca <__vector_1+0x28>
    {
		entprellsperre=200;	
    29b8:	88 ec       	ldi	r24, 0xC8	; 200
    29ba:	80 93 5b 02 	sts	0x025B, r24	; 0x80025b <entprellsperre>
		send_always ^= (1<<0);
    29be:	90 91 7f 02 	lds	r25, 0x027F	; 0x80027f <send_always>
    29c2:	81 e0       	ldi	r24, 0x01	; 1
    29c4:	89 27       	eor	r24, r25
    29c6:	80 93 7f 02 	sts	0x027F, r24	; 0x80027f <send_always>
    }

    EIFR |= (1<<INT0);
    29ca:	e0 9a       	sbi	0x1c, 0	; 28
}
    29cc:	9f 91       	pop	r25
    29ce:	8f 91       	pop	r24
    29d0:	0f 90       	pop	r0
    29d2:	0f be       	out	0x3f, r0	; 63
    29d4:	0f 90       	pop	r0
    29d6:	1f 90       	pop	r1
    29d8:	18 95       	reti

000029da <__vector_2>:

ISR(INT1_vect)
{
    29da:	1f 92       	push	r1
    29dc:	0f 92       	push	r0
    29de:	0f b6       	in	r0, 0x3f	; 63
    29e0:	0f 92       	push	r0
    29e2:	11 24       	eor	r1, r1
    29e4:	8f 93       	push	r24
		can_new_interrupt=1;
    29e6:	81 e0       	ldi	r24, 0x01	; 1
    29e8:	80 93 5a 02 	sts	0x025A, r24	; 0x80025a <can_new_interrupt>
}
    29ec:	8f 91       	pop	r24
    29ee:	0f 90       	pop	r0
    29f0:	0f be       	out	0x3f, r0	; 63
    29f2:	0f 90       	pop	r0
    29f4:	1f 90       	pop	r1
    29f6:	18 95       	reti

000029f8 <main>:

#include "include/sensorBoard.h"

int main(void)
{
    29f8:	cf 93       	push	r28
    29fa:	df 93       	push	r29
    29fc:	cd b7       	in	r28, 0x3d	; 61
    29fe:	de b7       	in	r29, 0x3e	; 62
    2a00:	cc 56       	subi	r28, 0x6C	; 108
    2a02:	d1 09       	sbc	r29, r1
    2a04:	0f b6       	in	r0, 0x3f	; 63
    2a06:	f8 94       	cli
    2a08:	de bf       	out	0x3e, r29	; 62
    2a0a:	0f be       	out	0x3f, r0	; 63
    2a0c:	cd bf       	out	0x3d, r28	; 61
	volatile sensValues actualValues;
	
	init(&actualValues);
    2a0e:	ce 01       	movw	r24, r28
    2a10:	01 96       	adiw	r24, 0x01	; 1
    2a12:	0e 94 47 13 	call	0x268e	; 0x268e <init>

	simple_delay(10<<senderID);
    2a16:	84 e1       	ldi	r24, 0x14	; 20
    2a18:	90 e0       	ldi	r25, 0x00	; 0
    2a1a:	0e 94 7e 15 	call	0x2afc	; 0x2afc <simple_delay>
    2a1e:	12 e3       	ldi	r17, 0x32	; 50

	uint8_t i=0;
	do
	{
		i++;
		bmp_get_cal();
    2a20:	0e 94 7e 02 	call	0x4fc	; 0x4fc <bmp_get_cal>
		simple_delay(10);
    2a24:	8a e0       	ldi	r24, 0x0A	; 10
    2a26:	90 e0       	ldi	r25, 0x00	; 0
    2a28:	0e 94 7e 15 	call	0x2afc	; 0x2afc <simple_delay>
	} while ( (AC1==0) && (i<50) );
    2a2c:	80 91 4d 02 	lds	r24, 0x024D	; 0x80024d <AC1>
    2a30:	90 91 4e 02 	lds	r25, 0x024E	; 0x80024e <AC1+0x1>
    2a34:	89 2b       	or	r24, r25
    2a36:	11 f4       	brne	.+4      	; 0x2a3c <main+0x44>
    2a38:	11 50       	subi	r17, 0x01	; 1
    2a3a:	91 f7       	brne	.-28     	; 0x2a20 <main+0x28>
				receive_command();
			}
			
			if (send_always)
			{
				message_request=1;
    2a3c:	11 e0       	ldi	r17, 0x01	; 1


	while(1)
	{
		
		if(can_new_interrupt)
    2a3e:	80 91 5a 02 	lds	r24, 0x025A	; 0x80025a <can_new_interrupt>
    2a42:	88 23       	and	r24, r24
    2a44:	21 f0       	breq	.+8      	; 0x2a4e <main+0x56>
		{
			handleCanMessage(&actualValues);
    2a46:	ce 01       	movw	r24, r28
    2a48:	01 96       	adiw	r24, 0x01	; 1
    2a4a:	0e 94 a4 07 	call	0xf48	; 0xf48 <handleCanMessage>
		}
		
		if (message_request)
    2a4e:	80 91 7b 02 	lds	r24, 0x027B	; 0x80027b <message_request>
    2a52:	88 23       	and	r24, r24
    2a54:	09 f4       	brne	.+2      	; 0x2a58 <main+0x60>
    2a56:	3f c0       	rjmp	.+126    	; 0x2ad6 <main+0xde>
		{
			
			getValues(&actualValues);			
    2a58:	ce 01       	movw	r24, r28
    2a5a:	01 96       	adiw	r24, 0x01	; 1
    2a5c:	0e 94 b7 0a 	call	0x156e	; 0x156e <getValues>
			sendValuesViaCan(actualValues);
    2a60:	8d b7       	in	r24, 0x3d	; 61
    2a62:	9e b7       	in	r25, 0x3e	; 62
    2a64:	8c 56       	subi	r24, 0x6C	; 108
    2a66:	91 09       	sbc	r25, r1
    2a68:	0f b6       	in	r0, 0x3f	; 63
    2a6a:	f8 94       	cli
    2a6c:	9e bf       	out	0x3e, r25	; 62
    2a6e:	0f be       	out	0x3f, r0	; 63
    2a70:	8d bf       	out	0x3d, r24	; 61
    2a72:	ad b7       	in	r26, 0x3d	; 61
    2a74:	be b7       	in	r27, 0x3e	; 62
    2a76:	11 96       	adiw	r26, 0x01	; 1
    2a78:	8c e6       	ldi	r24, 0x6C	; 108
    2a7a:	fe 01       	movw	r30, r28
    2a7c:	31 96       	adiw	r30, 0x01	; 1
    2a7e:	01 90       	ld	r0, Z+
    2a80:	0d 92       	st	X+, r0
    2a82:	8a 95       	dec	r24
    2a84:	e1 f7       	brne	.-8      	; 0x2a7e <main+0x86>
    2a86:	0e 94 02 08 	call	0x1004	; 0x1004 <sendValuesViaCan>
			sendValuesViaUart(actualValues);
    2a8a:	8d b7       	in	r24, 0x3d	; 61
    2a8c:	9e b7       	in	r25, 0x3e	; 62
    2a8e:	84 59       	subi	r24, 0x94	; 148
    2a90:	9f 4f       	sbci	r25, 0xFF	; 255
    2a92:	0f b6       	in	r0, 0x3f	; 63
    2a94:	f8 94       	cli
    2a96:	de bf       	out	0x3e, r29	; 62
    2a98:	0f be       	out	0x3f, r0	; 63
    2a9a:	cd bf       	out	0x3d, r28	; 61
    2a9c:	8c 56       	subi	r24, 0x6C	; 108
    2a9e:	91 09       	sbc	r25, r1
    2aa0:	0f b6       	in	r0, 0x3f	; 63
    2aa2:	f8 94       	cli
    2aa4:	9e bf       	out	0x3e, r25	; 62
    2aa6:	0f be       	out	0x3f, r0	; 63
    2aa8:	8d bf       	out	0x3d, r24	; 61
    2aaa:	ad b7       	in	r26, 0x3d	; 61
    2aac:	be b7       	in	r27, 0x3e	; 62
    2aae:	11 96       	adiw	r26, 0x01	; 1
    2ab0:	8c e6       	ldi	r24, 0x6C	; 108
    2ab2:	fe 01       	movw	r30, r28
    2ab4:	31 96       	adiw	r30, 0x01	; 1
    2ab6:	01 90       	ld	r0, Z+
    2ab8:	0d 92       	st	X+, r0
    2aba:	8a 95       	dec	r24
    2abc:	e1 f7       	brne	.-8      	; 0x2ab6 <main+0xbe>
    2abe:	0e 94 2e 09 	call	0x125c	; 0x125c <sendValuesViaUart>
			message_request=0;
    2ac2:	10 92 7b 02 	sts	0x027B, r1	; 0x80027b <message_request>
			PORTD ^=  (1<<PD7);
    2ac6:	8b b1       	in	r24, 0x0b	; 11
    2ac8:	80 58       	subi	r24, 0x80	; 128
    2aca:	8b b9       	out	0x0b, r24	; 11
    2acc:	0f b6       	in	r0, 0x3f	; 63
    2ace:	f8 94       	cli
    2ad0:	de bf       	out	0x3e, r29	; 62
    2ad2:	0f be       	out	0x3f, r0	; 63
    2ad4:	cd bf       	out	0x3d, r28	; 61
		}


		
		
		if (tick)
    2ad6:	80 91 73 02 	lds	r24, 0x0273	; 0x800273 <tick>
    2ada:	88 23       	and	r24, r24
    2adc:	09 f4       	brne	.+2      	; 0x2ae0 <main+0xe8>
    2ade:	af cf       	rjmp	.-162    	; 0x2a3e <main+0x46>
		{
			if (uart_struct.uart_state == string_complete)
    2ae0:	80 91 1a 02 	lds	r24, 0x021A	; 0x80021a <__data_end>
    2ae4:	82 30       	cpi	r24, 0x02	; 2
    2ae6:	11 f4       	brne	.+4      	; 0x2aec <main+0xf4>
			{
				receive_command();
    2ae8:	0e 94 66 11 	call	0x22cc	; 0x22cc <receive_command>
			}
			
			if (send_always)
    2aec:	80 91 7f 02 	lds	r24, 0x027F	; 0x80027f <send_always>
    2af0:	81 11       	cpse	r24, r1
			{
				message_request=1;
    2af2:	10 93 7b 02 	sts	0x027B, r17	; 0x80027b <message_request>
			}
			tick=0;
    2af6:	10 92 73 02 	sts	0x0273, r1	; 0x800273 <tick>
    2afa:	a1 cf       	rjmp	.-190    	; 0x2a3e <main+0x46>

00002afc <simple_delay>:

#include "include/simple_delay.h"

void simple_delay (uint16_t delayTime)
{
	milisecCounter4=0;
    2afc:	10 92 5d 02 	sts	0x025D, r1	; 0x80025d <milisecCounter4+0x1>
    2b00:	10 92 5c 02 	sts	0x025C, r1	; 0x80025c <milisecCounter4>
	while (milisecCounter4<delayTime)
    2b04:	20 91 5c 02 	lds	r18, 0x025C	; 0x80025c <milisecCounter4>
    2b08:	30 91 5d 02 	lds	r19, 0x025D	; 0x80025d <milisecCounter4+0x1>
    2b0c:	28 17       	cp	r18, r24
    2b0e:	39 07       	cpc	r19, r25
    2b10:	c8 f3       	brcs	.-14     	; 0x2b04 <simple_delay+0x8>
	{
		
	}
    2b12:	08 95       	ret

00002b14 <spi_init>:

void spi_init()
{
	// Aktivieren der Pins fr das SPI Interface
	
	DDRB   |= (1<<DDB2);
    2b14:	22 9a       	sbi	0x04, 2	; 4
	PORTB  |= (1<<PB2);	
    2b16:	2a 9a       	sbi	0x05, 2	; 5
	
	DDRB  |= (1<<DDB3) | (1<<DDB5);
    2b18:	84 b1       	in	r24, 0x04	; 4
    2b1a:	88 62       	ori	r24, 0x28	; 40
    2b1c:	84 b9       	out	0x04, r24	; 4
	PORTB &= ~( (1<<PB3) | (1<<PB4) | (1<<PB5) );
    2b1e:	85 b1       	in	r24, 0x05	; 5
    2b20:	87 7c       	andi	r24, 0xC7	; 199
    2b22:	85 b9       	out	0x05, r24	; 5
	

	
	// Aktivieren des SPI Master Interfaces, fosc = fclk / 16
	SPCR = ( (1<<SPE) | (1<<MSTR)  |(0<<SPR0) );
    2b24:	80 e5       	ldi	r24, 0x50	; 80
    2b26:	8c bd       	out	0x2c, r24	; 44
	SPSR = (1<<SPI2X);
    2b28:	81 e0       	ldi	r24, 0x01	; 1
    2b2a:	8d bd       	out	0x2d, r24	; 45
    2b2c:	08 95       	ret

00002b2e <spi_put_c>:
}


uint8_t spi_put_c( uint8_t data )
{
		while( ( SPSR & (1<<SPIF) ) )
    2b2e:	0d b4       	in	r0, 0x2d	; 45
    2b30:	07 fc       	sbrc	r0, 7
    2b32:	fd cf       	rjmp	.-6      	; 0x2b2e <spi_put_c>
		{
		}
	
		SPDR = data;
    2b34:	8e bd       	out	0x2e, r24	; 46

		while( !( SPSR & (1<<SPIF) ) )
    2b36:	0d b4       	in	r0, 0x2d	; 45
    2b38:	07 fe       	sbrs	r0, 7
    2b3a:	fd cf       	rjmp	.-6      	; 0x2b36 <spi_put_c+0x8>
		{
		}
				
		return SPDR;
    2b3c:	8e b5       	in	r24, 0x2e	; 46
}
    2b3e:	08 95       	ret

00002b40 <uart_init>:
{
    while (!(UCSR0A & (1 << RXC0)));
    {
    }
    return UDR0;
}
    2b40:	90 93 c5 00 	sts	0x00C5, r25	; 0x8000c5 <__DATA_REGION_ORIGIN__+0x65>
    2b44:	80 93 c4 00 	sts	0x00C4, r24	; 0x8000c4 <__DATA_REGION_ORIGIN__+0x64>
    2b48:	e1 ec       	ldi	r30, 0xC1	; 193
    2b4a:	f0 e0       	ldi	r31, 0x00	; 0
    2b4c:	80 81       	ld	r24, Z
    2b4e:	88 69       	ori	r24, 0x98	; 152
    2b50:	80 83       	st	Z, r24
    2b52:	e2 ec       	ldi	r30, 0xC2	; 194
    2b54:	f0 e0       	ldi	r31, 0x00	; 0
    2b56:	80 81       	ld	r24, Z
    2b58:	8e 60       	ori	r24, 0x0E	; 14
    2b5a:	80 83       	st	Z, r24
    2b5c:	08 95       	ret

00002b5e <uart_put_c>:
    2b5e:	90 91 c0 00 	lds	r25, 0x00C0	; 0x8000c0 <__DATA_REGION_ORIGIN__+0x60>
    2b62:	95 ff       	sbrs	r25, 5
    2b64:	fc cf       	rjmp	.-8      	; 0x2b5e <uart_put_c>
    2b66:	80 93 c6 00 	sts	0x00C6, r24	; 0x8000c6 <__DATA_REGION_ORIGIN__+0x66>
    2b6a:	08 95       	ret

00002b6c <uart_put_s>:
    2b6c:	cf 93       	push	r28
    2b6e:	df 93       	push	r29
    2b70:	ec 01       	movw	r28, r24
    2b72:	89 91       	ld	r24, Y+
    2b74:	88 23       	and	r24, r24
    2b76:	19 f0       	breq	.+6      	; 0x2b7e <uart_put_s+0x12>
    2b78:	0e 94 af 15 	call	0x2b5e	; 0x2b5e <uart_put_c>
    2b7c:	fa cf       	rjmp	.-12     	; 0x2b72 <uart_put_s+0x6>
    2b7e:	df 91       	pop	r29
    2b80:	cf 91       	pop	r28
    2b82:	08 95       	ret

00002b84 <__vector_18>:

ISR(USART_RX_vect)
{
    2b84:	1f 92       	push	r1
    2b86:	0f 92       	push	r0
    2b88:	0f b6       	in	r0, 0x3f	; 63
    2b8a:	0f 92       	push	r0
    2b8c:	11 24       	eor	r1, r1
    2b8e:	8f 93       	push	r24
    2b90:	9f 93       	push	r25
    2b92:	ef 93       	push	r30
    2b94:	ff 93       	push	r31
    unsigned char temp=UDR0;
    2b96:	80 91 c6 00 	lds	r24, 0x00C6	; 0x8000c6 <__DATA_REGION_ORIGIN__+0x66>

    switch (temp)
    2b9a:	88 23       	and	r24, r24
    2b9c:	31 f0       	breq	.+12     	; 0x2baa <__vector_18+0x26>
    2b9e:	83 32       	cpi	r24, 0x23	; 35
    2ba0:	19 f5       	brne	.+70     	; 0x2be8 <__vector_18+0x64>
    {
    case '#':
        uart_struct.uart_state=rec_value;
    2ba2:	81 e0       	ldi	r24, 0x01	; 1
    2ba4:	80 93 1a 02 	sts	0x021A, r24	; 0x80021a <__data_end>
    2ba8:	3c c0       	rjmp	.+120    	; 0x2c22 <__vector_18+0x9e>
        uart_struct.buffer_count=0;
        break;

    case '\0':
        if (uart_struct.uart_state==rec_value && uart_struct.buffer_count>=1)
    2baa:	80 91 1a 02 	lds	r24, 0x021A	; 0x80021a <__data_end>
    2bae:	81 30       	cpi	r24, 0x01	; 1
    2bb0:	91 f4       	brne	.+36     	; 0x2bd6 <__vector_18+0x52>
    2bb2:	80 91 1b 02 	lds	r24, 0x021B	; 0x80021b <__data_end+0x1>
    2bb6:	88 23       	and	r24, r24
    2bb8:	71 f0       	breq	.+28     	; 0x2bd6 <__vector_18+0x52>
        {
            uart_struct.uart_buffer[uart_struct.buffer_count]=temp;
    2bba:	e0 91 1b 02 	lds	r30, 0x021B	; 0x80021b <__data_end+0x1>
    2bbe:	f0 e0       	ldi	r31, 0x00	; 0
    2bc0:	e6 5e       	subi	r30, 0xE6	; 230
    2bc2:	fd 4f       	sbci	r31, 0xFD	; 253
    2bc4:	12 82       	std	Z+2, r1	; 0x02
            uart_struct.uart_state=string_complete;
    2bc6:	82 e0       	ldi	r24, 0x02	; 2
    2bc8:	80 93 1a 02 	sts	0x021A, r24	; 0x80021a <__data_end>
            uart_struct.buffer_count++;
    2bcc:	80 91 1b 02 	lds	r24, 0x021B	; 0x80021b <__data_end+0x1>
    2bd0:	8f 5f       	subi	r24, 0xFF	; 255
    2bd2:	80 93 1b 02 	sts	0x021B, r24	; 0x80021b <__data_end+0x1>
        }
        if (uart_struct.uart_state==rec_value && uart_struct.buffer_count<1)
    2bd6:	80 91 1a 02 	lds	r24, 0x021A	; 0x80021a <__data_end>
    2bda:	81 30       	cpi	r24, 0x01	; 1
    2bdc:	21 f5       	brne	.+72     	; 0x2c26 <__vector_18+0xa2>
    2bde:	80 91 1b 02 	lds	r24, 0x021B	; 0x80021b <__data_end+0x1>
    2be2:	81 11       	cpse	r24, r1
    2be4:	20 c0       	rjmp	.+64     	; 0x2c26 <__vector_18+0xa2>
    2be6:	1b c0       	rjmp	.+54     	; 0x2c1e <__vector_18+0x9a>
        }
        break;

    default:

        if (uart_struct.uart_state==rec_value && uart_struct.buffer_count<=9)
    2be8:	90 91 1a 02 	lds	r25, 0x021A	; 0x80021a <__data_end>
    2bec:	91 30       	cpi	r25, 0x01	; 1
    2bee:	79 f4       	brne	.+30     	; 0x2c0e <__vector_18+0x8a>
    2bf0:	90 91 1b 02 	lds	r25, 0x021B	; 0x80021b <__data_end+0x1>
    2bf4:	9a 30       	cpi	r25, 0x0A	; 10
    2bf6:	58 f4       	brcc	.+22     	; 0x2c0e <__vector_18+0x8a>
        {
            uart_struct.uart_buffer[uart_struct.buffer_count]=temp;
    2bf8:	e0 91 1b 02 	lds	r30, 0x021B	; 0x80021b <__data_end+0x1>
    2bfc:	f0 e0       	ldi	r31, 0x00	; 0
    2bfe:	e6 5e       	subi	r30, 0xE6	; 230
    2c00:	fd 4f       	sbci	r31, 0xFD	; 253
    2c02:	82 83       	std	Z+2, r24	; 0x02
            uart_struct.buffer_count++;
    2c04:	80 91 1b 02 	lds	r24, 0x021B	; 0x80021b <__data_end+0x1>
    2c08:	8f 5f       	subi	r24, 0xFF	; 255
    2c0a:	80 93 1b 02 	sts	0x021B, r24	; 0x80021b <__data_end+0x1>
        }
        if (uart_struct.uart_state==rec_value && uart_struct.buffer_count>9)
    2c0e:	80 91 1a 02 	lds	r24, 0x021A	; 0x80021a <__data_end>
    2c12:	81 30       	cpi	r24, 0x01	; 1
    2c14:	41 f4       	brne	.+16     	; 0x2c26 <__vector_18+0xa2>
    2c16:	80 91 1b 02 	lds	r24, 0x021B	; 0x80021b <__data_end+0x1>
    2c1a:	8a 30       	cpi	r24, 0x0A	; 10
    2c1c:	20 f0       	brcs	.+8      	; 0x2c26 <__vector_18+0xa2>
        {
            uart_struct.uart_state=no_string;
    2c1e:	10 92 1a 02 	sts	0x021A, r1	; 0x80021a <__data_end>
            uart_struct.buffer_count=0;
    2c22:	10 92 1b 02 	sts	0x021B, r1	; 0x80021b <__data_end+0x1>
        }
    }
}
    2c26:	ff 91       	pop	r31
    2c28:	ef 91       	pop	r30
    2c2a:	9f 91       	pop	r25
    2c2c:	8f 91       	pop	r24
    2c2e:	0f 90       	pop	r0
    2c30:	0f be       	out	0x3f, r0	; 63
    2c32:	0f 90       	pop	r0
    2c34:	1f 90       	pop	r1
    2c36:	18 95       	reti

00002c38 <__subsf3>:
    2c38:	50 58       	subi	r21, 0x80	; 128

00002c3a <__addsf3>:
    2c3a:	bb 27       	eor	r27, r27
    2c3c:	aa 27       	eor	r26, r26
    2c3e:	0e 94 34 16 	call	0x2c68	; 0x2c68 <__addsf3x>
    2c42:	0c 94 e6 17 	jmp	0x2fcc	; 0x2fcc <__fp_round>
    2c46:	0e 94 d8 17 	call	0x2fb0	; 0x2fb0 <__fp_pscA>
    2c4a:	38 f0       	brcs	.+14     	; 0x2c5a <__addsf3+0x20>
    2c4c:	0e 94 df 17 	call	0x2fbe	; 0x2fbe <__fp_pscB>
    2c50:	20 f0       	brcs	.+8      	; 0x2c5a <__addsf3+0x20>
    2c52:	39 f4       	brne	.+14     	; 0x2c62 <__addsf3+0x28>
    2c54:	9f 3f       	cpi	r25, 0xFF	; 255
    2c56:	19 f4       	brne	.+6      	; 0x2c5e <__addsf3+0x24>
    2c58:	26 f4       	brtc	.+8      	; 0x2c62 <__addsf3+0x28>
    2c5a:	0c 94 ae 17 	jmp	0x2f5c	; 0x2f5c <__fp_nan>
    2c5e:	0e f4       	brtc	.+2      	; 0x2c62 <__addsf3+0x28>
    2c60:	e0 95       	com	r30
    2c62:	e7 fb       	bst	r30, 7
    2c64:	0c 94 a8 17 	jmp	0x2f50	; 0x2f50 <__fp_inf>

00002c68 <__addsf3x>:
    2c68:	e9 2f       	mov	r30, r25
    2c6a:	0e 94 f7 17 	call	0x2fee	; 0x2fee <__fp_split3>
    2c6e:	58 f3       	brcs	.-42     	; 0x2c46 <__addsf3+0xc>
    2c70:	ba 17       	cp	r27, r26
    2c72:	62 07       	cpc	r22, r18
    2c74:	73 07       	cpc	r23, r19
    2c76:	84 07       	cpc	r24, r20
    2c78:	95 07       	cpc	r25, r21
    2c7a:	20 f0       	brcs	.+8      	; 0x2c84 <__addsf3x+0x1c>
    2c7c:	79 f4       	brne	.+30     	; 0x2c9c <__addsf3x+0x34>
    2c7e:	a6 f5       	brtc	.+104    	; 0x2ce8 <__addsf3x+0x80>
    2c80:	0c 94 19 18 	jmp	0x3032	; 0x3032 <__fp_zero>
    2c84:	0e f4       	brtc	.+2      	; 0x2c88 <__addsf3x+0x20>
    2c86:	e0 95       	com	r30
    2c88:	0b 2e       	mov	r0, r27
    2c8a:	ba 2f       	mov	r27, r26
    2c8c:	a0 2d       	mov	r26, r0
    2c8e:	0b 01       	movw	r0, r22
    2c90:	b9 01       	movw	r22, r18
    2c92:	90 01       	movw	r18, r0
    2c94:	0c 01       	movw	r0, r24
    2c96:	ca 01       	movw	r24, r20
    2c98:	a0 01       	movw	r20, r0
    2c9a:	11 24       	eor	r1, r1
    2c9c:	ff 27       	eor	r31, r31
    2c9e:	59 1b       	sub	r21, r25
    2ca0:	99 f0       	breq	.+38     	; 0x2cc8 <__addsf3x+0x60>
    2ca2:	59 3f       	cpi	r21, 0xF9	; 249
    2ca4:	50 f4       	brcc	.+20     	; 0x2cba <__addsf3x+0x52>
    2ca6:	50 3e       	cpi	r21, 0xE0	; 224
    2ca8:	68 f1       	brcs	.+90     	; 0x2d04 <__addsf3x+0x9c>
    2caa:	1a 16       	cp	r1, r26
    2cac:	f0 40       	sbci	r31, 0x00	; 0
    2cae:	a2 2f       	mov	r26, r18
    2cb0:	23 2f       	mov	r18, r19
    2cb2:	34 2f       	mov	r19, r20
    2cb4:	44 27       	eor	r20, r20
    2cb6:	58 5f       	subi	r21, 0xF8	; 248
    2cb8:	f3 cf       	rjmp	.-26     	; 0x2ca0 <__addsf3x+0x38>
    2cba:	46 95       	lsr	r20
    2cbc:	37 95       	ror	r19
    2cbe:	27 95       	ror	r18
    2cc0:	a7 95       	ror	r26
    2cc2:	f0 40       	sbci	r31, 0x00	; 0
    2cc4:	53 95       	inc	r21
    2cc6:	c9 f7       	brne	.-14     	; 0x2cba <__addsf3x+0x52>
    2cc8:	7e f4       	brtc	.+30     	; 0x2ce8 <__addsf3x+0x80>
    2cca:	1f 16       	cp	r1, r31
    2ccc:	ba 0b       	sbc	r27, r26
    2cce:	62 0b       	sbc	r22, r18
    2cd0:	73 0b       	sbc	r23, r19
    2cd2:	84 0b       	sbc	r24, r20
    2cd4:	ba f0       	brmi	.+46     	; 0x2d04 <__addsf3x+0x9c>
    2cd6:	91 50       	subi	r25, 0x01	; 1
    2cd8:	a1 f0       	breq	.+40     	; 0x2d02 <__addsf3x+0x9a>
    2cda:	ff 0f       	add	r31, r31
    2cdc:	bb 1f       	adc	r27, r27
    2cde:	66 1f       	adc	r22, r22
    2ce0:	77 1f       	adc	r23, r23
    2ce2:	88 1f       	adc	r24, r24
    2ce4:	c2 f7       	brpl	.-16     	; 0x2cd6 <__addsf3x+0x6e>
    2ce6:	0e c0       	rjmp	.+28     	; 0x2d04 <__addsf3x+0x9c>
    2ce8:	ba 0f       	add	r27, r26
    2cea:	62 1f       	adc	r22, r18
    2cec:	73 1f       	adc	r23, r19
    2cee:	84 1f       	adc	r24, r20
    2cf0:	48 f4       	brcc	.+18     	; 0x2d04 <__addsf3x+0x9c>
    2cf2:	87 95       	ror	r24
    2cf4:	77 95       	ror	r23
    2cf6:	67 95       	ror	r22
    2cf8:	b7 95       	ror	r27
    2cfa:	f7 95       	ror	r31
    2cfc:	9e 3f       	cpi	r25, 0xFE	; 254
    2cfe:	08 f0       	brcs	.+2      	; 0x2d02 <__addsf3x+0x9a>
    2d00:	b0 cf       	rjmp	.-160    	; 0x2c62 <__addsf3+0x28>
    2d02:	93 95       	inc	r25
    2d04:	88 0f       	add	r24, r24
    2d06:	08 f0       	brcs	.+2      	; 0x2d0a <__addsf3x+0xa2>
    2d08:	99 27       	eor	r25, r25
    2d0a:	ee 0f       	add	r30, r30
    2d0c:	97 95       	ror	r25
    2d0e:	87 95       	ror	r24
    2d10:	08 95       	ret

00002d12 <__divsf3>:
    2d12:	0e 94 9d 16 	call	0x2d3a	; 0x2d3a <__divsf3x>
    2d16:	0c 94 e6 17 	jmp	0x2fcc	; 0x2fcc <__fp_round>
    2d1a:	0e 94 df 17 	call	0x2fbe	; 0x2fbe <__fp_pscB>
    2d1e:	58 f0       	brcs	.+22     	; 0x2d36 <__divsf3+0x24>
    2d20:	0e 94 d8 17 	call	0x2fb0	; 0x2fb0 <__fp_pscA>
    2d24:	40 f0       	brcs	.+16     	; 0x2d36 <__divsf3+0x24>
    2d26:	29 f4       	brne	.+10     	; 0x2d32 <__divsf3+0x20>
    2d28:	5f 3f       	cpi	r21, 0xFF	; 255
    2d2a:	29 f0       	breq	.+10     	; 0x2d36 <__divsf3+0x24>
    2d2c:	0c 94 a8 17 	jmp	0x2f50	; 0x2f50 <__fp_inf>
    2d30:	51 11       	cpse	r21, r1
    2d32:	0c 94 1a 18 	jmp	0x3034	; 0x3034 <__fp_szero>
    2d36:	0c 94 ae 17 	jmp	0x2f5c	; 0x2f5c <__fp_nan>

00002d3a <__divsf3x>:
    2d3a:	0e 94 f7 17 	call	0x2fee	; 0x2fee <__fp_split3>
    2d3e:	68 f3       	brcs	.-38     	; 0x2d1a <__divsf3+0x8>

00002d40 <__divsf3_pse>:
    2d40:	99 23       	and	r25, r25
    2d42:	b1 f3       	breq	.-20     	; 0x2d30 <__divsf3+0x1e>
    2d44:	55 23       	and	r21, r21
    2d46:	91 f3       	breq	.-28     	; 0x2d2c <__divsf3+0x1a>
    2d48:	95 1b       	sub	r25, r21
    2d4a:	55 0b       	sbc	r21, r21
    2d4c:	bb 27       	eor	r27, r27
    2d4e:	aa 27       	eor	r26, r26
    2d50:	62 17       	cp	r22, r18
    2d52:	73 07       	cpc	r23, r19
    2d54:	84 07       	cpc	r24, r20
    2d56:	38 f0       	brcs	.+14     	; 0x2d66 <__divsf3_pse+0x26>
    2d58:	9f 5f       	subi	r25, 0xFF	; 255
    2d5a:	5f 4f       	sbci	r21, 0xFF	; 255
    2d5c:	22 0f       	add	r18, r18
    2d5e:	33 1f       	adc	r19, r19
    2d60:	44 1f       	adc	r20, r20
    2d62:	aa 1f       	adc	r26, r26
    2d64:	a9 f3       	breq	.-22     	; 0x2d50 <__divsf3_pse+0x10>
    2d66:	35 d0       	rcall	.+106    	; 0x2dd2 <__divsf3_pse+0x92>
    2d68:	0e 2e       	mov	r0, r30
    2d6a:	3a f0       	brmi	.+14     	; 0x2d7a <__divsf3_pse+0x3a>
    2d6c:	e0 e8       	ldi	r30, 0x80	; 128
    2d6e:	32 d0       	rcall	.+100    	; 0x2dd4 <__divsf3_pse+0x94>
    2d70:	91 50       	subi	r25, 0x01	; 1
    2d72:	50 40       	sbci	r21, 0x00	; 0
    2d74:	e6 95       	lsr	r30
    2d76:	00 1c       	adc	r0, r0
    2d78:	ca f7       	brpl	.-14     	; 0x2d6c <__divsf3_pse+0x2c>
    2d7a:	2b d0       	rcall	.+86     	; 0x2dd2 <__divsf3_pse+0x92>
    2d7c:	fe 2f       	mov	r31, r30
    2d7e:	29 d0       	rcall	.+82     	; 0x2dd2 <__divsf3_pse+0x92>
    2d80:	66 0f       	add	r22, r22
    2d82:	77 1f       	adc	r23, r23
    2d84:	88 1f       	adc	r24, r24
    2d86:	bb 1f       	adc	r27, r27
    2d88:	26 17       	cp	r18, r22
    2d8a:	37 07       	cpc	r19, r23
    2d8c:	48 07       	cpc	r20, r24
    2d8e:	ab 07       	cpc	r26, r27
    2d90:	b0 e8       	ldi	r27, 0x80	; 128
    2d92:	09 f0       	breq	.+2      	; 0x2d96 <__divsf3_pse+0x56>
    2d94:	bb 0b       	sbc	r27, r27
    2d96:	80 2d       	mov	r24, r0
    2d98:	bf 01       	movw	r22, r30
    2d9a:	ff 27       	eor	r31, r31
    2d9c:	93 58       	subi	r25, 0x83	; 131
    2d9e:	5f 4f       	sbci	r21, 0xFF	; 255
    2da0:	3a f0       	brmi	.+14     	; 0x2db0 <__divsf3_pse+0x70>
    2da2:	9e 3f       	cpi	r25, 0xFE	; 254
    2da4:	51 05       	cpc	r21, r1
    2da6:	78 f0       	brcs	.+30     	; 0x2dc6 <__divsf3_pse+0x86>
    2da8:	0c 94 a8 17 	jmp	0x2f50	; 0x2f50 <__fp_inf>
    2dac:	0c 94 1a 18 	jmp	0x3034	; 0x3034 <__fp_szero>
    2db0:	5f 3f       	cpi	r21, 0xFF	; 255
    2db2:	e4 f3       	brlt	.-8      	; 0x2dac <__divsf3_pse+0x6c>
    2db4:	98 3e       	cpi	r25, 0xE8	; 232
    2db6:	d4 f3       	brlt	.-12     	; 0x2dac <__divsf3_pse+0x6c>
    2db8:	86 95       	lsr	r24
    2dba:	77 95       	ror	r23
    2dbc:	67 95       	ror	r22
    2dbe:	b7 95       	ror	r27
    2dc0:	f7 95       	ror	r31
    2dc2:	9f 5f       	subi	r25, 0xFF	; 255
    2dc4:	c9 f7       	brne	.-14     	; 0x2db8 <__divsf3_pse+0x78>
    2dc6:	88 0f       	add	r24, r24
    2dc8:	91 1d       	adc	r25, r1
    2dca:	96 95       	lsr	r25
    2dcc:	87 95       	ror	r24
    2dce:	97 f9       	bld	r25, 7
    2dd0:	08 95       	ret
    2dd2:	e1 e0       	ldi	r30, 0x01	; 1
    2dd4:	66 0f       	add	r22, r22
    2dd6:	77 1f       	adc	r23, r23
    2dd8:	88 1f       	adc	r24, r24
    2dda:	bb 1f       	adc	r27, r27
    2ddc:	62 17       	cp	r22, r18
    2dde:	73 07       	cpc	r23, r19
    2de0:	84 07       	cpc	r24, r20
    2de2:	ba 07       	cpc	r27, r26
    2de4:	20 f0       	brcs	.+8      	; 0x2dee <__divsf3_pse+0xae>
    2de6:	62 1b       	sub	r22, r18
    2de8:	73 0b       	sbc	r23, r19
    2dea:	84 0b       	sbc	r24, r20
    2dec:	ba 0b       	sbc	r27, r26
    2dee:	ee 1f       	adc	r30, r30
    2df0:	88 f7       	brcc	.-30     	; 0x2dd4 <__divsf3_pse+0x94>
    2df2:	e0 95       	com	r30
    2df4:	08 95       	ret
    2df6:	29 f4       	brne	.+10     	; 0x2e02 <__divsf3_pse+0xc2>
    2df8:	16 f0       	brts	.+4      	; 0x2dfe <__divsf3_pse+0xbe>
    2dfa:	0c 94 a8 17 	jmp	0x2f50	; 0x2f50 <__fp_inf>
    2dfe:	0c 94 19 18 	jmp	0x3032	; 0x3032 <__fp_zero>
    2e02:	0c 94 ae 17 	jmp	0x2f5c	; 0x2f5c <__fp_nan>

00002e06 <exp>:
    2e06:	0e 94 ff 17 	call	0x2ffe	; 0x2ffe <__fp_splitA>
    2e0a:	a8 f3       	brcs	.-22     	; 0x2df6 <__divsf3_pse+0xb6>
    2e0c:	96 38       	cpi	r25, 0x86	; 134
    2e0e:	a0 f7       	brcc	.-24     	; 0x2df8 <__divsf3_pse+0xb8>
    2e10:	07 f8       	bld	r0, 7
    2e12:	0f 92       	push	r0
    2e14:	e8 94       	clt
    2e16:	2b e3       	ldi	r18, 0x3B	; 59
    2e18:	3a ea       	ldi	r19, 0xAA	; 170
    2e1a:	48 eb       	ldi	r20, 0xB8	; 184
    2e1c:	5f e7       	ldi	r21, 0x7F	; 127
    2e1e:	0e 94 ac 18 	call	0x3158	; 0x3158 <__mulsf3_pse>
    2e22:	0f 92       	push	r0
    2e24:	0f 92       	push	r0
    2e26:	0f 92       	push	r0
    2e28:	4d b7       	in	r20, 0x3d	; 61
    2e2a:	5e b7       	in	r21, 0x3e	; 62
    2e2c:	0f 92       	push	r0
    2e2e:	0e 94 62 18 	call	0x30c4	; 0x30c4 <modf>
    2e32:	e8 e6       	ldi	r30, 0x68	; 104
    2e34:	f0 e0       	ldi	r31, 0x00	; 0
    2e36:	0e 94 b1 17 	call	0x2f62	; 0x2f62 <__fp_powser>
    2e3a:	4f 91       	pop	r20
    2e3c:	5f 91       	pop	r21
    2e3e:	ef 91       	pop	r30
    2e40:	ff 91       	pop	r31
    2e42:	e5 95       	asr	r30
    2e44:	ee 1f       	adc	r30, r30
    2e46:	ff 1f       	adc	r31, r31
    2e48:	49 f0       	breq	.+18     	; 0x2e5c <exp+0x56>
    2e4a:	fe 57       	subi	r31, 0x7E	; 126
    2e4c:	e0 68       	ori	r30, 0x80	; 128
    2e4e:	44 27       	eor	r20, r20
    2e50:	ee 0f       	add	r30, r30
    2e52:	44 1f       	adc	r20, r20
    2e54:	fa 95       	dec	r31
    2e56:	e1 f7       	brne	.-8      	; 0x2e50 <exp+0x4a>
    2e58:	41 95       	neg	r20
    2e5a:	55 0b       	sbc	r21, r21
    2e5c:	0e 94 2c 18 	call	0x3058	; 0x3058 <ldexp>
    2e60:	0f 90       	pop	r0
    2e62:	07 fe       	sbrs	r0, 7
    2e64:	0c 94 20 18 	jmp	0x3040	; 0x3040 <inverse>
    2e68:	08 95       	ret

00002e6a <__fixsfsi>:
    2e6a:	0e 94 3c 17 	call	0x2e78	; 0x2e78 <__fixunssfsi>
    2e6e:	68 94       	set
    2e70:	b1 11       	cpse	r27, r1
    2e72:	0c 94 1a 18 	jmp	0x3034	; 0x3034 <__fp_szero>
    2e76:	08 95       	ret

00002e78 <__fixunssfsi>:
    2e78:	0e 94 ff 17 	call	0x2ffe	; 0x2ffe <__fp_splitA>
    2e7c:	88 f0       	brcs	.+34     	; 0x2ea0 <__fixunssfsi+0x28>
    2e7e:	9f 57       	subi	r25, 0x7F	; 127
    2e80:	98 f0       	brcs	.+38     	; 0x2ea8 <__fixunssfsi+0x30>
    2e82:	b9 2f       	mov	r27, r25
    2e84:	99 27       	eor	r25, r25
    2e86:	b7 51       	subi	r27, 0x17	; 23
    2e88:	b0 f0       	brcs	.+44     	; 0x2eb6 <__fixunssfsi+0x3e>
    2e8a:	e1 f0       	breq	.+56     	; 0x2ec4 <__fixunssfsi+0x4c>
    2e8c:	66 0f       	add	r22, r22
    2e8e:	77 1f       	adc	r23, r23
    2e90:	88 1f       	adc	r24, r24
    2e92:	99 1f       	adc	r25, r25
    2e94:	1a f0       	brmi	.+6      	; 0x2e9c <__fixunssfsi+0x24>
    2e96:	ba 95       	dec	r27
    2e98:	c9 f7       	brne	.-14     	; 0x2e8c <__fixunssfsi+0x14>
    2e9a:	14 c0       	rjmp	.+40     	; 0x2ec4 <__fixunssfsi+0x4c>
    2e9c:	b1 30       	cpi	r27, 0x01	; 1
    2e9e:	91 f0       	breq	.+36     	; 0x2ec4 <__fixunssfsi+0x4c>
    2ea0:	0e 94 19 18 	call	0x3032	; 0x3032 <__fp_zero>
    2ea4:	b1 e0       	ldi	r27, 0x01	; 1
    2ea6:	08 95       	ret
    2ea8:	0c 94 19 18 	jmp	0x3032	; 0x3032 <__fp_zero>
    2eac:	67 2f       	mov	r22, r23
    2eae:	78 2f       	mov	r23, r24
    2eb0:	88 27       	eor	r24, r24
    2eb2:	b8 5f       	subi	r27, 0xF8	; 248
    2eb4:	39 f0       	breq	.+14     	; 0x2ec4 <__fixunssfsi+0x4c>
    2eb6:	b9 3f       	cpi	r27, 0xF9	; 249
    2eb8:	cc f3       	brlt	.-14     	; 0x2eac <__fixunssfsi+0x34>
    2eba:	86 95       	lsr	r24
    2ebc:	77 95       	ror	r23
    2ebe:	67 95       	ror	r22
    2ec0:	b3 95       	inc	r27
    2ec2:	d9 f7       	brne	.-10     	; 0x2eba <__fixunssfsi+0x42>
    2ec4:	3e f4       	brtc	.+14     	; 0x2ed4 <__fixunssfsi+0x5c>
    2ec6:	90 95       	com	r25
    2ec8:	80 95       	com	r24
    2eca:	70 95       	com	r23
    2ecc:	61 95       	neg	r22
    2ece:	7f 4f       	sbci	r23, 0xFF	; 255
    2ed0:	8f 4f       	sbci	r24, 0xFF	; 255
    2ed2:	9f 4f       	sbci	r25, 0xFF	; 255
    2ed4:	08 95       	ret

00002ed6 <__floatunsisf>:
    2ed6:	e8 94       	clt
    2ed8:	09 c0       	rjmp	.+18     	; 0x2eec <__floatsisf+0x12>

00002eda <__floatsisf>:
    2eda:	97 fb       	bst	r25, 7
    2edc:	3e f4       	brtc	.+14     	; 0x2eec <__floatsisf+0x12>
    2ede:	90 95       	com	r25
    2ee0:	80 95       	com	r24
    2ee2:	70 95       	com	r23
    2ee4:	61 95       	neg	r22
    2ee6:	7f 4f       	sbci	r23, 0xFF	; 255
    2ee8:	8f 4f       	sbci	r24, 0xFF	; 255
    2eea:	9f 4f       	sbci	r25, 0xFF	; 255
    2eec:	99 23       	and	r25, r25
    2eee:	a9 f0       	breq	.+42     	; 0x2f1a <__floatsisf+0x40>
    2ef0:	f9 2f       	mov	r31, r25
    2ef2:	96 e9       	ldi	r25, 0x96	; 150
    2ef4:	bb 27       	eor	r27, r27
    2ef6:	93 95       	inc	r25
    2ef8:	f6 95       	lsr	r31
    2efa:	87 95       	ror	r24
    2efc:	77 95       	ror	r23
    2efe:	67 95       	ror	r22
    2f00:	b7 95       	ror	r27
    2f02:	f1 11       	cpse	r31, r1
    2f04:	f8 cf       	rjmp	.-16     	; 0x2ef6 <__floatsisf+0x1c>
    2f06:	fa f4       	brpl	.+62     	; 0x2f46 <__floatsisf+0x6c>
    2f08:	bb 0f       	add	r27, r27
    2f0a:	11 f4       	brne	.+4      	; 0x2f10 <__floatsisf+0x36>
    2f0c:	60 ff       	sbrs	r22, 0
    2f0e:	1b c0       	rjmp	.+54     	; 0x2f46 <__floatsisf+0x6c>
    2f10:	6f 5f       	subi	r22, 0xFF	; 255
    2f12:	7f 4f       	sbci	r23, 0xFF	; 255
    2f14:	8f 4f       	sbci	r24, 0xFF	; 255
    2f16:	9f 4f       	sbci	r25, 0xFF	; 255
    2f18:	16 c0       	rjmp	.+44     	; 0x2f46 <__floatsisf+0x6c>
    2f1a:	88 23       	and	r24, r24
    2f1c:	11 f0       	breq	.+4      	; 0x2f22 <__floatsisf+0x48>
    2f1e:	96 e9       	ldi	r25, 0x96	; 150
    2f20:	11 c0       	rjmp	.+34     	; 0x2f44 <__floatsisf+0x6a>
    2f22:	77 23       	and	r23, r23
    2f24:	21 f0       	breq	.+8      	; 0x2f2e <__floatsisf+0x54>
    2f26:	9e e8       	ldi	r25, 0x8E	; 142
    2f28:	87 2f       	mov	r24, r23
    2f2a:	76 2f       	mov	r23, r22
    2f2c:	05 c0       	rjmp	.+10     	; 0x2f38 <__floatsisf+0x5e>
    2f2e:	66 23       	and	r22, r22
    2f30:	71 f0       	breq	.+28     	; 0x2f4e <__floatsisf+0x74>
    2f32:	96 e8       	ldi	r25, 0x86	; 134
    2f34:	86 2f       	mov	r24, r22
    2f36:	70 e0       	ldi	r23, 0x00	; 0
    2f38:	60 e0       	ldi	r22, 0x00	; 0
    2f3a:	2a f0       	brmi	.+10     	; 0x2f46 <__floatsisf+0x6c>
    2f3c:	9a 95       	dec	r25
    2f3e:	66 0f       	add	r22, r22
    2f40:	77 1f       	adc	r23, r23
    2f42:	88 1f       	adc	r24, r24
    2f44:	da f7       	brpl	.-10     	; 0x2f3c <__floatsisf+0x62>
    2f46:	88 0f       	add	r24, r24
    2f48:	96 95       	lsr	r25
    2f4a:	87 95       	ror	r24
    2f4c:	97 f9       	bld	r25, 7
    2f4e:	08 95       	ret

00002f50 <__fp_inf>:
    2f50:	97 f9       	bld	r25, 7
    2f52:	9f 67       	ori	r25, 0x7F	; 127
    2f54:	80 e8       	ldi	r24, 0x80	; 128
    2f56:	70 e0       	ldi	r23, 0x00	; 0
    2f58:	60 e0       	ldi	r22, 0x00	; 0
    2f5a:	08 95       	ret

00002f5c <__fp_nan>:
    2f5c:	9f ef       	ldi	r25, 0xFF	; 255
    2f5e:	80 ec       	ldi	r24, 0xC0	; 192
    2f60:	08 95       	ret

00002f62 <__fp_powser>:
    2f62:	df 93       	push	r29
    2f64:	cf 93       	push	r28
    2f66:	1f 93       	push	r17
    2f68:	0f 93       	push	r16
    2f6a:	ff 92       	push	r15
    2f6c:	ef 92       	push	r14
    2f6e:	df 92       	push	r13
    2f70:	7b 01       	movw	r14, r22
    2f72:	8c 01       	movw	r16, r24
    2f74:	68 94       	set
    2f76:	06 c0       	rjmp	.+12     	; 0x2f84 <__fp_powser+0x22>
    2f78:	da 2e       	mov	r13, r26
    2f7a:	ef 01       	movw	r28, r30
    2f7c:	0e 94 a9 18 	call	0x3152	; 0x3152 <__mulsf3x>
    2f80:	fe 01       	movw	r30, r28
    2f82:	e8 94       	clt
    2f84:	a5 91       	lpm	r26, Z+
    2f86:	25 91       	lpm	r18, Z+
    2f88:	35 91       	lpm	r19, Z+
    2f8a:	45 91       	lpm	r20, Z+
    2f8c:	55 91       	lpm	r21, Z+
    2f8e:	a6 f3       	brts	.-24     	; 0x2f78 <__fp_powser+0x16>
    2f90:	ef 01       	movw	r28, r30
    2f92:	0e 94 34 16 	call	0x2c68	; 0x2c68 <__addsf3x>
    2f96:	fe 01       	movw	r30, r28
    2f98:	97 01       	movw	r18, r14
    2f9a:	a8 01       	movw	r20, r16
    2f9c:	da 94       	dec	r13
    2f9e:	69 f7       	brne	.-38     	; 0x2f7a <__fp_powser+0x18>
    2fa0:	df 90       	pop	r13
    2fa2:	ef 90       	pop	r14
    2fa4:	ff 90       	pop	r15
    2fa6:	0f 91       	pop	r16
    2fa8:	1f 91       	pop	r17
    2faa:	cf 91       	pop	r28
    2fac:	df 91       	pop	r29
    2fae:	08 95       	ret

00002fb0 <__fp_pscA>:
    2fb0:	00 24       	eor	r0, r0
    2fb2:	0a 94       	dec	r0
    2fb4:	16 16       	cp	r1, r22
    2fb6:	17 06       	cpc	r1, r23
    2fb8:	18 06       	cpc	r1, r24
    2fba:	09 06       	cpc	r0, r25
    2fbc:	08 95       	ret

00002fbe <__fp_pscB>:
    2fbe:	00 24       	eor	r0, r0
    2fc0:	0a 94       	dec	r0
    2fc2:	12 16       	cp	r1, r18
    2fc4:	13 06       	cpc	r1, r19
    2fc6:	14 06       	cpc	r1, r20
    2fc8:	05 06       	cpc	r0, r21
    2fca:	08 95       	ret

00002fcc <__fp_round>:
    2fcc:	09 2e       	mov	r0, r25
    2fce:	03 94       	inc	r0
    2fd0:	00 0c       	add	r0, r0
    2fd2:	11 f4       	brne	.+4      	; 0x2fd8 <__fp_round+0xc>
    2fd4:	88 23       	and	r24, r24
    2fd6:	52 f0       	brmi	.+20     	; 0x2fec <__fp_round+0x20>
    2fd8:	bb 0f       	add	r27, r27
    2fda:	40 f4       	brcc	.+16     	; 0x2fec <__fp_round+0x20>
    2fdc:	bf 2b       	or	r27, r31
    2fde:	11 f4       	brne	.+4      	; 0x2fe4 <__fp_round+0x18>
    2fe0:	60 ff       	sbrs	r22, 0
    2fe2:	04 c0       	rjmp	.+8      	; 0x2fec <__fp_round+0x20>
    2fe4:	6f 5f       	subi	r22, 0xFF	; 255
    2fe6:	7f 4f       	sbci	r23, 0xFF	; 255
    2fe8:	8f 4f       	sbci	r24, 0xFF	; 255
    2fea:	9f 4f       	sbci	r25, 0xFF	; 255
    2fec:	08 95       	ret

00002fee <__fp_split3>:
    2fee:	57 fd       	sbrc	r21, 7
    2ff0:	90 58       	subi	r25, 0x80	; 128
    2ff2:	44 0f       	add	r20, r20
    2ff4:	55 1f       	adc	r21, r21
    2ff6:	59 f0       	breq	.+22     	; 0x300e <__fp_splitA+0x10>
    2ff8:	5f 3f       	cpi	r21, 0xFF	; 255
    2ffa:	71 f0       	breq	.+28     	; 0x3018 <__fp_splitA+0x1a>
    2ffc:	47 95       	ror	r20

00002ffe <__fp_splitA>:
    2ffe:	88 0f       	add	r24, r24
    3000:	97 fb       	bst	r25, 7
    3002:	99 1f       	adc	r25, r25
    3004:	61 f0       	breq	.+24     	; 0x301e <__fp_splitA+0x20>
    3006:	9f 3f       	cpi	r25, 0xFF	; 255
    3008:	79 f0       	breq	.+30     	; 0x3028 <__fp_splitA+0x2a>
    300a:	87 95       	ror	r24
    300c:	08 95       	ret
    300e:	12 16       	cp	r1, r18
    3010:	13 06       	cpc	r1, r19
    3012:	14 06       	cpc	r1, r20
    3014:	55 1f       	adc	r21, r21
    3016:	f2 cf       	rjmp	.-28     	; 0x2ffc <__fp_split3+0xe>
    3018:	46 95       	lsr	r20
    301a:	f1 df       	rcall	.-30     	; 0x2ffe <__fp_splitA>
    301c:	08 c0       	rjmp	.+16     	; 0x302e <__fp_splitA+0x30>
    301e:	16 16       	cp	r1, r22
    3020:	17 06       	cpc	r1, r23
    3022:	18 06       	cpc	r1, r24
    3024:	99 1f       	adc	r25, r25
    3026:	f1 cf       	rjmp	.-30     	; 0x300a <__fp_splitA+0xc>
    3028:	86 95       	lsr	r24
    302a:	71 05       	cpc	r23, r1
    302c:	61 05       	cpc	r22, r1
    302e:	08 94       	sec
    3030:	08 95       	ret

00003032 <__fp_zero>:
    3032:	e8 94       	clt

00003034 <__fp_szero>:
    3034:	bb 27       	eor	r27, r27
    3036:	66 27       	eor	r22, r22
    3038:	77 27       	eor	r23, r23
    303a:	cb 01       	movw	r24, r22
    303c:	97 f9       	bld	r25, 7
    303e:	08 95       	ret

00003040 <inverse>:
    3040:	9b 01       	movw	r18, r22
    3042:	ac 01       	movw	r20, r24
    3044:	60 e0       	ldi	r22, 0x00	; 0
    3046:	70 e0       	ldi	r23, 0x00	; 0
    3048:	80 e8       	ldi	r24, 0x80	; 128
    304a:	9f e3       	ldi	r25, 0x3F	; 63
    304c:	0c 94 89 16 	jmp	0x2d12	; 0x2d12 <__divsf3>
    3050:	0c 94 a8 17 	jmp	0x2f50	; 0x2f50 <__fp_inf>
    3054:	0c 94 03 19 	jmp	0x3206	; 0x3206 <__fp_mpack>

00003058 <ldexp>:
    3058:	0e 94 ff 17 	call	0x2ffe	; 0x2ffe <__fp_splitA>
    305c:	d8 f3       	brcs	.-10     	; 0x3054 <inverse+0x14>
    305e:	99 23       	and	r25, r25
    3060:	c9 f3       	breq	.-14     	; 0x3054 <inverse+0x14>
    3062:	94 0f       	add	r25, r20
    3064:	51 1d       	adc	r21, r1
    3066:	a3 f3       	brvs	.-24     	; 0x3050 <inverse+0x10>
    3068:	91 50       	subi	r25, 0x01	; 1
    306a:	50 40       	sbci	r21, 0x00	; 0
    306c:	94 f0       	brlt	.+36     	; 0x3092 <ldexp+0x3a>
    306e:	59 f0       	breq	.+22     	; 0x3086 <ldexp+0x2e>
    3070:	88 23       	and	r24, r24
    3072:	32 f0       	brmi	.+12     	; 0x3080 <ldexp+0x28>
    3074:	66 0f       	add	r22, r22
    3076:	77 1f       	adc	r23, r23
    3078:	88 1f       	adc	r24, r24
    307a:	91 50       	subi	r25, 0x01	; 1
    307c:	50 40       	sbci	r21, 0x00	; 0
    307e:	c1 f7       	brne	.-16     	; 0x3070 <ldexp+0x18>
    3080:	9e 3f       	cpi	r25, 0xFE	; 254
    3082:	51 05       	cpc	r21, r1
    3084:	2c f7       	brge	.-54     	; 0x3050 <inverse+0x10>
    3086:	88 0f       	add	r24, r24
    3088:	91 1d       	adc	r25, r1
    308a:	96 95       	lsr	r25
    308c:	87 95       	ror	r24
    308e:	97 f9       	bld	r25, 7
    3090:	08 95       	ret
    3092:	5f 3f       	cpi	r21, 0xFF	; 255
    3094:	ac f0       	brlt	.+42     	; 0x30c0 <ldexp+0x68>
    3096:	98 3e       	cpi	r25, 0xE8	; 232
    3098:	9c f0       	brlt	.+38     	; 0x30c0 <ldexp+0x68>
    309a:	bb 27       	eor	r27, r27
    309c:	86 95       	lsr	r24
    309e:	77 95       	ror	r23
    30a0:	67 95       	ror	r22
    30a2:	b7 95       	ror	r27
    30a4:	08 f4       	brcc	.+2      	; 0x30a8 <ldexp+0x50>
    30a6:	b1 60       	ori	r27, 0x01	; 1
    30a8:	93 95       	inc	r25
    30aa:	c1 f7       	brne	.-16     	; 0x309c <ldexp+0x44>
    30ac:	bb 0f       	add	r27, r27
    30ae:	58 f7       	brcc	.-42     	; 0x3086 <ldexp+0x2e>
    30b0:	11 f4       	brne	.+4      	; 0x30b6 <ldexp+0x5e>
    30b2:	60 ff       	sbrs	r22, 0
    30b4:	e8 cf       	rjmp	.-48     	; 0x3086 <ldexp+0x2e>
    30b6:	6f 5f       	subi	r22, 0xFF	; 255
    30b8:	7f 4f       	sbci	r23, 0xFF	; 255
    30ba:	8f 4f       	sbci	r24, 0xFF	; 255
    30bc:	9f 4f       	sbci	r25, 0xFF	; 255
    30be:	e3 cf       	rjmp	.-58     	; 0x3086 <ldexp+0x2e>
    30c0:	0c 94 1a 18 	jmp	0x3034	; 0x3034 <__fp_szero>

000030c4 <modf>:
    30c4:	fa 01       	movw	r30, r20
    30c6:	dc 01       	movw	r26, r24
    30c8:	aa 0f       	add	r26, r26
    30ca:	bb 1f       	adc	r27, r27
    30cc:	9b 01       	movw	r18, r22
    30ce:	ac 01       	movw	r20, r24
    30d0:	bf 57       	subi	r27, 0x7F	; 127
    30d2:	28 f4       	brcc	.+10     	; 0x30de <modf+0x1a>
    30d4:	22 27       	eor	r18, r18
    30d6:	33 27       	eor	r19, r19
    30d8:	44 27       	eor	r20, r20
    30da:	50 78       	andi	r21, 0x80	; 128
    30dc:	20 c0       	rjmp	.+64     	; 0x311e <modf+0x5a>
    30de:	b7 51       	subi	r27, 0x17	; 23
    30e0:	90 f4       	brcc	.+36     	; 0x3106 <modf+0x42>
    30e2:	ab 2f       	mov	r26, r27
    30e4:	00 24       	eor	r0, r0
    30e6:	46 95       	lsr	r20
    30e8:	37 95       	ror	r19
    30ea:	27 95       	ror	r18
    30ec:	01 1c       	adc	r0, r1
    30ee:	a3 95       	inc	r26
    30f0:	d2 f3       	brmi	.-12     	; 0x30e6 <modf+0x22>
    30f2:	00 20       	and	r0, r0
    30f4:	71 f0       	breq	.+28     	; 0x3112 <modf+0x4e>
    30f6:	22 0f       	add	r18, r18
    30f8:	33 1f       	adc	r19, r19
    30fa:	44 1f       	adc	r20, r20
    30fc:	b3 95       	inc	r27
    30fe:	da f3       	brmi	.-10     	; 0x30f6 <modf+0x32>
    3100:	0e d0       	rcall	.+28     	; 0x311e <modf+0x5a>
    3102:	0c 94 1c 16 	jmp	0x2c38	; 0x2c38 <__subsf3>
    3106:	61 30       	cpi	r22, 0x01	; 1
    3108:	71 05       	cpc	r23, r1
    310a:	a0 e8       	ldi	r26, 0x80	; 128
    310c:	8a 07       	cpc	r24, r26
    310e:	b9 46       	sbci	r27, 0x69	; 105
    3110:	30 f4       	brcc	.+12     	; 0x311e <modf+0x5a>
    3112:	9b 01       	movw	r18, r22
    3114:	ac 01       	movw	r20, r24
    3116:	66 27       	eor	r22, r22
    3118:	77 27       	eor	r23, r23
    311a:	88 27       	eor	r24, r24
    311c:	90 78       	andi	r25, 0x80	; 128
    311e:	30 96       	adiw	r30, 0x00	; 0
    3120:	21 f0       	breq	.+8      	; 0x312a <modf+0x66>
    3122:	20 83       	st	Z, r18
    3124:	31 83       	std	Z+1, r19	; 0x01
    3126:	42 83       	std	Z+2, r20	; 0x02
    3128:	53 83       	std	Z+3, r21	; 0x03
    312a:	08 95       	ret

0000312c <__mulsf3>:
    312c:	0e 94 a9 18 	call	0x3152	; 0x3152 <__mulsf3x>
    3130:	0c 94 e6 17 	jmp	0x2fcc	; 0x2fcc <__fp_round>
    3134:	0e 94 d8 17 	call	0x2fb0	; 0x2fb0 <__fp_pscA>
    3138:	38 f0       	brcs	.+14     	; 0x3148 <__mulsf3+0x1c>
    313a:	0e 94 df 17 	call	0x2fbe	; 0x2fbe <__fp_pscB>
    313e:	20 f0       	brcs	.+8      	; 0x3148 <__mulsf3+0x1c>
    3140:	95 23       	and	r25, r21
    3142:	11 f0       	breq	.+4      	; 0x3148 <__mulsf3+0x1c>
    3144:	0c 94 a8 17 	jmp	0x2f50	; 0x2f50 <__fp_inf>
    3148:	0c 94 ae 17 	jmp	0x2f5c	; 0x2f5c <__fp_nan>
    314c:	11 24       	eor	r1, r1
    314e:	0c 94 1a 18 	jmp	0x3034	; 0x3034 <__fp_szero>

00003152 <__mulsf3x>:
    3152:	0e 94 f7 17 	call	0x2fee	; 0x2fee <__fp_split3>
    3156:	70 f3       	brcs	.-36     	; 0x3134 <__mulsf3+0x8>

00003158 <__mulsf3_pse>:
    3158:	95 9f       	mul	r25, r21
    315a:	c1 f3       	breq	.-16     	; 0x314c <__mulsf3+0x20>
    315c:	95 0f       	add	r25, r21
    315e:	50 e0       	ldi	r21, 0x00	; 0
    3160:	55 1f       	adc	r21, r21
    3162:	62 9f       	mul	r22, r18
    3164:	f0 01       	movw	r30, r0
    3166:	72 9f       	mul	r23, r18
    3168:	bb 27       	eor	r27, r27
    316a:	f0 0d       	add	r31, r0
    316c:	b1 1d       	adc	r27, r1
    316e:	63 9f       	mul	r22, r19
    3170:	aa 27       	eor	r26, r26
    3172:	f0 0d       	add	r31, r0
    3174:	b1 1d       	adc	r27, r1
    3176:	aa 1f       	adc	r26, r26
    3178:	64 9f       	mul	r22, r20
    317a:	66 27       	eor	r22, r22
    317c:	b0 0d       	add	r27, r0
    317e:	a1 1d       	adc	r26, r1
    3180:	66 1f       	adc	r22, r22
    3182:	82 9f       	mul	r24, r18
    3184:	22 27       	eor	r18, r18
    3186:	b0 0d       	add	r27, r0
    3188:	a1 1d       	adc	r26, r1
    318a:	62 1f       	adc	r22, r18
    318c:	73 9f       	mul	r23, r19
    318e:	b0 0d       	add	r27, r0
    3190:	a1 1d       	adc	r26, r1
    3192:	62 1f       	adc	r22, r18
    3194:	83 9f       	mul	r24, r19
    3196:	a0 0d       	add	r26, r0
    3198:	61 1d       	adc	r22, r1
    319a:	22 1f       	adc	r18, r18
    319c:	74 9f       	mul	r23, r20
    319e:	33 27       	eor	r19, r19
    31a0:	a0 0d       	add	r26, r0
    31a2:	61 1d       	adc	r22, r1
    31a4:	23 1f       	adc	r18, r19
    31a6:	84 9f       	mul	r24, r20
    31a8:	60 0d       	add	r22, r0
    31aa:	21 1d       	adc	r18, r1
    31ac:	82 2f       	mov	r24, r18
    31ae:	76 2f       	mov	r23, r22
    31b0:	6a 2f       	mov	r22, r26
    31b2:	11 24       	eor	r1, r1
    31b4:	9f 57       	subi	r25, 0x7F	; 127
    31b6:	50 40       	sbci	r21, 0x00	; 0
    31b8:	9a f0       	brmi	.+38     	; 0x31e0 <__mulsf3_pse+0x88>
    31ba:	f1 f0       	breq	.+60     	; 0x31f8 <__mulsf3_pse+0xa0>
    31bc:	88 23       	and	r24, r24
    31be:	4a f0       	brmi	.+18     	; 0x31d2 <__mulsf3_pse+0x7a>
    31c0:	ee 0f       	add	r30, r30
    31c2:	ff 1f       	adc	r31, r31
    31c4:	bb 1f       	adc	r27, r27
    31c6:	66 1f       	adc	r22, r22
    31c8:	77 1f       	adc	r23, r23
    31ca:	88 1f       	adc	r24, r24
    31cc:	91 50       	subi	r25, 0x01	; 1
    31ce:	50 40       	sbci	r21, 0x00	; 0
    31d0:	a9 f7       	brne	.-22     	; 0x31bc <__mulsf3_pse+0x64>
    31d2:	9e 3f       	cpi	r25, 0xFE	; 254
    31d4:	51 05       	cpc	r21, r1
    31d6:	80 f0       	brcs	.+32     	; 0x31f8 <__mulsf3_pse+0xa0>
    31d8:	0c 94 a8 17 	jmp	0x2f50	; 0x2f50 <__fp_inf>
    31dc:	0c 94 1a 18 	jmp	0x3034	; 0x3034 <__fp_szero>
    31e0:	5f 3f       	cpi	r21, 0xFF	; 255
    31e2:	e4 f3       	brlt	.-8      	; 0x31dc <__mulsf3_pse+0x84>
    31e4:	98 3e       	cpi	r25, 0xE8	; 232
    31e6:	d4 f3       	brlt	.-12     	; 0x31dc <__mulsf3_pse+0x84>
    31e8:	86 95       	lsr	r24
    31ea:	77 95       	ror	r23
    31ec:	67 95       	ror	r22
    31ee:	b7 95       	ror	r27
    31f0:	f7 95       	ror	r31
    31f2:	e7 95       	ror	r30
    31f4:	9f 5f       	subi	r25, 0xFF	; 255
    31f6:	c1 f7       	brne	.-16     	; 0x31e8 <__mulsf3_pse+0x90>
    31f8:	fe 2b       	or	r31, r30
    31fa:	88 0f       	add	r24, r24
    31fc:	91 1d       	adc	r25, r1
    31fe:	96 95       	lsr	r25
    3200:	87 95       	ror	r24
    3202:	97 f9       	bld	r25, 7
    3204:	08 95       	ret

00003206 <__fp_mpack>:
    3206:	9f 3f       	cpi	r25, 0xFF	; 255
    3208:	31 f0       	breq	.+12     	; 0x3216 <__fp_mpack_finite+0xc>

0000320a <__fp_mpack_finite>:
    320a:	91 50       	subi	r25, 0x01	; 1
    320c:	20 f4       	brcc	.+8      	; 0x3216 <__fp_mpack_finite+0xc>
    320e:	87 95       	ror	r24
    3210:	77 95       	ror	r23
    3212:	67 95       	ror	r22
    3214:	b7 95       	ror	r27
    3216:	88 0f       	add	r24, r24
    3218:	91 1d       	adc	r25, r1
    321a:	96 95       	lsr	r25
    321c:	87 95       	ror	r24
    321e:	97 f9       	bld	r25, 7
    3220:	08 95       	ret

00003222 <__mulsi3>:
    3222:	db 01       	movw	r26, r22
    3224:	8f 93       	push	r24
    3226:	9f 93       	push	r25
    3228:	0e 94 62 19 	call	0x32c4	; 0x32c4 <__muluhisi3>
    322c:	bf 91       	pop	r27
    322e:	af 91       	pop	r26
    3230:	a2 9f       	mul	r26, r18
    3232:	80 0d       	add	r24, r0
    3234:	91 1d       	adc	r25, r1
    3236:	a3 9f       	mul	r26, r19
    3238:	90 0d       	add	r25, r0
    323a:	b2 9f       	mul	r27, r18
    323c:	90 0d       	add	r25, r0
    323e:	11 24       	eor	r1, r1
    3240:	08 95       	ret

00003242 <__udivmodsi4>:
    3242:	a1 e2       	ldi	r26, 0x21	; 33
    3244:	1a 2e       	mov	r1, r26
    3246:	aa 1b       	sub	r26, r26
    3248:	bb 1b       	sub	r27, r27
    324a:	fd 01       	movw	r30, r26
    324c:	0d c0       	rjmp	.+26     	; 0x3268 <__udivmodsi4_ep>

0000324e <__udivmodsi4_loop>:
    324e:	aa 1f       	adc	r26, r26
    3250:	bb 1f       	adc	r27, r27
    3252:	ee 1f       	adc	r30, r30
    3254:	ff 1f       	adc	r31, r31
    3256:	a2 17       	cp	r26, r18
    3258:	b3 07       	cpc	r27, r19
    325a:	e4 07       	cpc	r30, r20
    325c:	f5 07       	cpc	r31, r21
    325e:	20 f0       	brcs	.+8      	; 0x3268 <__udivmodsi4_ep>
    3260:	a2 1b       	sub	r26, r18
    3262:	b3 0b       	sbc	r27, r19
    3264:	e4 0b       	sbc	r30, r20
    3266:	f5 0b       	sbc	r31, r21

00003268 <__udivmodsi4_ep>:
    3268:	66 1f       	adc	r22, r22
    326a:	77 1f       	adc	r23, r23
    326c:	88 1f       	adc	r24, r24
    326e:	99 1f       	adc	r25, r25
    3270:	1a 94       	dec	r1
    3272:	69 f7       	brne	.-38     	; 0x324e <__udivmodsi4_loop>
    3274:	60 95       	com	r22
    3276:	70 95       	com	r23
    3278:	80 95       	com	r24
    327a:	90 95       	com	r25
    327c:	9b 01       	movw	r18, r22
    327e:	ac 01       	movw	r20, r24
    3280:	bd 01       	movw	r22, r26
    3282:	cf 01       	movw	r24, r30
    3284:	08 95       	ret

00003286 <__divmodsi4>:
    3286:	05 2e       	mov	r0, r21
    3288:	97 fb       	bst	r25, 7
    328a:	1e f4       	brtc	.+6      	; 0x3292 <__divmodsi4+0xc>
    328c:	00 94       	com	r0
    328e:	0e 94 5a 19 	call	0x32b4	; 0x32b4 <__negsi2>
    3292:	57 fd       	sbrc	r21, 7
    3294:	07 d0       	rcall	.+14     	; 0x32a4 <__divmodsi4_neg2>
    3296:	0e 94 21 19 	call	0x3242	; 0x3242 <__udivmodsi4>
    329a:	07 fc       	sbrc	r0, 7
    329c:	03 d0       	rcall	.+6      	; 0x32a4 <__divmodsi4_neg2>
    329e:	4e f4       	brtc	.+18     	; 0x32b2 <__divmodsi4_exit>
    32a0:	0c 94 5a 19 	jmp	0x32b4	; 0x32b4 <__negsi2>

000032a4 <__divmodsi4_neg2>:
    32a4:	50 95       	com	r21
    32a6:	40 95       	com	r20
    32a8:	30 95       	com	r19
    32aa:	21 95       	neg	r18
    32ac:	3f 4f       	sbci	r19, 0xFF	; 255
    32ae:	4f 4f       	sbci	r20, 0xFF	; 255
    32b0:	5f 4f       	sbci	r21, 0xFF	; 255

000032b2 <__divmodsi4_exit>:
    32b2:	08 95       	ret

000032b4 <__negsi2>:
    32b4:	90 95       	com	r25
    32b6:	80 95       	com	r24
    32b8:	70 95       	com	r23
    32ba:	61 95       	neg	r22
    32bc:	7f 4f       	sbci	r23, 0xFF	; 255
    32be:	8f 4f       	sbci	r24, 0xFF	; 255
    32c0:	9f 4f       	sbci	r25, 0xFF	; 255
    32c2:	08 95       	ret

000032c4 <__muluhisi3>:
    32c4:	0e 94 75 19 	call	0x32ea	; 0x32ea <__umulhisi3>
    32c8:	a5 9f       	mul	r26, r21
    32ca:	90 0d       	add	r25, r0
    32cc:	b4 9f       	mul	r27, r20
    32ce:	90 0d       	add	r25, r0
    32d0:	a4 9f       	mul	r26, r20
    32d2:	80 0d       	add	r24, r0
    32d4:	91 1d       	adc	r25, r1
    32d6:	11 24       	eor	r1, r1
    32d8:	08 95       	ret

000032da <__mulshisi3>:
    32da:	b7 ff       	sbrs	r27, 7
    32dc:	0c 94 62 19 	jmp	0x32c4	; 0x32c4 <__muluhisi3>

000032e0 <__mulohisi3>:
    32e0:	0e 94 62 19 	call	0x32c4	; 0x32c4 <__muluhisi3>
    32e4:	82 1b       	sub	r24, r18
    32e6:	93 0b       	sbc	r25, r19
    32e8:	08 95       	ret

000032ea <__umulhisi3>:
    32ea:	a2 9f       	mul	r26, r18
    32ec:	b0 01       	movw	r22, r0
    32ee:	b3 9f       	mul	r27, r19
    32f0:	c0 01       	movw	r24, r0
    32f2:	a3 9f       	mul	r26, r19
    32f4:	70 0d       	add	r23, r0
    32f6:	81 1d       	adc	r24, r1
    32f8:	11 24       	eor	r1, r1
    32fa:	91 1d       	adc	r25, r1
    32fc:	b2 9f       	mul	r27, r18
    32fe:	70 0d       	add	r23, r0
    3300:	81 1d       	adc	r24, r1
    3302:	11 24       	eor	r1, r1
    3304:	91 1d       	adc	r25, r1
    3306:	08 95       	ret

00003308 <atol>:
    3308:	1f 93       	push	r17
    330a:	fc 01       	movw	r30, r24
    330c:	99 27       	eor	r25, r25
    330e:	88 27       	eor	r24, r24
    3310:	bc 01       	movw	r22, r24
    3312:	e8 94       	clt
    3314:	11 91       	ld	r17, Z+
    3316:	10 32       	cpi	r17, 0x20	; 32
    3318:	e9 f3       	breq	.-6      	; 0x3314 <atol+0xc>
    331a:	19 30       	cpi	r17, 0x09	; 9
    331c:	10 f0       	brcs	.+4      	; 0x3322 <atol+0x1a>
    331e:	1e 30       	cpi	r17, 0x0E	; 14
    3320:	c8 f3       	brcs	.-14     	; 0x3314 <atol+0xc>
    3322:	1b 32       	cpi	r17, 0x2B	; 43
    3324:	51 f0       	breq	.+20     	; 0x333a <atol+0x32>
    3326:	1d 32       	cpi	r17, 0x2D	; 45
    3328:	49 f4       	brne	.+18     	; 0x333c <atol+0x34>
    332a:	68 94       	set
    332c:	06 c0       	rjmp	.+12     	; 0x333a <atol+0x32>
    332e:	0e 94 ba 19 	call	0x3374	; 0x3374 <__mulsi_const_10>
    3332:	61 0f       	add	r22, r17
    3334:	71 1d       	adc	r23, r1
    3336:	81 1d       	adc	r24, r1
    3338:	91 1d       	adc	r25, r1
    333a:	11 91       	ld	r17, Z+
    333c:	10 53       	subi	r17, 0x30	; 48
    333e:	1a 30       	cpi	r17, 0x0A	; 10
    3340:	b0 f3       	brcs	.-20     	; 0x332e <atol+0x26>
    3342:	3e f4       	brtc	.+14     	; 0x3352 <atol+0x4a>
    3344:	90 95       	com	r25
    3346:	80 95       	com	r24
    3348:	70 95       	com	r23
    334a:	61 95       	neg	r22
    334c:	7f 4f       	sbci	r23, 0xFF	; 255
    334e:	8f 4f       	sbci	r24, 0xFF	; 255
    3350:	9f 4f       	sbci	r25, 0xFF	; 255
    3352:	1f 91       	pop	r17
    3354:	08 95       	ret

00003356 <__ltoa_ncheck>:
    3356:	bb 27       	eor	r27, r27
    3358:	2a 30       	cpi	r18, 0x0A	; 10
    335a:	51 f4       	brne	.+20     	; 0x3370 <__ltoa_ncheck+0x1a>
    335c:	99 23       	and	r25, r25
    335e:	42 f4       	brpl	.+16     	; 0x3370 <__ltoa_ncheck+0x1a>
    3360:	bd e2       	ldi	r27, 0x2D	; 45
    3362:	90 95       	com	r25
    3364:	80 95       	com	r24
    3366:	70 95       	com	r23
    3368:	61 95       	neg	r22
    336a:	7f 4f       	sbci	r23, 0xFF	; 255
    336c:	8f 4f       	sbci	r24, 0xFF	; 255
    336e:	9f 4f       	sbci	r25, 0xFF	; 255
    3370:	0c 94 d0 19 	jmp	0x33a0	; 0x33a0 <__ultoa_common>

00003374 <__mulsi_const_10>:
    3374:	59 2f       	mov	r21, r25
    3376:	48 2f       	mov	r20, r24
    3378:	37 2f       	mov	r19, r23
    337a:	26 2f       	mov	r18, r22
    337c:	66 0f       	add	r22, r22
    337e:	77 1f       	adc	r23, r23
    3380:	88 1f       	adc	r24, r24
    3382:	99 1f       	adc	r25, r25
    3384:	66 0f       	add	r22, r22
    3386:	77 1f       	adc	r23, r23
    3388:	88 1f       	adc	r24, r24
    338a:	99 1f       	adc	r25, r25
    338c:	62 0f       	add	r22, r18
    338e:	73 1f       	adc	r23, r19
    3390:	84 1f       	adc	r24, r20
    3392:	95 1f       	adc	r25, r21
    3394:	66 0f       	add	r22, r22
    3396:	77 1f       	adc	r23, r23
    3398:	88 1f       	adc	r24, r24
    339a:	99 1f       	adc	r25, r25
    339c:	08 95       	ret

0000339e <__ultoa_ncheck>:
    339e:	bb 27       	eor	r27, r27

000033a0 <__ultoa_common>:
    33a0:	fa 01       	movw	r30, r20
    33a2:	a6 2f       	mov	r26, r22
    33a4:	62 17       	cp	r22, r18
    33a6:	71 05       	cpc	r23, r1
    33a8:	81 05       	cpc	r24, r1
    33aa:	91 05       	cpc	r25, r1
    33ac:	33 0b       	sbc	r19, r19
    33ae:	30 fb       	bst	r19, 0
    33b0:	66 f0       	brts	.+24     	; 0x33ca <__ultoa_common+0x2a>
    33b2:	aa 27       	eor	r26, r26
    33b4:	66 0f       	add	r22, r22
    33b6:	77 1f       	adc	r23, r23
    33b8:	88 1f       	adc	r24, r24
    33ba:	99 1f       	adc	r25, r25
    33bc:	aa 1f       	adc	r26, r26
    33be:	a2 17       	cp	r26, r18
    33c0:	10 f0       	brcs	.+4      	; 0x33c6 <__ultoa_common+0x26>
    33c2:	a2 1b       	sub	r26, r18
    33c4:	63 95       	inc	r22
    33c6:	38 50       	subi	r19, 0x08	; 8
    33c8:	a9 f7       	brne	.-22     	; 0x33b4 <__ultoa_common+0x14>
    33ca:	a0 5d       	subi	r26, 0xD0	; 208
    33cc:	aa 33       	cpi	r26, 0x3A	; 58
    33ce:	08 f0       	brcs	.+2      	; 0x33d2 <__ultoa_common+0x32>
    33d0:	a9 5d       	subi	r26, 0xD9	; 217
    33d2:	a1 93       	st	Z+, r26
    33d4:	36 f7       	brtc	.-52     	; 0x33a2 <__ultoa_common+0x2>
    33d6:	b1 11       	cpse	r27, r1
    33d8:	b1 93       	st	Z+, r27
    33da:	10 82       	st	Z, r1
    33dc:	ca 01       	movw	r24, r20
    33de:	0c 94 0b 1a 	jmp	0x3416	; 0x3416 <strrev>

000033e2 <__utoa_ncheck>:
    33e2:	bb 27       	eor	r27, r27

000033e4 <__utoa_common>:
    33e4:	fb 01       	movw	r30, r22
    33e6:	55 27       	eor	r21, r21
    33e8:	aa 27       	eor	r26, r26
    33ea:	88 0f       	add	r24, r24
    33ec:	99 1f       	adc	r25, r25
    33ee:	aa 1f       	adc	r26, r26
    33f0:	a4 17       	cp	r26, r20
    33f2:	10 f0       	brcs	.+4      	; 0x33f8 <__utoa_common+0x14>
    33f4:	a4 1b       	sub	r26, r20
    33f6:	83 95       	inc	r24
    33f8:	50 51       	subi	r21, 0x10	; 16
    33fa:	b9 f7       	brne	.-18     	; 0x33ea <__utoa_common+0x6>
    33fc:	a0 5d       	subi	r26, 0xD0	; 208
    33fe:	aa 33       	cpi	r26, 0x3A	; 58
    3400:	08 f0       	brcs	.+2      	; 0x3404 <__utoa_common+0x20>
    3402:	a9 5d       	subi	r26, 0xD9	; 217
    3404:	a1 93       	st	Z+, r26
    3406:	00 97       	sbiw	r24, 0x00	; 0
    3408:	79 f7       	brne	.-34     	; 0x33e8 <__utoa_common+0x4>
    340a:	b1 11       	cpse	r27, r1
    340c:	b1 93       	st	Z+, r27
    340e:	11 92       	st	Z+, r1
    3410:	cb 01       	movw	r24, r22
    3412:	0c 94 0b 1a 	jmp	0x3416	; 0x3416 <strrev>

00003416 <strrev>:
    3416:	dc 01       	movw	r26, r24
    3418:	fc 01       	movw	r30, r24
    341a:	67 2f       	mov	r22, r23
    341c:	71 91       	ld	r23, Z+
    341e:	77 23       	and	r23, r23
    3420:	e1 f7       	brne	.-8      	; 0x341a <strrev+0x4>
    3422:	32 97       	sbiw	r30, 0x02	; 2
    3424:	04 c0       	rjmp	.+8      	; 0x342e <strrev+0x18>
    3426:	7c 91       	ld	r23, X
    3428:	6d 93       	st	X+, r22
    342a:	70 83       	st	Z, r23
    342c:	62 91       	ld	r22, -Z
    342e:	ae 17       	cp	r26, r30
    3430:	bf 07       	cpc	r27, r31
    3432:	c8 f3       	brcs	.-14     	; 0x3426 <strrev+0x10>
    3434:	08 95       	ret

00003436 <_exit>:
    3436:	f8 94       	cli

00003438 <__stop_program>:
    3438:	ff cf       	rjmp	.-2      	; 0x3438 <__stop_program>
