
controlBoard.elf:     file format elf32-avr

Sections:
Idx Name          Size      VMA       LMA       File off  Algn
  0 .text         00002c8a  00000000  00000000  00000094  2**1
                  CONTENTS, ALLOC, LOAD, READONLY, CODE
  1 .data         00000010  00800060  00002c8a  00002d1e  2**0
                  CONTENTS, ALLOC, LOAD, DATA
  2 .bss          00000070  00800070  00800070  00002d2e  2**0
                  ALLOC
  3 .stab         00000d44  00000000  00000000  00002d30  2**2
                  CONTENTS, READONLY, DEBUGGING
  4 .stabstr      000002e0  00000000  00000000  00003a74  2**0
                  CONTENTS, READONLY, DEBUGGING
  5 .comment      0000002f  00000000  00000000  00003d54  2**0
                  CONTENTS, READONLY

Disassembly of section .text:

00000000 <__vectors>:
       0:	0c 94 5e 00 	jmp	0xbc	; 0xbc <__ctors_end>
       4:	0c 94 7c 13 	jmp	0x26f8	; 0x26f8 <__vector_1>
       8:	0c 94 9a 13 	jmp	0x2734	; 0x2734 <__vector_2>
       c:	0c 94 b3 13 	jmp	0x2766	; 0x2766 <__vector_3>
      10:	0c 94 7b 00 	jmp	0xf6	; 0xf6 <__bad_interrupt>
      14:	0c 94 7b 00 	jmp	0xf6	; 0xf6 <__bad_interrupt>
      18:	0c 94 7b 00 	jmp	0xf6	; 0xf6 <__bad_interrupt>
      1c:	0c 94 7b 00 	jmp	0xf6	; 0xf6 <__bad_interrupt>
      20:	0c 94 7b 00 	jmp	0xf6	; 0xf6 <__bad_interrupt>
      24:	0c 94 7b 00 	jmp	0xf6	; 0xf6 <__bad_interrupt>
      28:	0c 94 1a 13 	jmp	0x2634	; 0x2634 <__vector_10>
      2c:	0c 94 7b 00 	jmp	0xf6	; 0xf6 <__bad_interrupt>
      30:	0c 94 7b 00 	jmp	0xf6	; 0xf6 <__bad_interrupt>
      34:	0c 94 ff 14 	jmp	0x29fe	; 0x29fe <__vector_13>
      38:	0c 94 7b 00 	jmp	0xf6	; 0xf6 <__bad_interrupt>
      3c:	0c 94 7b 00 	jmp	0xf6	; 0xf6 <__bad_interrupt>
      40:	0c 94 7b 00 	jmp	0xf6	; 0xf6 <__bad_interrupt>
      44:	0c 94 7b 00 	jmp	0xf6	; 0xf6 <__bad_interrupt>
      48:	0c 94 7b 00 	jmp	0xf6	; 0xf6 <__bad_interrupt>
      4c:	0c 94 2f 10 	jmp	0x205e	; 0x205e <__vector_19>
      50:	0c 94 7b 00 	jmp	0xf6	; 0xf6 <__bad_interrupt>
      54:	0e 08       	sbc	r0, r14
      56:	2d 08       	sbc	r2, r13
      58:	4c 08       	sbc	r4, r12
      5a:	4c 08       	sbc	r4, r12
      5c:	4c 08       	sbc	r4, r12
      5e:	4c 08       	sbc	r4, r12
      60:	4c 08       	sbc	r4, r12
      62:	4c 08       	sbc	r4, r12
      64:	4c 08       	sbc	r4, r12
      66:	4c 08       	sbc	r4, r12
      68:	4c 08       	sbc	r4, r12
      6a:	4c 08       	sbc	r4, r12
      6c:	4c 08       	sbc	r4, r12
      6e:	4c 08       	sbc	r4, r12
      70:	4c 08       	sbc	r4, r12
      72:	4c 08       	sbc	r4, r12
      74:	4c 08       	sbc	r4, r12
      76:	4c 08       	sbc	r4, r12
      78:	4c 08       	sbc	r4, r12
      7a:	4c 08       	sbc	r4, r12
      7c:	4c 08       	sbc	r4, r12
      7e:	4c 08       	sbc	r4, r12
      80:	4c 08       	sbc	r4, r12
      82:	4c 08       	sbc	r4, r12
      84:	4c 08       	sbc	r4, r12
      86:	4c 08       	sbc	r4, r12
      88:	4c 08       	sbc	r4, r12
      8a:	4c 08       	sbc	r4, r12
      8c:	4c 08       	sbc	r4, r12
      8e:	4c 08       	sbc	r4, r12
      90:	4c 08       	sbc	r4, r12
      92:	4c 08       	sbc	r4, r12
      94:	3f 07       	cpc	r19, r31
      96:	48 07       	cpc	r20, r24
      98:	51 07       	cpc	r21, r17
      9a:	5a 07       	cpc	r21, r26
      9c:	63 07       	cpc	r22, r19
      9e:	70 07       	cpc	r23, r16
      a0:	7d 07       	cpc	r23, r29
      a2:	8a 07       	cpc	r24, r26
      a4:	95 07       	cpc	r25, r21
      a6:	9e 07       	cpc	r25, r30
      a8:	a7 07       	cpc	r26, r23
      aa:	b0 07       	cpc	r27, r16
      ac:	b9 07       	cpc	r27, r25
      ae:	c3 07       	cpc	r28, r19
      b0:	cd 07       	cpc	r28, r29
      b2:	d7 07       	cpc	r29, r23
      b4:	e1 07       	cpc	r30, r17
      b6:	e4 07       	cpc	r30, r20
      b8:	f2 07       	cpc	r31, r18
      ba:	07 08       	sbc	r0, r7

000000bc <__ctors_end>:
      bc:	11 24       	eor	r1, r1
      be:	1f be       	out	0x3f, r1	; 63
      c0:	cf e5       	ldi	r28, 0x5F	; 95
      c2:	d8 e0       	ldi	r29, 0x08	; 8
      c4:	de bf       	out	0x3e, r29	; 62
      c6:	cd bf       	out	0x3d, r28	; 61

000000c8 <__do_copy_data>:
      c8:	10 e0       	ldi	r17, 0x00	; 0
      ca:	a0 e6       	ldi	r26, 0x60	; 96
      cc:	b0 e0       	ldi	r27, 0x00	; 0
      ce:	ea e8       	ldi	r30, 0x8A	; 138
      d0:	fc e2       	ldi	r31, 0x2C	; 44
      d2:	02 c0       	rjmp	.+4      	; 0xd8 <__do_copy_data+0x10>
      d4:	05 90       	lpm	r0, Z+
      d6:	0d 92       	st	X+, r0
      d8:	a0 37       	cpi	r26, 0x70	; 112
      da:	b1 07       	cpc	r27, r17
      dc:	d9 f7       	brne	.-10     	; 0xd4 <__do_copy_data+0xc>

000000de <__do_clear_bss>:
      de:	20 e0       	ldi	r18, 0x00	; 0
      e0:	a0 e7       	ldi	r26, 0x70	; 112
      e2:	b0 e0       	ldi	r27, 0x00	; 0
      e4:	01 c0       	rjmp	.+2      	; 0xe8 <.do_clear_bss_start>

000000e6 <.do_clear_bss_loop>:
      e6:	1d 92       	st	X+, r1

000000e8 <.do_clear_bss_start>:
      e8:	a0 3e       	cpi	r26, 0xE0	; 224
      ea:	b2 07       	cpc	r27, r18
      ec:	e1 f7       	brne	.-8      	; 0xe6 <.do_clear_bss_loop>
      ee:	0e 94 a4 0e 	call	0x1d48	; 0x1d48 <main>
      f2:	0c 94 43 16 	jmp	0x2c86	; 0x2c86 <_exit>

000000f6 <__bad_interrupt>:
      f6:	0c 94 00 00 	jmp	0	; 0x0 <__vectors>

000000fa <mcp2515_read_register>:
      fa:	cf 93       	push	r28
      fc:	c8 2f       	mov	r28, r24
      fe:	c4 98       	cbi	0x18, 4	; 24
     100:	83 e0       	ldi	r24, 0x03	; 3
     102:	0e 94 dc 14 	call	0x29b8	; 0x29b8 <spi_put_c>
     106:	8c 2f       	mov	r24, r28
     108:	0e 94 dc 14 	call	0x29b8	; 0x29b8 <spi_put_c>
     10c:	80 ea       	ldi	r24, 0xA0	; 160
     10e:	0e 94 dc 14 	call	0x29b8	; 0x29b8 <spi_put_c>
     112:	c4 9a       	sbi	0x18, 4	; 24
     114:	cf 91       	pop	r28
     116:	08 95       	ret

00000118 <mcp2515_write_register>:
     118:	1f 93       	push	r17
     11a:	cf 93       	push	r28
     11c:	df 93       	push	r29
     11e:	1f 92       	push	r1
     120:	cd b7       	in	r28, 0x3d	; 61
     122:	de b7       	in	r29, 0x3e	; 62
     124:	18 2f       	mov	r17, r24
     126:	c4 98       	cbi	0x18, 4	; 24
     128:	82 e0       	ldi	r24, 0x02	; 2
     12a:	69 83       	std	Y+1, r22	; 0x01
     12c:	0e 94 dc 14 	call	0x29b8	; 0x29b8 <spi_put_c>
     130:	81 2f       	mov	r24, r17
     132:	0e 94 dc 14 	call	0x29b8	; 0x29b8 <spi_put_c>
     136:	69 81       	ldd	r22, Y+1	; 0x01
     138:	86 2f       	mov	r24, r22
     13a:	0e 94 dc 14 	call	0x29b8	; 0x29b8 <spi_put_c>
     13e:	c4 9a       	sbi	0x18, 4	; 24
     140:	0f 90       	pop	r0
     142:	df 91       	pop	r29
     144:	cf 91       	pop	r28
     146:	1f 91       	pop	r17
     148:	08 95       	ret

0000014a <mcp2515_bit_modify>:
     14a:	1f 93       	push	r17
     14c:	cf 93       	push	r28
     14e:	df 93       	push	r29
     150:	00 d0       	rcall	.+0      	; 0x152 <mcp2515_bit_modify+0x8>
     152:	cd b7       	in	r28, 0x3d	; 61
     154:	de b7       	in	r29, 0x3e	; 62
     156:	18 2f       	mov	r17, r24
     158:	c4 98       	cbi	0x18, 4	; 24
     15a:	85 e0       	ldi	r24, 0x05	; 5
     15c:	4a 83       	std	Y+2, r20	; 0x02
     15e:	69 83       	std	Y+1, r22	; 0x01
     160:	0e 94 dc 14 	call	0x29b8	; 0x29b8 <spi_put_c>
     164:	81 2f       	mov	r24, r17
     166:	0e 94 dc 14 	call	0x29b8	; 0x29b8 <spi_put_c>
     16a:	69 81       	ldd	r22, Y+1	; 0x01
     16c:	86 2f       	mov	r24, r22
     16e:	0e 94 dc 14 	call	0x29b8	; 0x29b8 <spi_put_c>
     172:	4a 81       	ldd	r20, Y+2	; 0x02
     174:	84 2f       	mov	r24, r20
     176:	0e 94 dc 14 	call	0x29b8	; 0x29b8 <spi_put_c>
     17a:	c4 9a       	sbi	0x18, 4	; 24
     17c:	0f 90       	pop	r0
     17e:	0f 90       	pop	r0
     180:	df 91       	pop	r29
     182:	cf 91       	pop	r28
     184:	1f 91       	pop	r17
     186:	08 95       	ret

00000188 <mcp2515_init>:
     188:	df 92       	push	r13
     18a:	ef 92       	push	r14
     18c:	ff 92       	push	r15
     18e:	0f 93       	push	r16
     190:	1f 93       	push	r17
     192:	cf 93       	push	r28
     194:	df 93       	push	r29
     196:	ec 01       	movw	r28, r24
     198:	8b 01       	movw	r16, r22
     19a:	df b6       	in	r13, 0x3f	; 63
     19c:	f8 94       	cli
     19e:	c2 98       	cbi	0x18, 2	; 24
     1a0:	80 ec       	ldi	r24, 0xC0	; 192
     1a2:	0e 94 dc 14 	call	0x29b8	; 0x29b8 <spi_put_c>
     1a6:	8e e0       	ldi	r24, 0x0E	; 14
     1a8:	0e 94 7d 00 	call	0xfa	; 0xfa <mcp2515_read_register>
     1ac:	80 7e       	andi	r24, 0xE0	; 224
     1ae:	80 38       	cpi	r24, 0x80	; 128
     1b0:	d1 f7       	brne	.-12     	; 0x1a6 <mcp2515_init+0x1e>
     1b2:	c2 9a       	sbi	0x18, 2	; 24
     1b4:	83 ec       	ldi	r24, 0xC3	; 195
     1b6:	99 e0       	ldi	r25, 0x09	; 9
     1b8:	01 97       	sbiw	r24, 0x01	; 1
     1ba:	f1 f7       	brne	.-4      	; 0x1b8 <mcp2515_init+0x30>
     1bc:	00 c0       	rjmp	.+0      	; 0x1be <mcp2515_init+0x36>
     1be:	00 00       	nop
     1c0:	47 e0       	ldi	r20, 0x07	; 7
     1c2:	67 e0       	ldi	r22, 0x07	; 7
     1c4:	8a e2       	ldi	r24, 0x2A	; 42
     1c6:	0e 94 a5 00 	call	0x14a	; 0x14a <mcp2515_bit_modify>
     1ca:	40 e9       	ldi	r20, 0x90	; 144
     1cc:	60 e9       	ldi	r22, 0x90	; 144
     1ce:	89 e2       	ldi	r24, 0x29	; 41
     1d0:	0e 94 a5 00 	call	0x14a	; 0x14a <mcp2515_bit_modify>
     1d4:	42 e0       	ldi	r20, 0x02	; 2
     1d6:	62 e0       	ldi	r22, 0x02	; 2
     1d8:	88 e2       	ldi	r24, 0x28	; 40
     1da:	0e 94 a5 00 	call	0x14a	; 0x14a <mcp2515_bit_modify>
     1de:	43 e2       	ldi	r20, 0x23	; 35
     1e0:	63 e2       	ldi	r22, 0x23	; 35
     1e2:	8b e2       	ldi	r24, 0x2B	; 43
     1e4:	0e 94 a5 00 	call	0x14a	; 0x14a <mcp2515_bit_modify>
     1e8:	44 e2       	ldi	r20, 0x24	; 36
     1ea:	64 e6       	ldi	r22, 0x64	; 100
     1ec:	80 e6       	ldi	r24, 0x60	; 96
     1ee:	0e 94 a5 00 	call	0x14a	; 0x14a <mcp2515_bit_modify>
     1f2:	40 e2       	ldi	r20, 0x20	; 32
     1f4:	60 e6       	ldi	r22, 0x60	; 96
     1f6:	80 e7       	ldi	r24, 0x70	; 112
     1f8:	0e 94 a5 00 	call	0x14a	; 0x14a <mcp2515_bit_modify>
     1fc:	7e 01       	movw	r14, r28
     1fe:	83 e0       	ldi	r24, 0x03	; 3
     200:	f6 94       	lsr	r15
     202:	e7 94       	ror	r14
     204:	8a 95       	dec	r24
     206:	e1 f7       	brne	.-8      	; 0x200 <mcp2515_init+0x78>
     208:	6e 2d       	mov	r22, r14
     20a:	80 e2       	ldi	r24, 0x20	; 32
     20c:	0e 94 8c 00 	call	0x118	; 0x118 <mcp2515_write_register>
     210:	c2 95       	swap	r28
     212:	cc 0f       	add	r28, r28
     214:	c0 7e       	andi	r28, 0xE0	; 224
     216:	4c 2f       	mov	r20, r28
     218:	60 ee       	ldi	r22, 0xE0	; 224
     21a:	81 e2       	ldi	r24, 0x21	; 33
     21c:	0e 94 a5 00 	call	0x14a	; 0x14a <mcp2515_bit_modify>
     220:	6e 2d       	mov	r22, r14
     222:	84 e2       	ldi	r24, 0x24	; 36
     224:	0e 94 8c 00 	call	0x118	; 0x118 <mcp2515_write_register>
     228:	4c 2f       	mov	r20, r28
     22a:	60 ee       	ldi	r22, 0xE0	; 224
     22c:	85 e2       	ldi	r24, 0x25	; 37
     22e:	0e 94 a5 00 	call	0x14a	; 0x14a <mcp2515_bit_modify>
     232:	e8 01       	movw	r28, r16
     234:	93 e0       	ldi	r25, 0x03	; 3
     236:	d6 95       	lsr	r29
     238:	c7 95       	ror	r28
     23a:	9a 95       	dec	r25
     23c:	e1 f7       	brne	.-8      	; 0x236 <mcp2515_init+0xae>
     23e:	4c 2f       	mov	r20, r28
     240:	6f ef       	ldi	r22, 0xFF	; 255
     242:	80 e0       	ldi	r24, 0x00	; 0
     244:	0e 94 a5 00 	call	0x14a	; 0x14a <mcp2515_bit_modify>
     248:	02 95       	swap	r16
     24a:	00 0f       	add	r16, r16
     24c:	00 7e       	andi	r16, 0xE0	; 224
     24e:	40 2f       	mov	r20, r16
     250:	60 ee       	ldi	r22, 0xE0	; 224
     252:	81 e0       	ldi	r24, 0x01	; 1
     254:	0e 94 a5 00 	call	0x14a	; 0x14a <mcp2515_bit_modify>
     258:	4c 2f       	mov	r20, r28
     25a:	6f ef       	ldi	r22, 0xFF	; 255
     25c:	84 e0       	ldi	r24, 0x04	; 4
     25e:	0e 94 a5 00 	call	0x14a	; 0x14a <mcp2515_bit_modify>
     262:	40 2f       	mov	r20, r16
     264:	60 ee       	ldi	r22, 0xE0	; 224
     266:	85 e0       	ldi	r24, 0x05	; 5
     268:	0e 94 a5 00 	call	0x14a	; 0x14a <mcp2515_bit_modify>
     26c:	4c 2f       	mov	r20, r28
     26e:	6f ef       	ldi	r22, 0xFF	; 255
     270:	88 e0       	ldi	r24, 0x08	; 8
     272:	0e 94 a5 00 	call	0x14a	; 0x14a <mcp2515_bit_modify>
     276:	40 2f       	mov	r20, r16
     278:	60 ee       	ldi	r22, 0xE0	; 224
     27a:	89 e0       	ldi	r24, 0x09	; 9
     27c:	0e 94 a5 00 	call	0x14a	; 0x14a <mcp2515_bit_modify>
     280:	4c 2f       	mov	r20, r28
     282:	6f ef       	ldi	r22, 0xFF	; 255
     284:	80 e1       	ldi	r24, 0x10	; 16
     286:	0e 94 a5 00 	call	0x14a	; 0x14a <mcp2515_bit_modify>
     28a:	40 2f       	mov	r20, r16
     28c:	60 ee       	ldi	r22, 0xE0	; 224
     28e:	81 e1       	ldi	r24, 0x11	; 17
     290:	0e 94 a5 00 	call	0x14a	; 0x14a <mcp2515_bit_modify>
     294:	4c 2f       	mov	r20, r28
     296:	6f ef       	ldi	r22, 0xFF	; 255
     298:	84 e1       	ldi	r24, 0x14	; 20
     29a:	0e 94 a5 00 	call	0x14a	; 0x14a <mcp2515_bit_modify>
     29e:	40 2f       	mov	r20, r16
     2a0:	60 ee       	ldi	r22, 0xE0	; 224
     2a2:	84 e1       	ldi	r24, 0x14	; 20
     2a4:	0e 94 a5 00 	call	0x14a	; 0x14a <mcp2515_bit_modify>
     2a8:	4c 2f       	mov	r20, r28
     2aa:	6f ef       	ldi	r22, 0xFF	; 255
     2ac:	88 e1       	ldi	r24, 0x18	; 24
     2ae:	0e 94 a5 00 	call	0x14a	; 0x14a <mcp2515_bit_modify>
     2b2:	40 2f       	mov	r20, r16
     2b4:	60 ee       	ldi	r22, 0xE0	; 224
     2b6:	88 e1       	ldi	r24, 0x18	; 24
     2b8:	0e 94 a5 00 	call	0x14a	; 0x14a <mcp2515_bit_modify>
     2bc:	40 e0       	ldi	r20, 0x00	; 0
     2be:	6f ef       	ldi	r22, 0xFF	; 255
     2c0:	8c e0       	ldi	r24, 0x0C	; 12
     2c2:	0e 94 a5 00 	call	0x14a	; 0x14a <mcp2515_bit_modify>
     2c6:	40 e0       	ldi	r20, 0x00	; 0
     2c8:	6f ef       	ldi	r22, 0xFF	; 255
     2ca:	8d e0       	ldi	r24, 0x0D	; 13
     2cc:	0e 94 a5 00 	call	0x14a	; 0x14a <mcp2515_bit_modify>
     2d0:	40 e0       	ldi	r20, 0x00	; 0
     2d2:	60 ee       	ldi	r22, 0xE0	; 224
     2d4:	8f e0       	ldi	r24, 0x0F	; 15
     2d6:	0e 94 a5 00 	call	0x14a	; 0x14a <mcp2515_bit_modify>
     2da:	c2 9a       	sbi	0x18, 2	; 24
     2dc:	df be       	out	0x3f, r13	; 63
     2de:	df 91       	pop	r29
     2e0:	cf 91       	pop	r28
     2e2:	1f 91       	pop	r17
     2e4:	0f 91       	pop	r16
     2e6:	ff 90       	pop	r15
     2e8:	ef 90       	pop	r14
     2ea:	df 90       	pop	r13
     2ec:	08 95       	ret

000002ee <can_send_message>:
     2ee:	cf 92       	push	r12
     2f0:	df 92       	push	r13
     2f2:	ef 92       	push	r14
     2f4:	ff 92       	push	r15
     2f6:	0f 93       	push	r16
     2f8:	1f 93       	push	r17
     2fa:	cf 93       	push	r28
     2fc:	df 93       	push	r29
     2fe:	1f 92       	push	r1
     300:	cd b7       	in	r28, 0x3d	; 61
     302:	de b7       	in	r29, 0x3e	; 62
     304:	8c 01       	movw	r16, r24
     306:	c4 98       	cbi	0x18, 4	; 24
     308:	80 ea       	ldi	r24, 0xA0	; 160
     30a:	0e 94 dc 14 	call	0x29b8	; 0x29b8 <spi_put_c>
     30e:	8f ef       	ldi	r24, 0xFF	; 255
     310:	0e 94 dc 14 	call	0x29b8	; 0x29b8 <spi_put_c>
     314:	89 83       	std	Y+1, r24	; 0x01
     316:	8f ef       	ldi	r24, 0xFF	; 255
     318:	0e 94 dc 14 	call	0x29b8	; 0x29b8 <spi_put_c>
     31c:	c4 9a       	sbi	0x18, 4	; 24
     31e:	89 81       	ldd	r24, Y+1	; 0x01
     320:	82 ff       	sbrs	r24, 2
     322:	09 c0       	rjmp	.+18     	; 0x336 <can_send_message+0x48>
     324:	89 81       	ldd	r24, Y+1	; 0x01
     326:	84 ff       	sbrs	r24, 4
     328:	08 c0       	rjmp	.+16     	; 0x33a <can_send_message+0x4c>
     32a:	89 81       	ldd	r24, Y+1	; 0x01
     32c:	86 fd       	sbrc	r24, 6
     32e:	52 c0       	rjmp	.+164    	; 0x3d4 <can_send_message+0xe6>
     330:	54 e0       	ldi	r21, 0x04	; 4
     332:	d5 2e       	mov	r13, r21
     334:	04 c0       	rjmp	.+8      	; 0x33e <can_send_message+0x50>
     336:	d1 2c       	mov	r13, r1
     338:	02 c0       	rjmp	.+4      	; 0x33e <can_send_message+0x50>
     33a:	42 e0       	ldi	r20, 0x02	; 2
     33c:	d4 2e       	mov	r13, r20
     33e:	c4 98       	cbi	0x18, 4	; 24
     340:	8d 2d       	mov	r24, r13
     342:	80 64       	ori	r24, 0x40	; 64
     344:	0e 94 dc 14 	call	0x29b8	; 0x29b8 <spi_put_c>
     348:	f8 01       	movw	r30, r16
     34a:	80 81       	ld	r24, Z
     34c:	91 81       	ldd	r25, Z+1	; 0x01
     34e:	33 e0       	ldi	r19, 0x03	; 3
     350:	96 95       	lsr	r25
     352:	87 95       	ror	r24
     354:	3a 95       	dec	r19
     356:	e1 f7       	brne	.-8      	; 0x350 <can_send_message+0x62>
     358:	0e 94 dc 14 	call	0x29b8	; 0x29b8 <spi_put_c>
     35c:	f8 01       	movw	r30, r16
     35e:	80 81       	ld	r24, Z
     360:	82 95       	swap	r24
     362:	88 0f       	add	r24, r24
     364:	80 7e       	andi	r24, 0xE0	; 224
     366:	0e 94 dc 14 	call	0x29b8	; 0x29b8 <spi_put_c>
     36a:	80 e0       	ldi	r24, 0x00	; 0
     36c:	0e 94 dc 14 	call	0x29b8	; 0x29b8 <spi_put_c>
     370:	80 e0       	ldi	r24, 0x00	; 0
     372:	0e 94 dc 14 	call	0x29b8	; 0x29b8 <spi_put_c>
     376:	f8 01       	movw	r30, r16
     378:	c3 80       	ldd	r12, Z+3	; 0x03
     37a:	f8 e0       	ldi	r31, 0x08	; 8
     37c:	fc 15       	cp	r31, r12
     37e:	10 f4       	brcc	.+4      	; 0x384 <can_send_message+0x96>
     380:	28 e0       	ldi	r18, 0x08	; 8
     382:	c2 2e       	mov	r12, r18
     384:	f8 01       	movw	r30, r16
     386:	82 81       	ldd	r24, Z+2	; 0x02
     388:	88 23       	and	r24, r24
     38a:	29 f0       	breq	.+10     	; 0x396 <can_send_message+0xa8>
     38c:	8c 2d       	mov	r24, r12
     38e:	80 64       	ori	r24, 0x40	; 64
     390:	0e 94 dc 14 	call	0x29b8	; 0x29b8 <spi_put_c>
     394:	11 c0       	rjmp	.+34     	; 0x3b8 <can_send_message+0xca>
     396:	8c 2d       	mov	r24, r12
     398:	0e 94 dc 14 	call	0x29b8	; 0x29b8 <spi_put_c>
     39c:	e1 2c       	mov	r14, r1
     39e:	f1 2c       	mov	r15, r1
     3a0:	09 c0       	rjmp	.+18     	; 0x3b4 <can_send_message+0xc6>
     3a2:	f8 01       	movw	r30, r16
     3a4:	ee 0d       	add	r30, r14
     3a6:	ff 1d       	adc	r31, r15
     3a8:	84 81       	ldd	r24, Z+4	; 0x04
     3aa:	0e 94 dc 14 	call	0x29b8	; 0x29b8 <spi_put_c>
     3ae:	ff ef       	ldi	r31, 0xFF	; 255
     3b0:	ef 1a       	sub	r14, r31
     3b2:	ff 0a       	sbc	r15, r31
     3b4:	ec 14       	cp	r14, r12
     3b6:	a8 f3       	brcs	.-22     	; 0x3a2 <can_send_message+0xb4>
     3b8:	c4 9a       	sbi	0x18, 4	; 24
     3ba:	00 00       	nop
     3bc:	c4 98       	cbi	0x18, 4	; 24
     3be:	d1 10       	cpse	r13, r1
     3c0:	02 c0       	rjmp	.+4      	; 0x3c6 <can_send_message+0xd8>
     3c2:	81 e8       	ldi	r24, 0x81	; 129
     3c4:	02 c0       	rjmp	.+4      	; 0x3ca <can_send_message+0xdc>
     3c6:	8d 2d       	mov	r24, r13
     3c8:	80 68       	ori	r24, 0x80	; 128
     3ca:	0e 94 dc 14 	call	0x29b8	; 0x29b8 <spi_put_c>
     3ce:	c4 9a       	sbi	0x18, 4	; 24
     3d0:	81 e0       	ldi	r24, 0x01	; 1
     3d2:	01 c0       	rjmp	.+2      	; 0x3d6 <can_send_message+0xe8>
     3d4:	80 e0       	ldi	r24, 0x00	; 0
     3d6:	0f 90       	pop	r0
     3d8:	df 91       	pop	r29
     3da:	cf 91       	pop	r28
     3dc:	1f 91       	pop	r17
     3de:	0f 91       	pop	r16
     3e0:	ff 90       	pop	r15
     3e2:	ef 90       	pop	r14
     3e4:	df 90       	pop	r13
     3e6:	cf 90       	pop	r12
     3e8:	08 95       	ret

000003ea <mcp2515_read_rx_status>:
     3ea:	cf 93       	push	r28
     3ec:	c4 98       	cbi	0x18, 4	; 24
     3ee:	80 eb       	ldi	r24, 0xB0	; 176
     3f0:	0e 94 dc 14 	call	0x29b8	; 0x29b8 <spi_put_c>
     3f4:	8f ef       	ldi	r24, 0xFF	; 255
     3f6:	0e 94 dc 14 	call	0x29b8	; 0x29b8 <spi_put_c>
     3fa:	c8 2f       	mov	r28, r24
     3fc:	8f ef       	ldi	r24, 0xFF	; 255
     3fe:	0e 94 dc 14 	call	0x29b8	; 0x29b8 <spi_put_c>
     402:	c4 9a       	sbi	0x18, 4	; 24
     404:	8c 2f       	mov	r24, r28
     406:	cf 91       	pop	r28
     408:	08 95       	ret

0000040a <can_get_message>:
     40a:	df 92       	push	r13
     40c:	ef 92       	push	r14
     40e:	ff 92       	push	r15
     410:	0f 93       	push	r16
     412:	1f 93       	push	r17
     414:	cf 93       	push	r28
     416:	df 93       	push	r29
     418:	1f 92       	push	r1
     41a:	cd b7       	in	r28, 0x3d	; 61
     41c:	de b7       	in	r29, 0x3e	; 62
     41e:	8c 01       	movw	r16, r24
     420:	0e 94 f5 01 	call	0x3ea	; 0x3ea <mcp2515_read_rx_status>
     424:	89 83       	std	Y+1, r24	; 0x01
     426:	89 81       	ldd	r24, Y+1	; 0x01
     428:	86 ff       	sbrs	r24, 6
     42a:	03 c0       	rjmp	.+6      	; 0x432 <can_get_message+0x28>
     42c:	c4 98       	cbi	0x18, 4	; 24
     42e:	80 e9       	ldi	r24, 0x90	; 144
     430:	05 c0       	rjmp	.+10     	; 0x43c <can_get_message+0x32>
     432:	89 81       	ldd	r24, Y+1	; 0x01
     434:	87 ff       	sbrs	r24, 7
     436:	4b c0       	rjmp	.+150    	; 0x4ce <can_get_message+0xc4>
     438:	c4 98       	cbi	0x18, 4	; 24
     43a:	84 e9       	ldi	r24, 0x94	; 148
     43c:	0e 94 dc 14 	call	0x29b8	; 0x29b8 <spi_put_c>
     440:	8f ef       	ldi	r24, 0xFF	; 255
     442:	0e 94 dc 14 	call	0x29b8	; 0x29b8 <spi_put_c>
     446:	98 e0       	ldi	r25, 0x08	; 8
     448:	89 9f       	mul	r24, r25
     44a:	70 01       	movw	r14, r0
     44c:	11 24       	eor	r1, r1
     44e:	f8 01       	movw	r30, r16
     450:	f1 82       	std	Z+1, r15	; 0x01
     452:	e0 82       	st	Z, r14
     454:	8f ef       	ldi	r24, 0xFF	; 255
     456:	0e 94 dc 14 	call	0x29b8	; 0x29b8 <spi_put_c>
     45a:	82 95       	swap	r24
     45c:	86 95       	lsr	r24
     45e:	87 70       	andi	r24, 0x07	; 7
     460:	e8 2a       	or	r14, r24
     462:	f8 01       	movw	r30, r16
     464:	f1 82       	std	Z+1, r15	; 0x01
     466:	e0 82       	st	Z, r14
     468:	8f ef       	ldi	r24, 0xFF	; 255
     46a:	0e 94 dc 14 	call	0x29b8	; 0x29b8 <spi_put_c>
     46e:	8f ef       	ldi	r24, 0xFF	; 255
     470:	0e 94 dc 14 	call	0x29b8	; 0x29b8 <spi_put_c>
     474:	8f ef       	ldi	r24, 0xFF	; 255
     476:	0e 94 dc 14 	call	0x29b8	; 0x29b8 <spi_put_c>
     47a:	6f e0       	ldi	r22, 0x0F	; 15
     47c:	d6 2e       	mov	r13, r22
     47e:	d8 22       	and	r13, r24
     480:	f8 01       	movw	r30, r16
     482:	d3 82       	std	Z+3, r13	; 0x03
     484:	e1 2c       	mov	r14, r1
     486:	f1 2c       	mov	r15, r1
     488:	0a c0       	rjmp	.+20     	; 0x49e <can_get_message+0x94>
     48a:	8f ef       	ldi	r24, 0xFF	; 255
     48c:	0e 94 dc 14 	call	0x29b8	; 0x29b8 <spi_put_c>
     490:	f8 01       	movw	r30, r16
     492:	ee 0d       	add	r30, r14
     494:	ff 1d       	adc	r31, r15
     496:	84 83       	std	Z+4, r24	; 0x04
     498:	ff ef       	ldi	r31, 0xFF	; 255
     49a:	ef 1a       	sub	r14, r31
     49c:	ff 0a       	sbc	r15, r31
     49e:	ed 14       	cp	r14, r13
     4a0:	a0 f3       	brcs	.-24     	; 0x48a <can_get_message+0x80>
     4a2:	c4 9a       	sbi	0x18, 4	; 24
     4a4:	89 81       	ldd	r24, Y+1	; 0x01
     4a6:	83 ff       	sbrs	r24, 3
     4a8:	04 c0       	rjmp	.+8      	; 0x4b2 <can_get_message+0xa8>
     4aa:	81 e0       	ldi	r24, 0x01	; 1
     4ac:	f8 01       	movw	r30, r16
     4ae:	82 83       	std	Z+2, r24	; 0x02
     4b0:	02 c0       	rjmp	.+4      	; 0x4b6 <can_get_message+0xac>
     4b2:	f8 01       	movw	r30, r16
     4b4:	12 82       	std	Z+2, r1	; 0x02
     4b6:	89 81       	ldd	r24, Y+1	; 0x01
     4b8:	40 e0       	ldi	r20, 0x00	; 0
     4ba:	86 ff       	sbrs	r24, 6
     4bc:	02 c0       	rjmp	.+4      	; 0x4c2 <can_get_message+0xb8>
     4be:	61 e0       	ldi	r22, 0x01	; 1
     4c0:	01 c0       	rjmp	.+2      	; 0x4c4 <can_get_message+0xba>
     4c2:	62 e0       	ldi	r22, 0x02	; 2
     4c4:	8c e2       	ldi	r24, 0x2C	; 44
     4c6:	0e 94 a5 00 	call	0x14a	; 0x14a <mcp2515_bit_modify>
     4ca:	89 81       	ldd	r24, Y+1	; 0x01
     4cc:	01 c0       	rjmp	.+2      	; 0x4d0 <can_get_message+0xc6>
     4ce:	8f ef       	ldi	r24, 0xFF	; 255
     4d0:	0f 90       	pop	r0
     4d2:	df 91       	pop	r29
     4d4:	cf 91       	pop	r28
     4d6:	1f 91       	pop	r17
     4d8:	0f 91       	pop	r16
     4da:	ff 90       	pop	r15
     4dc:	ef 90       	pop	r14
     4de:	df 90       	pop	r13
     4e0:	08 95       	ret

000004e2 <PCF8574_write>:
     4e2:	cf 93       	push	r28
     4e4:	df 93       	push	r29
     4e6:	00 d0       	rcall	.+0      	; 0x4e8 <PCF8574_write+0x6>
     4e8:	cd b7       	in	r28, 0x3d	; 61
     4ea:	de b7       	in	r29, 0x3e	; 62
     4ec:	90 e4       	ldi	r25, 0x40	; 64
     4ee:	99 83       	std	Y+1, r25	; 0x01
     4f0:	8a 83       	std	Y+2, r24	; 0x02
     4f2:	20 e0       	ldi	r18, 0x00	; 0
     4f4:	40 e0       	ldi	r20, 0x00	; 0
     4f6:	62 e0       	ldi	r22, 0x02	; 2
     4f8:	ce 01       	movw	r24, r28
     4fa:	01 96       	adiw	r24, 0x01	; 1
     4fc:	0e 94 03 10 	call	0x2006	; 0x2006 <i2c_comm>
     500:	80 e0       	ldi	r24, 0x00	; 0
     502:	0f 90       	pop	r0
     504:	0f 90       	pop	r0
     506:	df 91       	pop	r29
     508:	cf 91       	pop	r28
     50a:	08 95       	ret

0000050c <eprom_write>:
     50c:	bf 92       	push	r11
     50e:	cf 92       	push	r12
     510:	df 92       	push	r13
     512:	ef 92       	push	r14
     514:	ff 92       	push	r15
     516:	0f 93       	push	r16
     518:	1f 93       	push	r17
     51a:	cf 93       	push	r28
     51c:	df 93       	push	r29
     51e:	cd b7       	in	r28, 0x3d	; 61
     520:	de b7       	in	r29, 0x3e	; 62
     522:	64 97       	sbiw	r28, 0x14	; 20
     524:	0f b6       	in	r0, 0x3f	; 63
     526:	f8 94       	cli
     528:	de bf       	out	0x3e, r29	; 62
     52a:	0f be       	out	0x3f, r0	; 63
     52c:	cd bf       	out	0x3d, r28	; 61
     52e:	6c 01       	movw	r12, r24
     530:	7b 01       	movw	r14, r22
     532:	8a 01       	movw	r16, r20
     534:	2f b7       	in	r18, 0x3f	; 63
     536:	f8 94       	cli
     538:	fa 01       	movw	r30, r20
     53a:	80 81       	ld	r24, Z
     53c:	91 81       	ldd	r25, Z+1	; 0x01
     53e:	a2 81       	ldd	r26, Z+2	; 0x02
     540:	b3 81       	ldd	r27, Z+3	; 0x03
     542:	ac 01       	movw	r20, r24
     544:	bd 01       	movw	r22, r26
     546:	ff e0       	ldi	r31, 0x0F	; 15
     548:	76 95       	lsr	r23
     54a:	67 95       	ror	r22
     54c:	57 95       	ror	r21
     54e:	47 95       	ror	r20
     550:	fa 95       	dec	r31
     552:	d1 f7       	brne	.-12     	; 0x548 <eprom_write+0x3c>
     554:	42 70       	andi	r20, 0x02	; 2
     556:	55 27       	eor	r21, r21
     558:	66 27       	eor	r22, r22
     55a:	77 27       	eor	r23, r23
     55c:	40 6a       	ori	r20, 0xA0	; 160
     55e:	49 83       	std	Y+1, r20	; 0x01
     560:	49 2f       	mov	r20, r25
     562:	5a 2f       	mov	r21, r26
     564:	6b 2f       	mov	r22, r27
     566:	77 27       	eor	r23, r23
     568:	4a 83       	std	Y+2, r20	; 0x02
     56a:	8b 83       	std	Y+3, r24	; 0x03
     56c:	80 91 78 00 	lds	r24, 0x0078
     570:	8c 83       	std	Y+4, r24	; 0x04
     572:	80 91 79 00 	lds	r24, 0x0079
     576:	90 91 7a 00 	lds	r25, 0x007A
     57a:	a0 91 7b 00 	lds	r26, 0x007B
     57e:	b0 91 7c 00 	lds	r27, 0x007C
     582:	cd 01       	movw	r24, r26
     584:	aa 27       	eor	r26, r26
     586:	bb 27       	eor	r27, r27
     588:	8d 83       	std	Y+5, r24	; 0x05
     58a:	80 91 79 00 	lds	r24, 0x0079
     58e:	90 91 7a 00 	lds	r25, 0x007A
     592:	a0 91 7b 00 	lds	r26, 0x007B
     596:	b0 91 7c 00 	lds	r27, 0x007C
     59a:	89 2f       	mov	r24, r25
     59c:	9a 2f       	mov	r25, r26
     59e:	ab 2f       	mov	r26, r27
     5a0:	bb 27       	eor	r27, r27
     5a2:	8e 83       	std	Y+6, r24	; 0x06
     5a4:	80 91 79 00 	lds	r24, 0x0079
     5a8:	90 91 7a 00 	lds	r25, 0x007A
     5ac:	a0 91 7b 00 	lds	r26, 0x007B
     5b0:	b0 91 7c 00 	lds	r27, 0x007C
     5b4:	8f 83       	std	Y+7, r24	; 0x07
     5b6:	80 91 a8 00 	lds	r24, 0x00A8
     5ba:	88 87       	std	Y+8, r24	; 0x08
     5bc:	80 91 b8 00 	lds	r24, 0x00B8
     5c0:	89 87       	std	Y+9, r24	; 0x09
     5c2:	f6 01       	movw	r30, r12
     5c4:	85 a1       	ldd	r24, Z+37	; 0x25
     5c6:	96 a1       	ldd	r25, Z+38	; 0x26
     5c8:	89 2f       	mov	r24, r25
     5ca:	99 0f       	add	r25, r25
     5cc:	99 0b       	sbc	r25, r25
     5ce:	8a 87       	std	Y+10, r24	; 0x0a
     5d0:	85 a1       	ldd	r24, Z+37	; 0x25
     5d2:	96 a1       	ldd	r25, Z+38	; 0x26
     5d4:	8b 87       	std	Y+11, r24	; 0x0b
     5d6:	87 a1       	ldd	r24, Z+39	; 0x27
     5d8:	90 a5       	ldd	r25, Z+40	; 0x28
     5da:	89 2f       	mov	r24, r25
     5dc:	99 0f       	add	r25, r25
     5de:	99 0b       	sbc	r25, r25
     5e0:	8c 87       	std	Y+12, r24	; 0x0c
     5e2:	87 a1       	ldd	r24, Z+39	; 0x27
     5e4:	90 a5       	ldd	r25, Z+40	; 0x28
     5e6:	8d 87       	std	Y+13, r24	; 0x0d
     5e8:	f7 01       	movw	r30, r14
     5ea:	85 a1       	ldd	r24, Z+37	; 0x25
     5ec:	96 a1       	ldd	r25, Z+38	; 0x26
     5ee:	89 2f       	mov	r24, r25
     5f0:	99 0f       	add	r25, r25
     5f2:	99 0b       	sbc	r25, r25
     5f4:	8e 87       	std	Y+14, r24	; 0x0e
     5f6:	85 a1       	ldd	r24, Z+37	; 0x25
     5f8:	96 a1       	ldd	r25, Z+38	; 0x26
     5fa:	8f 87       	std	Y+15, r24	; 0x0f
     5fc:	87 a1       	ldd	r24, Z+39	; 0x27
     5fe:	90 a5       	ldd	r25, Z+40	; 0x28
     600:	89 2f       	mov	r24, r25
     602:	99 0f       	add	r25, r25
     604:	99 0b       	sbc	r25, r25
     606:	88 8b       	std	Y+16, r24	; 0x10
     608:	87 a1       	ldd	r24, Z+39	; 0x27
     60a:	90 a5       	ldd	r25, Z+40	; 0x28
     60c:	89 8b       	std	Y+17, r24	; 0x11
     60e:	1a 8a       	std	Y+18, r1	; 0x12
     610:	1b 8a       	std	Y+19, r1	; 0x13
     612:	2f bf       	out	0x3f, r18	; 63
     614:	84 e6       	ldi	r24, 0x64	; 100
     616:	b8 2e       	mov	r11, r24
     618:	20 e0       	ldi	r18, 0x00	; 0
     61a:	40 e0       	ldi	r20, 0x00	; 0
     61c:	63 e1       	ldi	r22, 0x13	; 19
     61e:	ce 01       	movw	r24, r28
     620:	01 96       	adiw	r24, 0x01	; 1
     622:	0e 94 03 10 	call	0x2006	; 0x2006 <i2c_comm>
     626:	80 91 d2 00 	lds	r24, 0x00D2
     62a:	88 23       	and	r24, r24
     62c:	11 f0       	breq	.+4      	; 0x632 <eprom_write+0x126>
     62e:	ba 94       	dec	r11
     630:	99 f7       	brne	.-26     	; 0x618 <eprom_write+0x10c>
     632:	f8 01       	movw	r30, r16
     634:	80 81       	ld	r24, Z
     636:	91 81       	ldd	r25, Z+1	; 0x01
     638:	a2 81       	ldd	r26, Z+2	; 0x02
     63a:	b3 81       	ldd	r27, Z+3	; 0x03
     63c:	40 96       	adiw	r24, 0x10	; 16
     63e:	a1 1d       	adc	r26, r1
     640:	b1 1d       	adc	r27, r1
     642:	80 83       	st	Z, r24
     644:	91 83       	std	Z+1, r25	; 0x01
     646:	a2 83       	std	Z+2, r26	; 0x02
     648:	b3 83       	std	Z+3, r27	; 0x03
     64a:	2f b7       	in	r18, 0x3f	; 63
     64c:	f8 94       	cli
     64e:	40 81       	ld	r20, Z
     650:	51 81       	ldd	r21, Z+1	; 0x01
     652:	62 81       	ldd	r22, Z+2	; 0x02
     654:	73 81       	ldd	r23, Z+3	; 0x03
     656:	db 01       	movw	r26, r22
     658:	ca 01       	movw	r24, r20
     65a:	3f e0       	ldi	r19, 0x0F	; 15
     65c:	b6 95       	lsr	r27
     65e:	a7 95       	ror	r26
     660:	97 95       	ror	r25
     662:	87 95       	ror	r24
     664:	3a 95       	dec	r19
     666:	d1 f7       	brne	.-12     	; 0x65c <eprom_write+0x150>
     668:	82 70       	andi	r24, 0x02	; 2
     66a:	99 27       	eor	r25, r25
     66c:	aa 27       	eor	r26, r26
     66e:	bb 27       	eor	r27, r27
     670:	80 6a       	ori	r24, 0xA0	; 160
     672:	89 83       	std	Y+1, r24	; 0x01
     674:	bb 27       	eor	r27, r27
     676:	a7 2f       	mov	r26, r23
     678:	96 2f       	mov	r25, r22
     67a:	85 2f       	mov	r24, r21
     67c:	8a 83       	std	Y+2, r24	; 0x02
     67e:	4b 83       	std	Y+3, r20	; 0x03
     680:	f6 01       	movw	r30, r12
     682:	83 8d       	ldd	r24, Z+27	; 0x1b
     684:	94 8d       	ldd	r25, Z+28	; 0x1c
     686:	89 2f       	mov	r24, r25
     688:	99 0f       	add	r25, r25
     68a:	99 0b       	sbc	r25, r25
     68c:	8c 83       	std	Y+4, r24	; 0x04
     68e:	83 8d       	ldd	r24, Z+27	; 0x1b
     690:	94 8d       	ldd	r25, Z+28	; 0x1c
     692:	8d 83       	std	Y+5, r24	; 0x05
     694:	85 8d       	ldd	r24, Z+29	; 0x1d
     696:	96 8d       	ldd	r25, Z+30	; 0x1e
     698:	89 2f       	mov	r24, r25
     69a:	99 0f       	add	r25, r25
     69c:	99 0b       	sbc	r25, r25
     69e:	8e 83       	std	Y+6, r24	; 0x06
     6a0:	85 8d       	ldd	r24, Z+29	; 0x1d
     6a2:	96 8d       	ldd	r25, Z+30	; 0x1e
     6a4:	8f 83       	std	Y+7, r24	; 0x07
     6a6:	87 8d       	ldd	r24, Z+31	; 0x1f
     6a8:	90 a1       	ldd	r25, Z+32	; 0x20
     6aa:	a1 a1       	ldd	r26, Z+33	; 0x21
     6ac:	b2 a1       	ldd	r27, Z+34	; 0x22
     6ae:	8b 2f       	mov	r24, r27
     6b0:	bb 27       	eor	r27, r27
     6b2:	87 fd       	sbrc	r24, 7
     6b4:	b0 95       	com	r27
     6b6:	9b 2f       	mov	r25, r27
     6b8:	ab 2f       	mov	r26, r27
     6ba:	88 87       	std	Y+8, r24	; 0x08
     6bc:	87 8d       	ldd	r24, Z+31	; 0x1f
     6be:	90 a1       	ldd	r25, Z+32	; 0x20
     6c0:	a1 a1       	ldd	r26, Z+33	; 0x21
     6c2:	b2 a1       	ldd	r27, Z+34	; 0x22
     6c4:	cd 01       	movw	r24, r26
     6c6:	bb 27       	eor	r27, r27
     6c8:	97 fd       	sbrc	r25, 7
     6ca:	b0 95       	com	r27
     6cc:	ab 2f       	mov	r26, r27
     6ce:	89 87       	std	Y+9, r24	; 0x09
     6d0:	87 8d       	ldd	r24, Z+31	; 0x1f
     6d2:	90 a1       	ldd	r25, Z+32	; 0x20
     6d4:	a1 a1       	ldd	r26, Z+33	; 0x21
     6d6:	b2 a1       	ldd	r27, Z+34	; 0x22
     6d8:	89 2f       	mov	r24, r25
     6da:	9a 2f       	mov	r25, r26
     6dc:	ab 2f       	mov	r26, r27
     6de:	bb 27       	eor	r27, r27
     6e0:	a7 fd       	sbrc	r26, 7
     6e2:	ba 95       	dec	r27
     6e4:	8a 87       	std	Y+10, r24	; 0x0a
     6e6:	87 8d       	ldd	r24, Z+31	; 0x1f
     6e8:	90 a1       	ldd	r25, Z+32	; 0x20
     6ea:	a1 a1       	ldd	r26, Z+33	; 0x21
     6ec:	b2 a1       	ldd	r27, Z+34	; 0x22
     6ee:	8b 87       	std	Y+11, r24	; 0x0b
     6f0:	81 8d       	ldd	r24, Z+25	; 0x19
     6f2:	92 8d       	ldd	r25, Z+26	; 0x1a
     6f4:	89 2f       	mov	r24, r25
     6f6:	99 0f       	add	r25, r25
     6f8:	99 0b       	sbc	r25, r25
     6fa:	8c 87       	std	Y+12, r24	; 0x0c
     6fc:	81 8d       	ldd	r24, Z+25	; 0x19
     6fe:	92 8d       	ldd	r25, Z+26	; 0x1a
     700:	8d 87       	std	Y+13, r24	; 0x0d
     702:	87 89       	ldd	r24, Z+23	; 0x17
     704:	90 8d       	ldd	r25, Z+24	; 0x18
     706:	89 2f       	mov	r24, r25
     708:	99 0f       	add	r25, r25
     70a:	99 0b       	sbc	r25, r25
     70c:	8e 87       	std	Y+14, r24	; 0x0e
     70e:	87 89       	ldd	r24, Z+23	; 0x17
     710:	90 8d       	ldd	r25, Z+24	; 0x18
     712:	8f 87       	std	Y+15, r24	; 0x0f
     714:	83 a5       	ldd	r24, Z+43	; 0x2b
     716:	94 a5       	ldd	r25, Z+44	; 0x2c
     718:	98 8b       	std	Y+16, r25	; 0x10
     71a:	83 a5       	ldd	r24, Z+43	; 0x2b
     71c:	94 a5       	ldd	r25, Z+44	; 0x2c
     71e:	89 8b       	std	Y+17, r24	; 0x11
     720:	81 a5       	ldd	r24, Z+41	; 0x29
     722:	92 a5       	ldd	r25, Z+42	; 0x2a
     724:	9a 8b       	std	Y+18, r25	; 0x12
     726:	81 a5       	ldd	r24, Z+41	; 0x29
     728:	92 a5       	ldd	r25, Z+42	; 0x2a
     72a:	8b 8b       	std	Y+19, r24	; 0x13
     72c:	2f bf       	out	0x3f, r18	; 63
     72e:	e4 e6       	ldi	r30, 0x64	; 100
     730:	de 2e       	mov	r13, r30
     732:	20 e0       	ldi	r18, 0x00	; 0
     734:	40 e0       	ldi	r20, 0x00	; 0
     736:	63 e1       	ldi	r22, 0x13	; 19
     738:	ce 01       	movw	r24, r28
     73a:	01 96       	adiw	r24, 0x01	; 1
     73c:	0e 94 03 10 	call	0x2006	; 0x2006 <i2c_comm>
     740:	80 91 d2 00 	lds	r24, 0x00D2
     744:	88 23       	and	r24, r24
     746:	11 f0       	breq	.+4      	; 0x74c <eprom_write+0x240>
     748:	da 94       	dec	r13
     74a:	99 f7       	brne	.-26     	; 0x732 <eprom_write+0x226>
     74c:	f8 01       	movw	r30, r16
     74e:	80 81       	ld	r24, Z
     750:	91 81       	ldd	r25, Z+1	; 0x01
     752:	a2 81       	ldd	r26, Z+2	; 0x02
     754:	b3 81       	ldd	r27, Z+3	; 0x03
     756:	40 96       	adiw	r24, 0x10	; 16
     758:	a1 1d       	adc	r26, r1
     75a:	b1 1d       	adc	r27, r1
     75c:	80 83       	st	Z, r24
     75e:	91 83       	std	Z+1, r25	; 0x01
     760:	a2 83       	std	Z+2, r26	; 0x02
     762:	b3 83       	std	Z+3, r27	; 0x03
     764:	2f b7       	in	r18, 0x3f	; 63
     766:	f8 94       	cli
     768:	80 81       	ld	r24, Z
     76a:	91 81       	ldd	r25, Z+1	; 0x01
     76c:	a2 81       	ldd	r26, Z+2	; 0x02
     76e:	b3 81       	ldd	r27, Z+3	; 0x03
     770:	ac 01       	movw	r20, r24
     772:	bd 01       	movw	r22, r26
     774:	ef e0       	ldi	r30, 0x0F	; 15
     776:	76 95       	lsr	r23
     778:	67 95       	ror	r22
     77a:	57 95       	ror	r21
     77c:	47 95       	ror	r20
     77e:	ea 95       	dec	r30
     780:	d1 f7       	brne	.-12     	; 0x776 <eprom_write+0x26a>
     782:	42 70       	andi	r20, 0x02	; 2
     784:	55 27       	eor	r21, r21
     786:	66 27       	eor	r22, r22
     788:	77 27       	eor	r23, r23
     78a:	40 6a       	ori	r20, 0xA0	; 160
     78c:	49 83       	std	Y+1, r20	; 0x01
     78e:	49 2f       	mov	r20, r25
     790:	5a 2f       	mov	r21, r26
     792:	6b 2f       	mov	r22, r27
     794:	77 27       	eor	r23, r23
     796:	4a 83       	std	Y+2, r20	; 0x02
     798:	8b 83       	std	Y+3, r24	; 0x03
     79a:	f7 01       	movw	r30, r14
     79c:	83 8d       	ldd	r24, Z+27	; 0x1b
     79e:	94 8d       	ldd	r25, Z+28	; 0x1c
     7a0:	89 2f       	mov	r24, r25
     7a2:	99 0f       	add	r25, r25
     7a4:	99 0b       	sbc	r25, r25
     7a6:	8c 83       	std	Y+4, r24	; 0x04
     7a8:	83 8d       	ldd	r24, Z+27	; 0x1b
     7aa:	94 8d       	ldd	r25, Z+28	; 0x1c
     7ac:	8d 83       	std	Y+5, r24	; 0x05
     7ae:	85 8d       	ldd	r24, Z+29	; 0x1d
     7b0:	96 8d       	ldd	r25, Z+30	; 0x1e
     7b2:	89 2f       	mov	r24, r25
     7b4:	99 0f       	add	r25, r25
     7b6:	99 0b       	sbc	r25, r25
     7b8:	8e 83       	std	Y+6, r24	; 0x06
     7ba:	85 8d       	ldd	r24, Z+29	; 0x1d
     7bc:	96 8d       	ldd	r25, Z+30	; 0x1e
     7be:	8f 83       	std	Y+7, r24	; 0x07
     7c0:	87 8d       	ldd	r24, Z+31	; 0x1f
     7c2:	90 a1       	ldd	r25, Z+32	; 0x20
     7c4:	a1 a1       	ldd	r26, Z+33	; 0x21
     7c6:	b2 a1       	ldd	r27, Z+34	; 0x22
     7c8:	8b 2f       	mov	r24, r27
     7ca:	bb 27       	eor	r27, r27
     7cc:	87 fd       	sbrc	r24, 7
     7ce:	b0 95       	com	r27
     7d0:	9b 2f       	mov	r25, r27
     7d2:	ab 2f       	mov	r26, r27
     7d4:	88 87       	std	Y+8, r24	; 0x08
     7d6:	87 8d       	ldd	r24, Z+31	; 0x1f
     7d8:	90 a1       	ldd	r25, Z+32	; 0x20
     7da:	a1 a1       	ldd	r26, Z+33	; 0x21
     7dc:	b2 a1       	ldd	r27, Z+34	; 0x22
     7de:	cd 01       	movw	r24, r26
     7e0:	bb 27       	eor	r27, r27
     7e2:	97 fd       	sbrc	r25, 7
     7e4:	b0 95       	com	r27
     7e6:	ab 2f       	mov	r26, r27
     7e8:	89 87       	std	Y+9, r24	; 0x09
     7ea:	87 8d       	ldd	r24, Z+31	; 0x1f
     7ec:	90 a1       	ldd	r25, Z+32	; 0x20
     7ee:	a1 a1       	ldd	r26, Z+33	; 0x21
     7f0:	b2 a1       	ldd	r27, Z+34	; 0x22
     7f2:	89 2f       	mov	r24, r25
     7f4:	9a 2f       	mov	r25, r26
     7f6:	ab 2f       	mov	r26, r27
     7f8:	bb 27       	eor	r27, r27
     7fa:	a7 fd       	sbrc	r26, 7
     7fc:	ba 95       	dec	r27
     7fe:	8a 87       	std	Y+10, r24	; 0x0a
     800:	87 8d       	ldd	r24, Z+31	; 0x1f
     802:	90 a1       	ldd	r25, Z+32	; 0x20
     804:	a1 a1       	ldd	r26, Z+33	; 0x21
     806:	b2 a1       	ldd	r27, Z+34	; 0x22
     808:	8b 87       	std	Y+11, r24	; 0x0b
     80a:	81 8d       	ldd	r24, Z+25	; 0x19
     80c:	92 8d       	ldd	r25, Z+26	; 0x1a
     80e:	89 2f       	mov	r24, r25
     810:	99 0f       	add	r25, r25
     812:	99 0b       	sbc	r25, r25
     814:	8c 87       	std	Y+12, r24	; 0x0c
     816:	81 8d       	ldd	r24, Z+25	; 0x19
     818:	92 8d       	ldd	r25, Z+26	; 0x1a
     81a:	8d 87       	std	Y+13, r24	; 0x0d
     81c:	87 89       	ldd	r24, Z+23	; 0x17
     81e:	90 8d       	ldd	r25, Z+24	; 0x18
     820:	89 2f       	mov	r24, r25
     822:	99 0f       	add	r25, r25
     824:	99 0b       	sbc	r25, r25
     826:	8e 87       	std	Y+14, r24	; 0x0e
     828:	87 89       	ldd	r24, Z+23	; 0x17
     82a:	90 8d       	ldd	r25, Z+24	; 0x18
     82c:	8f 87       	std	Y+15, r24	; 0x0f
     82e:	83 a5       	ldd	r24, Z+43	; 0x2b
     830:	94 a5       	ldd	r25, Z+44	; 0x2c
     832:	89 2f       	mov	r24, r25
     834:	99 0f       	add	r25, r25
     836:	99 0b       	sbc	r25, r25
     838:	88 8b       	std	Y+16, r24	; 0x10
     83a:	83 a5       	ldd	r24, Z+43	; 0x2b
     83c:	94 a5       	ldd	r25, Z+44	; 0x2c
     83e:	89 8b       	std	Y+17, r24	; 0x11
     840:	81 a5       	ldd	r24, Z+41	; 0x29
     842:	92 a5       	ldd	r25, Z+42	; 0x2a
     844:	89 2f       	mov	r24, r25
     846:	99 0f       	add	r25, r25
     848:	99 0b       	sbc	r25, r25
     84a:	8a 8b       	std	Y+18, r24	; 0x12
     84c:	81 a5       	ldd	r24, Z+41	; 0x29
     84e:	92 a5       	ldd	r25, Z+42	; 0x2a
     850:	8b 8b       	std	Y+19, r24	; 0x13
     852:	2f bf       	out	0x3f, r18	; 63
     854:	84 e6       	ldi	r24, 0x64	; 100
     856:	f8 2e       	mov	r15, r24
     858:	20 e0       	ldi	r18, 0x00	; 0
     85a:	40 e0       	ldi	r20, 0x00	; 0
     85c:	63 e1       	ldi	r22, 0x13	; 19
     85e:	ce 01       	movw	r24, r28
     860:	01 96       	adiw	r24, 0x01	; 1
     862:	0e 94 03 10 	call	0x2006	; 0x2006 <i2c_comm>
     866:	80 91 d2 00 	lds	r24, 0x00D2
     86a:	88 23       	and	r24, r24
     86c:	11 f0       	breq	.+4      	; 0x872 <__stack+0x13>
     86e:	fa 94       	dec	r15
     870:	99 f7       	brne	.-26     	; 0x858 <eprom_write+0x34c>
     872:	f8 01       	movw	r30, r16
     874:	80 81       	ld	r24, Z
     876:	91 81       	ldd	r25, Z+1	; 0x01
     878:	a2 81       	ldd	r26, Z+2	; 0x02
     87a:	b3 81       	ldd	r27, Z+3	; 0x03
     87c:	40 96       	adiw	r24, 0x10	; 16
     87e:	a1 1d       	adc	r26, r1
     880:	b1 1d       	adc	r27, r1
     882:	80 83       	st	Z, r24
     884:	91 83       	std	Z+1, r25	; 0x01
     886:	a2 83       	std	Z+2, r26	; 0x02
     888:	b3 83       	std	Z+3, r27	; 0x03
     88a:	2f b7       	in	r18, 0x3f	; 63
     88c:	f8 94       	cli
     88e:	80 81       	ld	r24, Z
     890:	91 81       	ldd	r25, Z+1	; 0x01
     892:	a2 81       	ldd	r26, Z+2	; 0x02
     894:	b3 81       	ldd	r27, Z+3	; 0x03
     896:	ac 01       	movw	r20, r24
     898:	bd 01       	movw	r22, r26
     89a:	3f e0       	ldi	r19, 0x0F	; 15
     89c:	76 95       	lsr	r23
     89e:	67 95       	ror	r22
     8a0:	57 95       	ror	r21
     8a2:	47 95       	ror	r20
     8a4:	3a 95       	dec	r19
     8a6:	d1 f7       	brne	.-12     	; 0x89c <__stack+0x3d>
     8a8:	42 70       	andi	r20, 0x02	; 2
     8aa:	55 27       	eor	r21, r21
     8ac:	66 27       	eor	r22, r22
     8ae:	77 27       	eor	r23, r23
     8b0:	40 6a       	ori	r20, 0xA0	; 160
     8b2:	49 83       	std	Y+1, r20	; 0x01
     8b4:	49 2f       	mov	r20, r25
     8b6:	5a 2f       	mov	r21, r26
     8b8:	6b 2f       	mov	r22, r27
     8ba:	77 27       	eor	r23, r23
     8bc:	4a 83       	std	Y+2, r20	; 0x02
     8be:	8b 83       	std	Y+3, r24	; 0x03
     8c0:	8b ef       	ldi	r24, 0xFB	; 251
     8c2:	8c 83       	std	Y+4, r24	; 0x04
     8c4:	8c ef       	ldi	r24, 0xFC	; 252
     8c6:	8d 83       	std	Y+5, r24	; 0x05
     8c8:	8d ef       	ldi	r24, 0xFD	; 253
     8ca:	8e 83       	std	Y+6, r24	; 0x06
     8cc:	8e ef       	ldi	r24, 0xFE	; 254
     8ce:	8f 83       	std	Y+7, r24	; 0x07
     8d0:	2f bf       	out	0x3f, r18	; 63
     8d2:	14 e6       	ldi	r17, 0x64	; 100
     8d4:	20 e0       	ldi	r18, 0x00	; 0
     8d6:	40 e0       	ldi	r20, 0x00	; 0
     8d8:	67 e0       	ldi	r22, 0x07	; 7
     8da:	ce 01       	movw	r24, r28
     8dc:	01 96       	adiw	r24, 0x01	; 1
     8de:	0e 94 03 10 	call	0x2006	; 0x2006 <i2c_comm>
     8e2:	80 91 d2 00 	lds	r24, 0x00D2
     8e6:	88 23       	and	r24, r24
     8e8:	11 f0       	breq	.+4      	; 0x8ee <__stack+0x8f>
     8ea:	11 50       	subi	r17, 0x01	; 1
     8ec:	99 f7       	brne	.-26     	; 0x8d4 <__stack+0x75>
     8ee:	81 e0       	ldi	r24, 0x01	; 1
     8f0:	64 96       	adiw	r28, 0x14	; 20
     8f2:	0f b6       	in	r0, 0x3f	; 63
     8f4:	f8 94       	cli
     8f6:	de bf       	out	0x3e, r29	; 62
     8f8:	0f be       	out	0x3f, r0	; 63
     8fa:	cd bf       	out	0x3d, r28	; 61
     8fc:	df 91       	pop	r29
     8fe:	cf 91       	pop	r28
     900:	1f 91       	pop	r17
     902:	0f 91       	pop	r16
     904:	ff 90       	pop	r15
     906:	ef 90       	pop	r14
     908:	df 90       	pop	r13
     90a:	cf 90       	pop	r12
     90c:	bf 90       	pop	r11
     90e:	08 95       	ret

00000910 <eprom_read>:
     910:	2f 92       	push	r2
     912:	3f 92       	push	r3
     914:	4f 92       	push	r4
     916:	5f 92       	push	r5
     918:	6f 92       	push	r6
     91a:	7f 92       	push	r7
     91c:	8f 92       	push	r8
     91e:	9f 92       	push	r9
     920:	af 92       	push	r10
     922:	bf 92       	push	r11
     924:	cf 92       	push	r12
     926:	df 92       	push	r13
     928:	ef 92       	push	r14
     92a:	ff 92       	push	r15
     92c:	0f 93       	push	r16
     92e:	1f 93       	push	r17
     930:	cf 93       	push	r28
     932:	df 93       	push	r29
     934:	cd b7       	in	r28, 0x3d	; 61
     936:	de b7       	in	r29, 0x3e	; 62
     938:	c9 55       	subi	r28, 0x59	; 89
     93a:	d1 09       	sbc	r29, r1
     93c:	0f b6       	in	r0, 0x3f	; 63
     93e:	f8 94       	cli
     940:	de bf       	out	0x3e, r29	; 62
     942:	0f be       	out	0x3f, r0	; 63
     944:	cd bf       	out	0x3d, r28	; 61
     946:	53 b6       	in	r5, 0x33	; 51
     948:	13 be       	out	0x33, r1	; 51
     94a:	fe 01       	movw	r30, r28
     94c:	ef 5b       	subi	r30, 0xBF	; 191
     94e:	ff 4f       	sbci	r31, 0xFF	; 255
     950:	80 e4       	ldi	r24, 0x40	; 64
     952:	90 e0       	ldi	r25, 0x00	; 0
     954:	a0 e0       	ldi	r26, 0x00	; 0
     956:	b0 e0       	ldi	r27, 0x00	; 0
     958:	80 83       	st	Z, r24
     95a:	91 83       	std	Z+1, r25	; 0x01
     95c:	a2 83       	std	Z+2, r26	; 0x02
     95e:	b3 83       	std	Z+3, r27	; 0x03
     960:	6e 01       	movw	r12, r28
     962:	45 e4       	ldi	r20, 0x45	; 69
     964:	c4 0e       	add	r12, r20
     966:	d1 1c       	adc	r13, r1
     968:	d6 01       	movw	r26, r12
     96a:	1c 92       	st	X, r1
     96c:	11 96       	adiw	r26, 0x01	; 1
     96e:	1c 92       	st	X, r1
     970:	8f 01       	movw	r16, r30
     972:	76 01       	movw	r14, r12
     974:	5e 01       	movw	r10, r28
     976:	b1 e2       	ldi	r27, 0x21	; 33
     978:	ab 0e       	add	r10, r27
     97a:	b1 1c       	adc	r11, r1
     97c:	3e 01       	movw	r6, r28
     97e:	ed e1       	ldi	r30, 0x1D	; 29
     980:	6e 0e       	add	r6, r30
     982:	71 1c       	adc	r7, r1
     984:	f6 c1       	rjmp	.+1004   	; 0xd72 <eprom_read+0x462>
     986:	21 e0       	ldi	r18, 0x01	; 1
     988:	40 e1       	ldi	r20, 0x10	; 16
     98a:	63 e0       	ldi	r22, 0x03	; 3
     98c:	c6 01       	movw	r24, r12
     98e:	0e 94 03 10 	call	0x2006	; 0x2006 <i2c_comm>
     992:	20 91 d2 00 	lds	r18, 0x00D2
     996:	21 11       	cpse	r18, r1
     998:	11 c0       	rjmp	.+34     	; 0x9bc <eprom_read+0xac>
     99a:	d8 01       	movw	r26, r16
     99c:	4d 91       	ld	r20, X+
     99e:	5d 91       	ld	r21, X+
     9a0:	6d 91       	ld	r22, X+
     9a2:	7c 91       	ld	r23, X
     9a4:	40 5f       	subi	r20, 0xF0	; 240
     9a6:	5f 4f       	sbci	r21, 0xFF	; 255
     9a8:	6f 4f       	sbci	r22, 0xFF	; 255
     9aa:	7f 4f       	sbci	r23, 0xFF	; 255
     9ac:	f8 01       	movw	r30, r16
     9ae:	40 83       	st	Z, r20
     9b0:	51 83       	std	Z+1, r21	; 0x01
     9b2:	62 83       	std	Z+2, r22	; 0x02
     9b4:	73 83       	std	Z+3, r23	; 0x03
     9b6:	20 e0       	ldi	r18, 0x00	; 0
     9b8:	30 e0       	ldi	r19, 0x00	; 0
     9ba:	03 c0       	rjmp	.+6      	; 0x9c2 <eprom_read+0xb2>
     9bc:	9a 94       	dec	r9
     9be:	19 f7       	brne	.-58     	; 0x986 <eprom_read+0x76>
     9c0:	ec cf       	rjmp	.-40     	; 0x99a <eprom_read+0x8a>
     9c2:	fc 01       	movw	r30, r24
     9c4:	e2 0f       	add	r30, r18
     9c6:	f3 1f       	adc	r31, r19
     9c8:	40 81       	ld	r20, Z
     9ca:	f5 01       	movw	r30, r10
     9cc:	e2 0f       	add	r30, r18
     9ce:	f3 1f       	adc	r31, r19
     9d0:	40 83       	st	Z, r20
     9d2:	2f 5f       	subi	r18, 0xFF	; 255
     9d4:	3f 4f       	sbci	r19, 0xFF	; 255
     9d6:	20 31       	cpi	r18, 0x10	; 16
     9d8:	31 05       	cpc	r19, r1
     9da:	99 f7       	brne	.-26     	; 0x9c2 <eprom_read+0xb2>
     9dc:	49 a1       	ldd	r20, Y+33	; 0x21
     9de:	8a a1       	ldd	r24, Y+34	; 0x22
     9e0:	3b a1       	ldd	r19, Y+35	; 0x23
     9e2:	2c a1       	ldd	r18, Y+36	; 0x24
     9e4:	91 e0       	ldi	r25, 0x01	; 1
     9e6:	8c 3f       	cpi	r24, 0xFC	; 252
     9e8:	09 f0       	breq	.+2      	; 0x9ec <eprom_read+0xdc>
     9ea:	90 e0       	ldi	r25, 0x00	; 0
     9ec:	81 e0       	ldi	r24, 0x01	; 1
     9ee:	4b 3f       	cpi	r20, 0xFB	; 251
     9f0:	09 f0       	breq	.+2      	; 0x9f4 <eprom_read+0xe4>
     9f2:	80 e0       	ldi	r24, 0x00	; 0
     9f4:	98 23       	and	r25, r24
     9f6:	81 e0       	ldi	r24, 0x01	; 1
     9f8:	3d 3f       	cpi	r19, 0xFD	; 253
     9fa:	09 f0       	breq	.+2      	; 0x9fe <eprom_read+0xee>
     9fc:	80 e0       	ldi	r24, 0x00	; 0
     9fe:	89 23       	and	r24, r25
     a00:	19 f0       	breq	.+6      	; 0xa08 <eprom_read+0xf8>
     a02:	2e 3f       	cpi	r18, 0xFE	; 254
     a04:	09 f4       	brne	.+2      	; 0xa08 <eprom_read+0xf8>
     a06:	dc c1       	rjmp	.+952    	; 0xdc0 <eprom_read+0x4b0>
     a08:	89 a1       	ldd	r24, Y+33	; 0x21
     a0a:	90 e0       	ldi	r25, 0x00	; 0
     a0c:	a0 e0       	ldi	r26, 0x00	; 0
     a0e:	b0 e0       	ldi	r27, 0x00	; 0
     a10:	89 83       	std	Y+1, r24	; 0x01
     a12:	9a 83       	std	Y+2, r25	; 0x02
     a14:	ab 83       	std	Y+3, r26	; 0x03
     a16:	bc 83       	std	Y+4, r27	; 0x04
     a18:	3a a1       	ldd	r19, Y+34	; 0x22
     a1a:	8b a1       	ldd	r24, Y+35	; 0x23
     a1c:	2c a1       	ldd	r18, Y+36	; 0x24
     a1e:	90 e0       	ldi	r25, 0x00	; 0
     a20:	a0 e0       	ldi	r26, 0x00	; 0
     a22:	b0 e0       	ldi	r27, 0x00	; 0
     a24:	ba 2f       	mov	r27, r26
     a26:	a9 2f       	mov	r26, r25
     a28:	98 2f       	mov	r25, r24
     a2a:	88 27       	eor	r24, r24
     a2c:	a3 2b       	or	r26, r19
     a2e:	82 2b       	or	r24, r18
     a30:	8d 83       	std	Y+5, r24	; 0x05
     a32:	9e 83       	std	Y+6, r25	; 0x06
     a34:	af 83       	std	Y+7, r26	; 0x07
     a36:	b8 87       	std	Y+8, r27	; 0x08
     a38:	8d a1       	ldd	r24, Y+37	; 0x25
     a3a:	90 e0       	ldi	r25, 0x00	; 0
     a3c:	a0 e0       	ldi	r26, 0x00	; 0
     a3e:	b0 e0       	ldi	r27, 0x00	; 0
     a40:	89 87       	std	Y+9, r24	; 0x09
     a42:	9a 87       	std	Y+10, r25	; 0x0a
     a44:	ab 87       	std	Y+11, r26	; 0x0b
     a46:	bc 87       	std	Y+12, r27	; 0x0c
     a48:	8e a1       	ldd	r24, Y+38	; 0x26
     a4a:	90 e0       	ldi	r25, 0x00	; 0
     a4c:	a0 e0       	ldi	r26, 0x00	; 0
     a4e:	b0 e0       	ldi	r27, 0x00	; 0
     a50:	8d 87       	std	Y+13, r24	; 0x0d
     a52:	9e 87       	std	Y+14, r25	; 0x0e
     a54:	af 87       	std	Y+15, r26	; 0x0f
     a56:	b8 8b       	std	Y+16, r27	; 0x10
     a58:	8f a1       	ldd	r24, Y+39	; 0x27
     a5a:	28 a5       	ldd	r18, Y+40	; 0x28
     a5c:	2a 96       	adiw	r28, 0x0a	; 10
     a5e:	8f af       	std	Y+63, r24	; 0x3f
     a60:	2a 97       	sbiw	r28, 0x0a	; 10
     a62:	29 96       	adiw	r28, 0x09	; 9
     a64:	1f ae       	std	Y+63, r1	; 0x3f
     a66:	29 97       	sbiw	r28, 0x09	; 9
     a68:	2a 96       	adiw	r28, 0x0a	; 10
     a6a:	4e ad       	ldd	r20, Y+62	; 0x3e
     a6c:	5f ad       	ldd	r21, Y+63	; 0x3f
     a6e:	2a 97       	sbiw	r28, 0x0a	; 10
     a70:	ca 01       	movw	r24, r20
     a72:	aa 27       	eor	r26, r26
     a74:	97 fd       	sbrc	r25, 7
     a76:	a0 95       	com	r26
     a78:	ba 2f       	mov	r27, r26
     a7a:	82 2b       	or	r24, r18
     a7c:	89 8b       	std	Y+17, r24	; 0x11
     a7e:	9a 8b       	std	Y+18, r25	; 0x12
     a80:	ab 8b       	std	Y+19, r26	; 0x13
     a82:	bc 8b       	std	Y+20, r27	; 0x14
     a84:	89 a5       	ldd	r24, Y+41	; 0x29
     a86:	2a a5       	ldd	r18, Y+42	; 0x2a
     a88:	2c 96       	adiw	r28, 0x0c	; 12
     a8a:	8f af       	std	Y+63, r24	; 0x3f
     a8c:	2c 97       	sbiw	r28, 0x0c	; 12
     a8e:	2b 96       	adiw	r28, 0x0b	; 11
     a90:	1f ae       	std	Y+63, r1	; 0x3f
     a92:	2b 97       	sbiw	r28, 0x0b	; 11
     a94:	2c 96       	adiw	r28, 0x0c	; 12
     a96:	ee ad       	ldd	r30, Y+62	; 0x3e
     a98:	ff ad       	ldd	r31, Y+63	; 0x3f
     a9a:	2c 97       	sbiw	r28, 0x0c	; 12
     a9c:	cf 01       	movw	r24, r30
     a9e:	aa 27       	eor	r26, r26
     aa0:	97 fd       	sbrc	r25, 7
     aa2:	a0 95       	com	r26
     aa4:	ba 2f       	mov	r27, r26
     aa6:	82 2b       	or	r24, r18
     aa8:	8d 8b       	std	Y+21, r24	; 0x15
     aaa:	9e 8b       	std	Y+22, r25	; 0x16
     aac:	af 8b       	std	Y+23, r26	; 0x17
     aae:	b8 8f       	std	Y+24, r27	; 0x18
     ab0:	8b a5       	ldd	r24, Y+43	; 0x2b
     ab2:	2c a5       	ldd	r18, Y+44	; 0x2c
     ab4:	2e 96       	adiw	r28, 0x0e	; 14
     ab6:	8f af       	std	Y+63, r24	; 0x3f
     ab8:	2e 97       	sbiw	r28, 0x0e	; 14
     aba:	2d 96       	adiw	r28, 0x0d	; 13
     abc:	1f ae       	std	Y+63, r1	; 0x3f
     abe:	2d 97       	sbiw	r28, 0x0d	; 13
     ac0:	2e 96       	adiw	r28, 0x0e	; 14
     ac2:	4e ad       	ldd	r20, Y+62	; 0x3e
     ac4:	5f ad       	ldd	r21, Y+63	; 0x3f
     ac6:	2e 97       	sbiw	r28, 0x0e	; 14
     ac8:	ca 01       	movw	r24, r20
     aca:	aa 27       	eor	r26, r26
     acc:	97 fd       	sbrc	r25, 7
     ace:	a0 95       	com	r26
     ad0:	ba 2f       	mov	r27, r26
     ad2:	82 2b       	or	r24, r18
     ad4:	89 8f       	std	Y+25, r24	; 0x19
     ad6:	9a 8f       	std	Y+26, r25	; 0x1a
     ad8:	ab 8f       	std	Y+27, r26	; 0x1b
     ada:	bc 8f       	std	Y+28, r27	; 0x1c
     adc:	8d a5       	ldd	r24, Y+45	; 0x2d
     ade:	2e a5       	ldd	r18, Y+46	; 0x2e
     ae0:	60 96       	adiw	r28, 0x10	; 16
     ae2:	8f af       	std	Y+63, r24	; 0x3f
     ae4:	60 97       	sbiw	r28, 0x10	; 16
     ae6:	2f 96       	adiw	r28, 0x0f	; 15
     ae8:	1f ae       	std	Y+63, r1	; 0x3f
     aea:	2f 97       	sbiw	r28, 0x0f	; 15
     aec:	60 96       	adiw	r28, 0x10	; 16
     aee:	ee ad       	ldd	r30, Y+62	; 0x3e
     af0:	ff ad       	ldd	r31, Y+63	; 0x3f
     af2:	60 97       	sbiw	r28, 0x10	; 16
     af4:	cf 01       	movw	r24, r30
     af6:	aa 27       	eor	r26, r26
     af8:	97 fd       	sbrc	r25, 7
     afa:	a0 95       	com	r26
     afc:	ba 2f       	mov	r27, r26
     afe:	82 2b       	or	r24, r18
     b00:	8d 8f       	std	Y+29, r24	; 0x1d
     b02:	9e 8f       	std	Y+30, r25	; 0x1e
     b04:	af 8f       	std	Y+31, r26	; 0x1f
     b06:	b8 a3       	std	Y+32, r27	; 0x20
     b08:	88 24       	eor	r8, r8
     b0a:	83 94       	inc	r8
     b0c:	91 2c       	mov	r9, r1
     b0e:	8c 0e       	add	r8, r28
     b10:	9d 1e       	adc	r9, r29
     b12:	d4 01       	movw	r26, r8
     b14:	6d 91       	ld	r22, X+
     b16:	7d 91       	ld	r23, X+
     b18:	8d 91       	ld	r24, X+
     b1a:	9d 91       	ld	r25, X+
     b1c:	4d 01       	movw	r8, r26
     b1e:	2a e0       	ldi	r18, 0x0A	; 10
     b20:	30 e0       	ldi	r19, 0x00	; 0
     b22:	ae 01       	movw	r20, r28
     b24:	47 5c       	subi	r20, 0xC7	; 199
     b26:	5f 4f       	sbci	r21, 0xFF	; 255
     b28:	0e 94 ea 15 	call	0x2bd4	; 0x2bd4 <ltoa>
     b2c:	ce 01       	movw	r24, r28
     b2e:	c9 96       	adiw	r24, 0x39	; 57
     b30:	0e 94 f3 14 	call	0x29e6	; 0x29e6 <uart_put_s>
     b34:	8b e3       	ldi	r24, 0x3B	; 59
     b36:	0e 94 ef 14 	call	0x29de	; 0x29de <uart_put_c>
     b3a:	8a 14       	cp	r8, r10
     b3c:	9b 04       	cpc	r9, r11
     b3e:	49 f7       	brne	.-46     	; 0xb12 <eprom_read+0x202>
     b40:	a2 e0       	ldi	r26, 0x02	; 2
     b42:	4a 2e       	mov	r4, r26
     b44:	f8 01       	movw	r30, r16
     b46:	80 81       	ld	r24, Z
     b48:	91 81       	ldd	r25, Z+1	; 0x01
     b4a:	a2 81       	ldd	r26, Z+2	; 0x02
     b4c:	b3 81       	ldd	r27, Z+3	; 0x03
     b4e:	7f e0       	ldi	r23, 0x0F	; 15
     b50:	b6 95       	lsr	r27
     b52:	a7 95       	ror	r26
     b54:	97 95       	ror	r25
     b56:	87 95       	ror	r24
     b58:	7a 95       	dec	r23
     b5a:	d1 f7       	brne	.-12     	; 0xb50 <eprom_read+0x240>
     b5c:	82 70       	andi	r24, 0x02	; 2
     b5e:	99 27       	eor	r25, r25
     b60:	aa 27       	eor	r26, r26
     b62:	bb 27       	eor	r27, r27
     b64:	80 6a       	ori	r24, 0xA0	; 160
     b66:	d7 01       	movw	r26, r14
     b68:	8c 93       	st	X, r24
     b6a:	80 81       	ld	r24, Z
     b6c:	91 81       	ldd	r25, Z+1	; 0x01
     b6e:	a2 81       	ldd	r26, Z+2	; 0x02
     b70:	b3 81       	ldd	r27, Z+3	; 0x03
     b72:	89 2f       	mov	r24, r25
     b74:	9a 2f       	mov	r25, r26
     b76:	ab 2f       	mov	r26, r27
     b78:	bb 27       	eor	r27, r27
     b7a:	f7 01       	movw	r30, r14
     b7c:	81 83       	std	Z+1, r24	; 0x01
     b7e:	f8 01       	movw	r30, r16
     b80:	80 81       	ld	r24, Z
     b82:	91 81       	ldd	r25, Z+1	; 0x01
     b84:	a2 81       	ldd	r26, Z+2	; 0x02
     b86:	b3 81       	ldd	r27, Z+3	; 0x03
     b88:	f7 01       	movw	r30, r14
     b8a:	82 83       	std	Z+2, r24	; 0x02
     b8c:	f4 e6       	ldi	r31, 0x64	; 100
     b8e:	9f 2e       	mov	r9, r31
     b90:	21 e0       	ldi	r18, 0x01	; 1
     b92:	40 e1       	ldi	r20, 0x10	; 16
     b94:	63 e0       	ldi	r22, 0x03	; 3
     b96:	c6 01       	movw	r24, r12
     b98:	0e 94 03 10 	call	0x2006	; 0x2006 <i2c_comm>
     b9c:	20 91 d2 00 	lds	r18, 0x00D2
     ba0:	21 11       	cpse	r18, r1
     ba2:	11 c0       	rjmp	.+34     	; 0xbc6 <eprom_read+0x2b6>
     ba4:	d8 01       	movw	r26, r16
     ba6:	4d 91       	ld	r20, X+
     ba8:	5d 91       	ld	r21, X+
     baa:	6d 91       	ld	r22, X+
     bac:	7c 91       	ld	r23, X
     bae:	40 5f       	subi	r20, 0xF0	; 240
     bb0:	5f 4f       	sbci	r21, 0xFF	; 255
     bb2:	6f 4f       	sbci	r22, 0xFF	; 255
     bb4:	7f 4f       	sbci	r23, 0xFF	; 255
     bb6:	f8 01       	movw	r30, r16
     bb8:	40 83       	st	Z, r20
     bba:	51 83       	std	Z+1, r21	; 0x01
     bbc:	62 83       	std	Z+2, r22	; 0x02
     bbe:	73 83       	std	Z+3, r23	; 0x03
     bc0:	20 e0       	ldi	r18, 0x00	; 0
     bc2:	30 e0       	ldi	r19, 0x00	; 0
     bc4:	03 c0       	rjmp	.+6      	; 0xbcc <eprom_read+0x2bc>
     bc6:	9a 94       	dec	r9
     bc8:	19 f7       	brne	.-58     	; 0xb90 <eprom_read+0x280>
     bca:	ec cf       	rjmp	.-40     	; 0xba4 <eprom_read+0x294>
     bcc:	fc 01       	movw	r30, r24
     bce:	e2 0f       	add	r30, r18
     bd0:	f3 1f       	adc	r31, r19
     bd2:	40 81       	ld	r20, Z
     bd4:	f5 01       	movw	r30, r10
     bd6:	e2 0f       	add	r30, r18
     bd8:	f3 1f       	adc	r31, r19
     bda:	40 83       	st	Z, r20
     bdc:	2f 5f       	subi	r18, 0xFF	; 255
     bde:	3f 4f       	sbci	r19, 0xFF	; 255
     be0:	20 31       	cpi	r18, 0x10	; 16
     be2:	31 05       	cpc	r19, r1
     be4:	99 f7       	brne	.-26     	; 0xbcc <eprom_read+0x2bc>
     be6:	49 a1       	ldd	r20, Y+33	; 0x21
     be8:	8a a1       	ldd	r24, Y+34	; 0x22
     bea:	3b a1       	ldd	r19, Y+35	; 0x23
     bec:	2c a1       	ldd	r18, Y+36	; 0x24
     bee:	91 e0       	ldi	r25, 0x01	; 1
     bf0:	8c 3f       	cpi	r24, 0xFC	; 252
     bf2:	09 f0       	breq	.+2      	; 0xbf6 <eprom_read+0x2e6>
     bf4:	90 e0       	ldi	r25, 0x00	; 0
     bf6:	81 e0       	ldi	r24, 0x01	; 1
     bf8:	4b 3f       	cpi	r20, 0xFB	; 251
     bfa:	09 f0       	breq	.+2      	; 0xbfe <eprom_read+0x2ee>
     bfc:	80 e0       	ldi	r24, 0x00	; 0
     bfe:	98 23       	and	r25, r24
     c00:	81 e0       	ldi	r24, 0x01	; 1
     c02:	3d 3f       	cpi	r19, 0xFD	; 253
     c04:	09 f0       	breq	.+2      	; 0xc08 <eprom_read+0x2f8>
     c06:	80 e0       	ldi	r24, 0x00	; 0
     c08:	89 23       	and	r24, r25
     c0a:	19 f0       	breq	.+6      	; 0xc12 <eprom_read+0x302>
     c0c:	2e 3f       	cpi	r18, 0xFE	; 254
     c0e:	09 f4       	brne	.+2      	; 0xc12 <eprom_read+0x302>
     c10:	ad c0       	rjmp	.+346    	; 0xd6c <eprom_read+0x45c>
     c12:	89 a1       	ldd	r24, Y+33	; 0x21
     c14:	2a a1       	ldd	r18, Y+34	; 0x22
     c16:	62 96       	adiw	r28, 0x12	; 18
     c18:	8f af       	std	Y+63, r24	; 0x3f
     c1a:	62 97       	sbiw	r28, 0x12	; 18
     c1c:	61 96       	adiw	r28, 0x11	; 17
     c1e:	1f ae       	std	Y+63, r1	; 0x3f
     c20:	61 97       	sbiw	r28, 0x11	; 17
     c22:	62 96       	adiw	r28, 0x12	; 18
     c24:	4e ad       	ldd	r20, Y+62	; 0x3e
     c26:	5f ad       	ldd	r21, Y+63	; 0x3f
     c28:	62 97       	sbiw	r28, 0x12	; 18
     c2a:	ca 01       	movw	r24, r20
     c2c:	aa 27       	eor	r26, r26
     c2e:	97 fd       	sbrc	r25, 7
     c30:	a0 95       	com	r26
     c32:	ba 2f       	mov	r27, r26
     c34:	82 2b       	or	r24, r18
     c36:	89 83       	std	Y+1, r24	; 0x01
     c38:	9a 83       	std	Y+2, r25	; 0x02
     c3a:	ab 83       	std	Y+3, r26	; 0x03
     c3c:	bc 83       	std	Y+4, r27	; 0x04
     c3e:	8b a1       	ldd	r24, Y+35	; 0x23
     c40:	2c a1       	ldd	r18, Y+36	; 0x24
     c42:	64 96       	adiw	r28, 0x14	; 20
     c44:	8f af       	std	Y+63, r24	; 0x3f
     c46:	64 97       	sbiw	r28, 0x14	; 20
     c48:	63 96       	adiw	r28, 0x13	; 19
     c4a:	1f ae       	std	Y+63, r1	; 0x3f
     c4c:	63 97       	sbiw	r28, 0x13	; 19
     c4e:	64 96       	adiw	r28, 0x14	; 20
     c50:	ee ad       	ldd	r30, Y+62	; 0x3e
     c52:	ff ad       	ldd	r31, Y+63	; 0x3f
     c54:	64 97       	sbiw	r28, 0x14	; 20
     c56:	cf 01       	movw	r24, r30
     c58:	aa 27       	eor	r26, r26
     c5a:	97 fd       	sbrc	r25, 7
     c5c:	a0 95       	com	r26
     c5e:	ba 2f       	mov	r27, r26
     c60:	82 2b       	or	r24, r18
     c62:	8d 83       	std	Y+5, r24	; 0x05
     c64:	9e 83       	std	Y+6, r25	; 0x06
     c66:	af 83       	std	Y+7, r26	; 0x07
     c68:	b8 87       	std	Y+8, r27	; 0x08
     c6a:	8d a1       	ldd	r24, Y+37	; 0x25
     c6c:	4e a1       	ldd	r20, Y+38	; 0x26
     c6e:	3f a1       	ldd	r19, Y+39	; 0x27
     c70:	28 a5       	ldd	r18, Y+40	; 0x28
     c72:	90 e0       	ldi	r25, 0x00	; 0
     c74:	a0 e0       	ldi	r26, 0x00	; 0
     c76:	b0 e0       	ldi	r27, 0x00	; 0
     c78:	b8 2f       	mov	r27, r24
     c7a:	aa 27       	eor	r26, r26
     c7c:	99 27       	eor	r25, r25
     c7e:	88 27       	eor	r24, r24
     c80:	a4 2b       	or	r26, r20
     c82:	93 2b       	or	r25, r19
     c84:	82 2b       	or	r24, r18
     c86:	89 87       	std	Y+9, r24	; 0x09
     c88:	9a 87       	std	Y+10, r25	; 0x0a
     c8a:	ab 87       	std	Y+11, r26	; 0x0b
     c8c:	bc 87       	std	Y+12, r27	; 0x0c
     c8e:	89 a5       	ldd	r24, Y+41	; 0x29
     c90:	2a a5       	ldd	r18, Y+42	; 0x2a
     c92:	66 96       	adiw	r28, 0x16	; 22
     c94:	8f af       	std	Y+63, r24	; 0x3f
     c96:	66 97       	sbiw	r28, 0x16	; 22
     c98:	65 96       	adiw	r28, 0x15	; 21
     c9a:	1f ae       	std	Y+63, r1	; 0x3f
     c9c:	65 97       	sbiw	r28, 0x15	; 21
     c9e:	66 96       	adiw	r28, 0x16	; 22
     ca0:	4e ad       	ldd	r20, Y+62	; 0x3e
     ca2:	5f ad       	ldd	r21, Y+63	; 0x3f
     ca4:	66 97       	sbiw	r28, 0x16	; 22
     ca6:	ca 01       	movw	r24, r20
     ca8:	aa 27       	eor	r26, r26
     caa:	97 fd       	sbrc	r25, 7
     cac:	a0 95       	com	r26
     cae:	ba 2f       	mov	r27, r26
     cb0:	82 2b       	or	r24, r18
     cb2:	8d 87       	std	Y+13, r24	; 0x0d
     cb4:	9e 87       	std	Y+14, r25	; 0x0e
     cb6:	af 87       	std	Y+15, r26	; 0x0f
     cb8:	b8 8b       	std	Y+16, r27	; 0x10
     cba:	8b a5       	ldd	r24, Y+43	; 0x2b
     cbc:	2c a5       	ldd	r18, Y+44	; 0x2c
     cbe:	68 96       	adiw	r28, 0x18	; 24
     cc0:	8f af       	std	Y+63, r24	; 0x3f
     cc2:	68 97       	sbiw	r28, 0x18	; 24
     cc4:	67 96       	adiw	r28, 0x17	; 23
     cc6:	1f ae       	std	Y+63, r1	; 0x3f
     cc8:	67 97       	sbiw	r28, 0x17	; 23
     cca:	68 96       	adiw	r28, 0x18	; 24
     ccc:	ee ad       	ldd	r30, Y+62	; 0x3e
     cce:	ff ad       	ldd	r31, Y+63	; 0x3f
     cd0:	68 97       	sbiw	r28, 0x18	; 24
     cd2:	cf 01       	movw	r24, r30
     cd4:	aa 27       	eor	r26, r26
     cd6:	97 fd       	sbrc	r25, 7
     cd8:	a0 95       	com	r26
     cda:	ba 2f       	mov	r27, r26
     cdc:	82 2b       	or	r24, r18
     cde:	89 8b       	std	Y+17, r24	; 0x11
     ce0:	9a 8b       	std	Y+18, r25	; 0x12
     ce2:	ab 8b       	std	Y+19, r26	; 0x13
     ce4:	bc 8b       	std	Y+20, r27	; 0x14
     ce6:	8d a5       	ldd	r24, Y+45	; 0x2d
     ce8:	2e a5       	ldd	r18, Y+46	; 0x2e
     cea:	6a 96       	adiw	r28, 0x1a	; 26
     cec:	8f af       	std	Y+63, r24	; 0x3f
     cee:	6a 97       	sbiw	r28, 0x1a	; 26
     cf0:	69 96       	adiw	r28, 0x19	; 25
     cf2:	1f ae       	std	Y+63, r1	; 0x3f
     cf4:	69 97       	sbiw	r28, 0x19	; 25
     cf6:	6a 96       	adiw	r28, 0x1a	; 26
     cf8:	4e ad       	ldd	r20, Y+62	; 0x3e
     cfa:	5f ad       	ldd	r21, Y+63	; 0x3f
     cfc:	6a 97       	sbiw	r28, 0x1a	; 26
     cfe:	ca 01       	movw	r24, r20
     d00:	aa 27       	eor	r26, r26
     d02:	97 fd       	sbrc	r25, 7
     d04:	a0 95       	com	r26
     d06:	ba 2f       	mov	r27, r26
     d08:	82 2b       	or	r24, r18
     d0a:	8d 8b       	std	Y+21, r24	; 0x15
     d0c:	9e 8b       	std	Y+22, r25	; 0x16
     d0e:	af 8b       	std	Y+23, r26	; 0x17
     d10:	b8 8f       	std	Y+24, r27	; 0x18
     d12:	8f a5       	ldd	r24, Y+47	; 0x2f
     d14:	28 a9       	ldd	r18, Y+48	; 0x30
     d16:	38 2e       	mov	r3, r24
     d18:	21 2c       	mov	r2, r1
     d1a:	c1 01       	movw	r24, r2
     d1c:	aa 27       	eor	r26, r26
     d1e:	97 fd       	sbrc	r25, 7
     d20:	a0 95       	com	r26
     d22:	ba 2f       	mov	r27, r26
     d24:	82 2b       	or	r24, r18
     d26:	89 8f       	std	Y+25, r24	; 0x19
     d28:	9a 8f       	std	Y+26, r25	; 0x1a
     d2a:	ab 8f       	std	Y+27, r26	; 0x1b
     d2c:	bc 8f       	std	Y+28, r27	; 0x1c
     d2e:	88 24       	eor	r8, r8
     d30:	83 94       	inc	r8
     d32:	91 2c       	mov	r9, r1
     d34:	8c 0e       	add	r8, r28
     d36:	9d 1e       	adc	r9, r29
     d38:	d4 01       	movw	r26, r8
     d3a:	6d 91       	ld	r22, X+
     d3c:	7d 91       	ld	r23, X+
     d3e:	8d 91       	ld	r24, X+
     d40:	9d 91       	ld	r25, X+
     d42:	4d 01       	movw	r8, r26
     d44:	2a e0       	ldi	r18, 0x0A	; 10
     d46:	30 e0       	ldi	r19, 0x00	; 0
     d48:	ae 01       	movw	r20, r28
     d4a:	4f 5c       	subi	r20, 0xCF	; 207
     d4c:	5f 4f       	sbci	r21, 0xFF	; 255
     d4e:	0e 94 ea 15 	call	0x2bd4	; 0x2bd4 <ltoa>
     d52:	ce 01       	movw	r24, r28
     d54:	c1 96       	adiw	r24, 0x31	; 49
     d56:	0e 94 f3 14 	call	0x29e6	; 0x29e6 <uart_put_s>
     d5a:	8b e3       	ldi	r24, 0x3B	; 59
     d5c:	0e 94 ef 14 	call	0x29de	; 0x29de <uart_put_c>
     d60:	86 14       	cp	r8, r6
     d62:	97 04       	cpc	r9, r7
     d64:	49 f7       	brne	.-46     	; 0xd38 <eprom_read+0x428>
     d66:	4a 94       	dec	r4
     d68:	09 f0       	breq	.+2      	; 0xd6c <eprom_read+0x45c>
     d6a:	ec ce       	rjmp	.-552    	; 0xb44 <eprom_read+0x234>
     d6c:	8a e0       	ldi	r24, 0x0A	; 10
     d6e:	0e 94 ef 14 	call	0x29de	; 0x29de <uart_put_c>
     d72:	f8 01       	movw	r30, r16
     d74:	80 81       	ld	r24, Z
     d76:	91 81       	ldd	r25, Z+1	; 0x01
     d78:	a2 81       	ldd	r26, Z+2	; 0x02
     d7a:	b3 81       	ldd	r27, Z+3	; 0x03
     d7c:	2f e0       	ldi	r18, 0x0F	; 15
     d7e:	b6 95       	lsr	r27
     d80:	a7 95       	ror	r26
     d82:	97 95       	ror	r25
     d84:	87 95       	ror	r24
     d86:	2a 95       	dec	r18
     d88:	d1 f7       	brne	.-12     	; 0xd7e <eprom_read+0x46e>
     d8a:	82 70       	andi	r24, 0x02	; 2
     d8c:	99 27       	eor	r25, r25
     d8e:	aa 27       	eor	r26, r26
     d90:	bb 27       	eor	r27, r27
     d92:	80 6a       	ori	r24, 0xA0	; 160
     d94:	d7 01       	movw	r26, r14
     d96:	8c 93       	st	X, r24
     d98:	80 81       	ld	r24, Z
     d9a:	91 81       	ldd	r25, Z+1	; 0x01
     d9c:	a2 81       	ldd	r26, Z+2	; 0x02
     d9e:	b3 81       	ldd	r27, Z+3	; 0x03
     da0:	89 2f       	mov	r24, r25
     da2:	9a 2f       	mov	r25, r26
     da4:	ab 2f       	mov	r26, r27
     da6:	bb 27       	eor	r27, r27
     da8:	f7 01       	movw	r30, r14
     daa:	81 83       	std	Z+1, r24	; 0x01
     dac:	f8 01       	movw	r30, r16
     dae:	80 81       	ld	r24, Z
     db0:	91 81       	ldd	r25, Z+1	; 0x01
     db2:	a2 81       	ldd	r26, Z+2	; 0x02
     db4:	b3 81       	ldd	r27, Z+3	; 0x03
     db6:	f7 01       	movw	r30, r14
     db8:	82 83       	std	Z+2, r24	; 0x02
     dba:	44 e6       	ldi	r20, 0x64	; 100
     dbc:	94 2e       	mov	r9, r20
     dbe:	e3 cd       	rjmp	.-1082   	; 0x986 <eprom_read+0x76>
     dc0:	53 be       	out	0x33, r5	; 51
     dc2:	81 e0       	ldi	r24, 0x01	; 1
     dc4:	c7 5a       	subi	r28, 0xA7	; 167
     dc6:	df 4f       	sbci	r29, 0xFF	; 255
     dc8:	0f b6       	in	r0, 0x3f	; 63
     dca:	f8 94       	cli
     dcc:	de bf       	out	0x3e, r29	; 62
     dce:	0f be       	out	0x3f, r0	; 63
     dd0:	cd bf       	out	0x3d, r28	; 61
     dd2:	df 91       	pop	r29
     dd4:	cf 91       	pop	r28
     dd6:	1f 91       	pop	r17
     dd8:	0f 91       	pop	r16
     dda:	ff 90       	pop	r15
     ddc:	ef 90       	pop	r14
     dde:	df 90       	pop	r13
     de0:	cf 90       	pop	r12
     de2:	bf 90       	pop	r11
     de4:	af 90       	pop	r10
     de6:	9f 90       	pop	r9
     de8:	8f 90       	pop	r8
     dea:	7f 90       	pop	r7
     dec:	6f 90       	pop	r6
     dee:	5f 90       	pop	r5
     df0:	4f 90       	pop	r4
     df2:	3f 90       	pop	r3
     df4:	2f 90       	pop	r2
     df6:	08 95       	ret

00000df8 <receive_command>:
     df8:	7f 92       	push	r7
     dfa:	8f 92       	push	r8
     dfc:	9f 92       	push	r9
     dfe:	af 92       	push	r10
     e00:	bf 92       	push	r11
     e02:	cf 92       	push	r12
     e04:	df 92       	push	r13
     e06:	ef 92       	push	r14
     e08:	ff 92       	push	r15
     e0a:	0f 93       	push	r16
     e0c:	1f 93       	push	r17
     e0e:	cf 93       	push	r28
     e10:	df 93       	push	r29
     e12:	cd b7       	in	r28, 0x3d	; 61
     e14:	de b7       	in	r29, 0x3e	; 62
     e16:	65 97       	sbiw	r28, 0x15	; 21
     e18:	0f b6       	in	r0, 0x3f	; 63
     e1a:	f8 94       	cli
     e1c:	de bf       	out	0x3e, r29	; 62
     e1e:	0f be       	out	0x3f, r0	; 63
     e20:	cd bf       	out	0x3d, r28	; 61
     e22:	4c 01       	movw	r8, r24
     e24:	5b 01       	movw	r10, r22
     e26:	7a 01       	movw	r14, r20
     e28:	69 01       	movw	r12, r18
     e2a:	70 90 91 00 	lds	r7, 0x0091
     e2e:	30 e0       	ldi	r19, 0x00	; 0
     e30:	0e c0       	rjmp	.+28     	; 0xe4e <receive_command+0x56>
     e32:	3f 5f       	subi	r19, 0xFF	; 255
     e34:	83 2f       	mov	r24, r19
     e36:	90 e0       	ldi	r25, 0x00	; 0
     e38:	fc 01       	movw	r30, r24
     e3a:	e1 57       	subi	r30, 0x71	; 113
     e3c:	ff 4f       	sbci	r31, 0xFF	; 255
     e3e:	42 81       	ldd	r20, Z+2	; 0x02
     e40:	ec e0       	ldi	r30, 0x0C	; 12
     e42:	f0 e0       	ldi	r31, 0x00	; 0
     e44:	ec 0f       	add	r30, r28
     e46:	fd 1f       	adc	r31, r29
     e48:	e8 0f       	add	r30, r24
     e4a:	f9 1f       	adc	r31, r25
     e4c:	40 83       	st	Z, r20
     e4e:	e3 2f       	mov	r30, r19
     e50:	f0 e0       	ldi	r31, 0x00	; 0
     e52:	e1 57       	subi	r30, 0x71	; 113
     e54:	ff 4f       	sbci	r31, 0xFF	; 255
     e56:	82 81       	ldd	r24, Z+2	; 0x02
     e58:	81 11       	cpse	r24, r1
     e5a:	eb cf       	rjmp	.-42     	; 0xe32 <receive_command+0x3a>
     e5c:	ce 01       	movw	r24, r28
     e5e:	0d 96       	adiw	r24, 0x0d	; 13
     e60:	0e 94 c3 15 	call	0x2b86	; 0x2b86 <atol>
     e64:	27 2d       	mov	r18, r7
     e66:	30 e0       	ldi	r19, 0x00	; 0
     e68:	f9 01       	movw	r30, r18
     e6a:	e1 54       	subi	r30, 0x41	; 65
     e6c:	f1 09       	sbc	r31, r1
     e6e:	e4 33       	cpi	r30, 0x34	; 52
     e70:	f1 05       	cpc	r31, r1
     e72:	08 f0       	brcs	.+2      	; 0xe76 <receive_command+0x7e>
     e74:	11 c1       	rjmp	.+546    	; 0x1098 <receive_command+0x2a0>
     e76:	e6 5d       	subi	r30, 0xD6	; 214
     e78:	ff 4f       	sbci	r31, 0xFF	; 255
     e7a:	0c 94 84 15 	jmp	0x2b08	; 0x2b08 <__tablejump2__>
     e7e:	61 15       	cp	r22, r1
     e80:	71 05       	cpc	r23, r1
     e82:	21 e0       	ldi	r18, 0x01	; 1
     e84:	82 07       	cpc	r24, r18
     e86:	91 05       	cpc	r25, r1
     e88:	08 f0       	brcs	.+2      	; 0xe8c <receive_command+0x94>
     e8a:	0a c1       	rjmp	.+532    	; 0x10a0 <receive_command+0x2a8>
     e8c:	f7 01       	movw	r30, r14
     e8e:	23 c0       	rjmp	.+70     	; 0xed6 <receive_command+0xde>
     e90:	61 15       	cp	r22, r1
     e92:	71 05       	cpc	r23, r1
     e94:	f1 e0       	ldi	r31, 0x01	; 1
     e96:	8f 07       	cpc	r24, r31
     e98:	91 05       	cpc	r25, r1
     e9a:	08 f0       	brcs	.+2      	; 0xe9e <receive_command+0xa6>
     e9c:	01 c1       	rjmp	.+514    	; 0x10a0 <receive_command+0x2a8>
     e9e:	f7 01       	movw	r30, r14
     ea0:	27 c0       	rjmp	.+78     	; 0xef0 <receive_command+0xf8>
     ea2:	61 15       	cp	r22, r1
     ea4:	71 05       	cpc	r23, r1
     ea6:	f1 e0       	ldi	r31, 0x01	; 1
     ea8:	8f 07       	cpc	r24, r31
     eaa:	91 05       	cpc	r25, r1
     eac:	08 f0       	brcs	.+2      	; 0xeb0 <receive_command+0xb8>
     eae:	f8 c0       	rjmp	.+496    	; 0x10a0 <receive_command+0x2a8>
     eb0:	f7 01       	movw	r30, r14
     eb2:	2b c0       	rjmp	.+86     	; 0xf0a <receive_command+0x112>
     eb4:	69 38       	cpi	r22, 0x89	; 137
     eb6:	f3 e1       	ldi	r31, 0x13	; 19
     eb8:	7f 07       	cpc	r23, r31
     eba:	81 05       	cpc	r24, r1
     ebc:	91 05       	cpc	r25, r1
     ebe:	08 f0       	brcs	.+2      	; 0xec2 <receive_command+0xca>
     ec0:	ef c0       	rjmp	.+478    	; 0x10a0 <receive_command+0x2a8>
     ec2:	f7 01       	movw	r30, r14
     ec4:	2f c0       	rjmp	.+94     	; 0xf24 <receive_command+0x12c>
     ec6:	61 15       	cp	r22, r1
     ec8:	71 05       	cpc	r23, r1
     eca:	f1 e0       	ldi	r31, 0x01	; 1
     ecc:	8f 07       	cpc	r24, r31
     ece:	91 05       	cpc	r25, r1
     ed0:	08 f0       	brcs	.+2      	; 0xed4 <receive_command+0xdc>
     ed2:	e6 c0       	rjmp	.+460    	; 0x10a0 <receive_command+0x2a8>
     ed4:	f6 01       	movw	r30, r12
     ed6:	67 8b       	std	Z+23, r22	; 0x17
     ed8:	70 8f       	std	Z+24, r23	; 0x18
     eda:	81 8f       	std	Z+25, r24	; 0x19
     edc:	92 8f       	std	Z+26, r25	; 0x1a
     ede:	e0 c0       	rjmp	.+448    	; 0x10a0 <receive_command+0x2a8>
     ee0:	61 15       	cp	r22, r1
     ee2:	71 05       	cpc	r23, r1
     ee4:	f1 e0       	ldi	r31, 0x01	; 1
     ee6:	8f 07       	cpc	r24, r31
     ee8:	91 05       	cpc	r25, r1
     eea:	08 f0       	brcs	.+2      	; 0xeee <receive_command+0xf6>
     eec:	d9 c0       	rjmp	.+434    	; 0x10a0 <receive_command+0x2a8>
     eee:	f6 01       	movw	r30, r12
     ef0:	63 8f       	std	Z+27, r22	; 0x1b
     ef2:	74 8f       	std	Z+28, r23	; 0x1c
     ef4:	85 8f       	std	Z+29, r24	; 0x1d
     ef6:	96 8f       	std	Z+30, r25	; 0x1e
     ef8:	d3 c0       	rjmp	.+422    	; 0x10a0 <receive_command+0x2a8>
     efa:	61 15       	cp	r22, r1
     efc:	71 05       	cpc	r23, r1
     efe:	f1 e0       	ldi	r31, 0x01	; 1
     f00:	8f 07       	cpc	r24, r31
     f02:	91 05       	cpc	r25, r1
     f04:	08 f0       	brcs	.+2      	; 0xf08 <receive_command+0x110>
     f06:	cc c0       	rjmp	.+408    	; 0x10a0 <receive_command+0x2a8>
     f08:	f6 01       	movw	r30, r12
     f0a:	67 8f       	std	Z+31, r22	; 0x1f
     f0c:	70 a3       	std	Z+32, r23	; 0x20
     f0e:	81 a3       	std	Z+33, r24	; 0x21
     f10:	92 a3       	std	Z+34, r25	; 0x22
     f12:	c6 c0       	rjmp	.+396    	; 0x10a0 <receive_command+0x2a8>
     f14:	69 38       	cpi	r22, 0x89	; 137
     f16:	f3 e1       	ldi	r31, 0x13	; 19
     f18:	7f 07       	cpc	r23, r31
     f1a:	81 05       	cpc	r24, r1
     f1c:	91 05       	cpc	r25, r1
     f1e:	08 f0       	brcs	.+2      	; 0xf22 <receive_command+0x12a>
     f20:	bf c0       	rjmp	.+382    	; 0x10a0 <receive_command+0x2a8>
     f22:	f6 01       	movw	r30, r12
     f24:	76 8b       	std	Z+22, r23	; 0x16
     f26:	65 8b       	std	Z+21, r22	; 0x15
     f28:	bb c0       	rjmp	.+374    	; 0x10a0 <receive_command+0x2a8>
     f2a:	61 15       	cp	r22, r1
     f2c:	71 05       	cpc	r23, r1
     f2e:	f1 e0       	ldi	r31, 0x01	; 1
     f30:	8f 07       	cpc	r24, r31
     f32:	91 05       	cpc	r25, r1
     f34:	08 f0       	brcs	.+2      	; 0xf38 <receive_command+0x140>
     f36:	b4 c0       	rjmp	.+360    	; 0x10a0 <receive_command+0x2a8>
     f38:	f8 01       	movw	r30, r16
     f3a:	cd cf       	rjmp	.-102    	; 0xed6 <receive_command+0xde>
     f3c:	61 15       	cp	r22, r1
     f3e:	71 05       	cpc	r23, r1
     f40:	f1 e0       	ldi	r31, 0x01	; 1
     f42:	8f 07       	cpc	r24, r31
     f44:	91 05       	cpc	r25, r1
     f46:	08 f0       	brcs	.+2      	; 0xf4a <receive_command+0x152>
     f48:	ab c0       	rjmp	.+342    	; 0x10a0 <receive_command+0x2a8>
     f4a:	f8 01       	movw	r30, r16
     f4c:	d1 cf       	rjmp	.-94     	; 0xef0 <receive_command+0xf8>
     f4e:	61 15       	cp	r22, r1
     f50:	71 05       	cpc	r23, r1
     f52:	f1 e0       	ldi	r31, 0x01	; 1
     f54:	8f 07       	cpc	r24, r31
     f56:	91 05       	cpc	r25, r1
     f58:	08 f0       	brcs	.+2      	; 0xf5c <receive_command+0x164>
     f5a:	a2 c0       	rjmp	.+324    	; 0x10a0 <receive_command+0x2a8>
     f5c:	f8 01       	movw	r30, r16
     f5e:	d5 cf       	rjmp	.-86     	; 0xf0a <receive_command+0x112>
     f60:	61 31       	cpi	r22, 0x11	; 17
     f62:	f7 e2       	ldi	r31, 0x27	; 39
     f64:	7f 07       	cpc	r23, r31
     f66:	81 05       	cpc	r24, r1
     f68:	91 05       	cpc	r25, r1
     f6a:	08 f0       	brcs	.+2      	; 0xf6e <receive_command+0x176>
     f6c:	99 c0       	rjmp	.+306    	; 0x10a0 <receive_command+0x2a8>
     f6e:	f8 01       	movw	r30, r16
     f70:	d9 cf       	rjmp	.-78     	; 0xf24 <receive_command+0x12c>
     f72:	6f 3f       	cpi	r22, 0xFF	; 255
     f74:	71 05       	cpc	r23, r1
     f76:	81 05       	cpc	r24, r1
     f78:	91 05       	cpc	r25, r1
     f7a:	11 f0       	breq	.+4      	; 0xf80 <receive_command+0x188>
     f7c:	08 f0       	brcs	.+2      	; 0xf80 <receive_command+0x188>
     f7e:	90 c0       	rjmp	.+288    	; 0x10a0 <receive_command+0x2a8>
     f80:	f8 01       	movw	r30, r16
     f82:	63 a3       	std	Z+35, r22	; 0x23
     f84:	8d c0       	rjmp	.+282    	; 0x10a0 <receive_command+0x2a8>
     f86:	6f 3f       	cpi	r22, 0xFF	; 255
     f88:	71 05       	cpc	r23, r1
     f8a:	81 05       	cpc	r24, r1
     f8c:	91 05       	cpc	r25, r1
     f8e:	11 f0       	breq	.+4      	; 0xf94 <receive_command+0x19c>
     f90:	08 f0       	brcs	.+2      	; 0xf94 <receive_command+0x19c>
     f92:	86 c0       	rjmp	.+268    	; 0x10a0 <receive_command+0x2a8>
     f94:	60 93 78 00 	sts	0x0078, r22
     f98:	83 c0       	rjmp	.+262    	; 0x10a0 <receive_command+0x2a8>
     f9a:	6f 3f       	cpi	r22, 0xFF	; 255
     f9c:	71 05       	cpc	r23, r1
     f9e:	81 05       	cpc	r24, r1
     fa0:	91 05       	cpc	r25, r1
     fa2:	11 f0       	breq	.+4      	; 0xfa8 <receive_command+0x1b0>
     fa4:	08 f0       	brcs	.+2      	; 0xfa8 <receive_command+0x1b0>
     fa6:	7c c0       	rjmp	.+248    	; 0x10a0 <receive_command+0x2a8>
     fa8:	60 93 a8 00 	sts	0x00A8, r22
     fac:	79 c0       	rjmp	.+242    	; 0x10a0 <receive_command+0x2a8>
     fae:	6f 3f       	cpi	r22, 0xFF	; 255
     fb0:	71 05       	cpc	r23, r1
     fb2:	81 05       	cpc	r24, r1
     fb4:	91 05       	cpc	r25, r1
     fb6:	11 f0       	breq	.+4      	; 0xfbc <receive_command+0x1c4>
     fb8:	08 f0       	brcs	.+2      	; 0xfbc <receive_command+0x1c4>
     fba:	72 c0       	rjmp	.+228    	; 0x10a0 <receive_command+0x2a8>
     fbc:	60 93 b8 00 	sts	0x00B8, r22
     fc0:	6f c0       	rjmp	.+222    	; 0x10a0 <receive_command+0x2a8>
     fc2:	0e 94 88 04 	call	0x910	; 0x910 <eprom_read>
     fc6:	6c c0       	rjmp	.+216    	; 0x10a0 <receive_command+0x2a8>
     fc8:	8b 01       	movw	r16, r22
     fca:	9c 01       	movw	r18, r24
     fcc:	01 50       	subi	r16, 0x01	; 1
     fce:	11 09       	sbc	r17, r1
     fd0:	21 09       	sbc	r18, r1
     fd2:	31 09       	sbc	r19, r1
     fd4:	00 31       	cpi	r16, 0x10	; 16
     fd6:	1e 40       	sbci	r17, 0x0E	; 14
     fd8:	21 05       	cpc	r18, r1
     fda:	31 05       	cpc	r19, r1
     fdc:	08 f0       	brcs	.+2      	; 0xfe0 <receive_command+0x1e8>
     fde:	60 c0       	rjmp	.+192    	; 0x10a0 <receive_command+0x2a8>
     fe0:	f4 01       	movw	r30, r8
     fe2:	0d c0       	rjmp	.+26     	; 0xffe <receive_command+0x206>
     fe4:	8b 01       	movw	r16, r22
     fe6:	9c 01       	movw	r18, r24
     fe8:	01 50       	subi	r16, 0x01	; 1
     fea:	11 09       	sbc	r17, r1
     fec:	21 09       	sbc	r18, r1
     fee:	31 09       	sbc	r19, r1
     ff0:	00 31       	cpi	r16, 0x10	; 16
     ff2:	1e 40       	sbci	r17, 0x0E	; 14
     ff4:	21 05       	cpc	r18, r1
     ff6:	31 05       	cpc	r19, r1
     ff8:	08 f0       	brcs	.+2      	; 0xffc <receive_command+0x204>
     ffa:	52 c0       	rjmp	.+164    	; 0x10a0 <receive_command+0x2a8>
     ffc:	f5 01       	movw	r30, r10
     ffe:	e3 59       	subi	r30, 0x93	; 147
    1000:	ff 4f       	sbci	r31, 0xFF	; 255
    1002:	71 83       	std	Z+1, r23	; 0x01
    1004:	60 83       	st	Z, r22
    1006:	81 e0       	ldi	r24, 0x01	; 1
    1008:	80 93 70 00 	sts	0x0070, r24
    100c:	49 c0       	rjmp	.+146    	; 0x10a0 <receive_command+0x2a8>
    100e:	80 91 aa 00 	lds	r24, 0x00AA
    1012:	91 e0       	ldi	r25, 0x01	; 1
    1014:	89 27       	eor	r24, r25
    1016:	80 93 aa 00 	sts	0x00AA, r24
    101a:	42 c0       	rjmp	.+132    	; 0x10a0 <receive_command+0x2a8>
    101c:	60 38       	cpi	r22, 0x80	; 128
    101e:	e1 e5       	ldi	r30, 0x51	; 81
    1020:	7e 07       	cpc	r23, r30
    1022:	e1 e0       	ldi	r30, 0x01	; 1
    1024:	8e 07       	cpc	r24, r30
    1026:	91 05       	cpc	r25, r1
    1028:	d8 f5       	brcc	.+118    	; 0x10a0 <receive_command+0x2a8>
    102a:	20 e1       	ldi	r18, 0x10	; 16
    102c:	30 e0       	ldi	r19, 0x00	; 0
    102e:	3a 83       	std	Y+2, r19	; 0x02
    1030:	29 83       	std	Y+1, r18	; 0x01
    1032:	1b 82       	std	Y+3, r1	; 0x03
    1034:	25 e0       	ldi	r18, 0x05	; 5
    1036:	2c 83       	std	Y+4, r18	; 0x04
    1038:	22 e0       	ldi	r18, 0x02	; 2
    103a:	2d 83       	std	Y+5, r18	; 0x05
    103c:	8e 83       	std	Y+6, r24	; 0x06
    103e:	7f 83       	std	Y+7, r23	; 0x07
    1040:	68 87       	std	Y+8, r22	; 0x08
    1042:	10 e0       	ldi	r17, 0x00	; 0
    1044:	01 c0       	rjmp	.+2      	; 0x1048 <receive_command+0x250>
    1046:	1f 5f       	subi	r17, 0xFF	; 255
    1048:	ce 01       	movw	r24, r28
    104a:	01 96       	adiw	r24, 0x01	; 1
    104c:	0e 94 77 01 	call	0x2ee	; 0x2ee <can_send_message>
    1050:	1a 30       	cpi	r17, 0x0A	; 10
    1052:	30 f5       	brcc	.+76     	; 0x10a0 <receive_command+0x2a8>
    1054:	88 23       	and	r24, r24
    1056:	b9 f3       	breq	.-18     	; 0x1046 <receive_command+0x24e>
    1058:	23 c0       	rjmp	.+70     	; 0x10a0 <receive_command+0x2a8>
    105a:	60 38       	cpi	r22, 0x80	; 128
    105c:	f1 e5       	ldi	r31, 0x51	; 81
    105e:	7f 07       	cpc	r23, r31
    1060:	f1 e0       	ldi	r31, 0x01	; 1
    1062:	8f 07       	cpc	r24, r31
    1064:	91 05       	cpc	r25, r1
    1066:	e0 f4       	brcc	.+56     	; 0x10a0 <receive_command+0x2a8>
    1068:	20 e2       	ldi	r18, 0x20	; 32
    106a:	30 e0       	ldi	r19, 0x00	; 0
    106c:	3a 83       	std	Y+2, r19	; 0x02
    106e:	29 83       	std	Y+1, r18	; 0x01
    1070:	1b 82       	std	Y+3, r1	; 0x03
    1072:	25 e0       	ldi	r18, 0x05	; 5
    1074:	2c 83       	std	Y+4, r18	; 0x04
    1076:	22 e0       	ldi	r18, 0x02	; 2
    1078:	2d 83       	std	Y+5, r18	; 0x05
    107a:	8e 83       	std	Y+6, r24	; 0x06
    107c:	7f 83       	std	Y+7, r23	; 0x07
    107e:	68 87       	std	Y+8, r22	; 0x08
    1080:	10 e0       	ldi	r17, 0x00	; 0
    1082:	01 c0       	rjmp	.+2      	; 0x1086 <receive_command+0x28e>
    1084:	1f 5f       	subi	r17, 0xFF	; 255
    1086:	ce 01       	movw	r24, r28
    1088:	01 96       	adiw	r24, 0x01	; 1
    108a:	0e 94 77 01 	call	0x2ee	; 0x2ee <can_send_message>
    108e:	1a 30       	cpi	r17, 0x0A	; 10
    1090:	38 f4       	brcc	.+14     	; 0x10a0 <receive_command+0x2a8>
    1092:	88 23       	and	r24, r24
    1094:	b9 f3       	breq	.-18     	; 0x1084 <receive_command+0x28c>
    1096:	04 c0       	rjmp	.+8      	; 0x10a0 <receive_command+0x2a8>
    1098:	80 e6       	ldi	r24, 0x60	; 96
    109a:	90 e0       	ldi	r25, 0x00	; 0
    109c:	0e 94 f3 14 	call	0x29e6	; 0x29e6 <uart_put_s>
    10a0:	10 92 8f 00 	sts	0x008F, r1
    10a4:	65 96       	adiw	r28, 0x15	; 21
    10a6:	0f b6       	in	r0, 0x3f	; 63
    10a8:	f8 94       	cli
    10aa:	de bf       	out	0x3e, r29	; 62
    10ac:	0f be       	out	0x3f, r0	; 63
    10ae:	cd bf       	out	0x3d, r28	; 61
    10b0:	df 91       	pop	r29
    10b2:	cf 91       	pop	r28
    10b4:	1f 91       	pop	r17
    10b6:	0f 91       	pop	r16
    10b8:	ff 90       	pop	r15
    10ba:	ef 90       	pop	r14
    10bc:	df 90       	pop	r13
    10be:	cf 90       	pop	r12
    10c0:	bf 90       	pop	r11
    10c2:	af 90       	pop	r10
    10c4:	9f 90       	pop	r9
    10c6:	8f 90       	pop	r8
    10c8:	7f 90       	pop	r7
    10ca:	08 95       	ret

000010cc <debug>:
    10cc:	1f 93       	push	r17
    10ce:	cf 93       	push	r28
    10d0:	df 93       	push	r29
    10d2:	cd b7       	in	r28, 0x3d	; 61
    10d4:	de b7       	in	r29, 0x3e	; 62
    10d6:	c4 59       	subi	r28, 0x94	; 148
    10d8:	d1 09       	sbc	r29, r1
    10da:	0f b6       	in	r0, 0x3f	; 63
    10dc:	f8 94       	cli
    10de:	de bf       	out	0x3e, r29	; 62
    10e0:	0f be       	out	0x3f, r0	; 63
    10e2:	cd bf       	out	0x3d, r28	; 61
    10e4:	dc 01       	movw	r26, r24
    10e6:	9b 01       	movw	r18, r22
    10e8:	40 91 78 00 	lds	r20, 0x0078
    10ec:	50 e0       	ldi	r21, 0x00	; 0
    10ee:	60 e0       	ldi	r22, 0x00	; 0
    10f0:	70 e0       	ldi	r23, 0x00	; 0
    10f2:	49 83       	std	Y+1, r20	; 0x01
    10f4:	5a 83       	std	Y+2, r21	; 0x02
    10f6:	6b 83       	std	Y+3, r22	; 0x03
    10f8:	7c 83       	std	Y+4, r23	; 0x04
    10fa:	40 91 79 00 	lds	r20, 0x0079
    10fe:	50 91 7a 00 	lds	r21, 0x007A
    1102:	60 91 7b 00 	lds	r22, 0x007B
    1106:	70 91 7c 00 	lds	r23, 0x007C
    110a:	4d 83       	std	Y+5, r20	; 0x05
    110c:	5e 83       	std	Y+6, r21	; 0x06
    110e:	6f 83       	std	Y+7, r22	; 0x07
    1110:	78 87       	std	Y+8, r23	; 0x08
    1112:	40 91 a8 00 	lds	r20, 0x00A8
    1116:	50 e0       	ldi	r21, 0x00	; 0
    1118:	60 e0       	ldi	r22, 0x00	; 0
    111a:	70 e0       	ldi	r23, 0x00	; 0
    111c:	49 87       	std	Y+9, r20	; 0x09
    111e:	5a 87       	std	Y+10, r21	; 0x0a
    1120:	6b 87       	std	Y+11, r22	; 0x0b
    1122:	7c 87       	std	Y+12, r23	; 0x0c
    1124:	40 91 b8 00 	lds	r20, 0x00B8
    1128:	50 e0       	ldi	r21, 0x00	; 0
    112a:	60 e0       	ldi	r22, 0x00	; 0
    112c:	70 e0       	ldi	r23, 0x00	; 0
    112e:	4d 87       	std	Y+13, r20	; 0x0d
    1130:	5e 87       	std	Y+14, r21	; 0x0e
    1132:	6f 87       	std	Y+15, r22	; 0x0f
    1134:	78 8b       	std	Y+16, r23	; 0x10
    1136:	14 96       	adiw	r26, 0x04	; 4
    1138:	4d 91       	ld	r20, X+
    113a:	5c 91       	ld	r21, X
    113c:	15 97       	sbiw	r26, 0x05	; 5
    113e:	66 27       	eor	r22, r22
    1140:	57 fd       	sbrc	r21, 7
    1142:	60 95       	com	r22
    1144:	76 2f       	mov	r23, r22
    1146:	49 8b       	std	Y+17, r20	; 0x11
    1148:	5a 8b       	std	Y+18, r21	; 0x12
    114a:	6b 8b       	std	Y+19, r22	; 0x13
    114c:	7c 8b       	std	Y+20, r23	; 0x14
    114e:	f9 01       	movw	r30, r18
    1150:	44 81       	ldd	r20, Z+4	; 0x04
    1152:	55 81       	ldd	r21, Z+5	; 0x05
    1154:	66 27       	eor	r22, r22
    1156:	57 fd       	sbrc	r21, 7
    1158:	60 95       	com	r22
    115a:	76 2f       	mov	r23, r22
    115c:	4d 8b       	std	Y+21, r20	; 0x15
    115e:	5e 8b       	std	Y+22, r21	; 0x16
    1160:	6f 8b       	std	Y+23, r22	; 0x17
    1162:	78 8f       	std	Y+24, r23	; 0x18
    1164:	16 96       	adiw	r26, 0x06	; 6
    1166:	4d 91       	ld	r20, X+
    1168:	5c 91       	ld	r21, X
    116a:	17 97       	sbiw	r26, 0x07	; 7
    116c:	66 27       	eor	r22, r22
    116e:	57 fd       	sbrc	r21, 7
    1170:	60 95       	com	r22
    1172:	76 2f       	mov	r23, r22
    1174:	49 8f       	std	Y+25, r20	; 0x19
    1176:	5a 8f       	std	Y+26, r21	; 0x1a
    1178:	6b 8f       	std	Y+27, r22	; 0x1b
    117a:	7c 8f       	std	Y+28, r23	; 0x1c
    117c:	46 81       	ldd	r20, Z+6	; 0x06
    117e:	57 81       	ldd	r21, Z+7	; 0x07
    1180:	66 27       	eor	r22, r22
    1182:	57 fd       	sbrc	r21, 7
    1184:	60 95       	com	r22
    1186:	76 2f       	mov	r23, r22
    1188:	4d 8f       	std	Y+29, r20	; 0x1d
    118a:	5e 8f       	std	Y+30, r21	; 0x1e
    118c:	6f 8f       	std	Y+31, r22	; 0x1f
    118e:	78 a3       	std	Y+32, r23	; 0x20
    1190:	18 96       	adiw	r26, 0x08	; 8
    1192:	4d 91       	ld	r20, X+
    1194:	5d 91       	ld	r21, X+
    1196:	6d 91       	ld	r22, X+
    1198:	7c 91       	ld	r23, X
    119a:	1b 97       	sbiw	r26, 0x0b	; 11
    119c:	49 a3       	std	Y+33, r20	; 0x21
    119e:	5a a3       	std	Y+34, r21	; 0x22
    11a0:	6b a3       	std	Y+35, r22	; 0x23
    11a2:	7c a3       	std	Y+36, r23	; 0x24
    11a4:	40 85       	ldd	r20, Z+8	; 0x08
    11a6:	51 85       	ldd	r21, Z+9	; 0x09
    11a8:	62 85       	ldd	r22, Z+10	; 0x0a
    11aa:	73 85       	ldd	r23, Z+11	; 0x0b
    11ac:	4d a3       	std	Y+37, r20	; 0x25
    11ae:	5e a3       	std	Y+38, r21	; 0x26
    11b0:	6f a3       	std	Y+39, r22	; 0x27
    11b2:	78 a7       	std	Y+40, r23	; 0x28
    11b4:	12 96       	adiw	r26, 0x02	; 2
    11b6:	4d 91       	ld	r20, X+
    11b8:	5c 91       	ld	r21, X
    11ba:	13 97       	sbiw	r26, 0x03	; 3
    11bc:	66 27       	eor	r22, r22
    11be:	57 fd       	sbrc	r21, 7
    11c0:	60 95       	com	r22
    11c2:	76 2f       	mov	r23, r22
    11c4:	49 a7       	std	Y+41, r20	; 0x29
    11c6:	5a a7       	std	Y+42, r21	; 0x2a
    11c8:	6b a7       	std	Y+43, r22	; 0x2b
    11ca:	7c a7       	std	Y+44, r23	; 0x2c
    11cc:	42 81       	ldd	r20, Z+2	; 0x02
    11ce:	53 81       	ldd	r21, Z+3	; 0x03
    11d0:	66 27       	eor	r22, r22
    11d2:	57 fd       	sbrc	r21, 7
    11d4:	60 95       	com	r22
    11d6:	76 2f       	mov	r23, r22
    11d8:	4d a7       	std	Y+45, r20	; 0x2d
    11da:	5e a7       	std	Y+46, r21	; 0x2e
    11dc:	6f a7       	std	Y+47, r22	; 0x2f
    11de:	78 ab       	std	Y+48, r23	; 0x30
    11e0:	1e 96       	adiw	r26, 0x0e	; 14
    11e2:	4c 91       	ld	r20, X
    11e4:	1e 97       	sbiw	r26, 0x0e	; 14
    11e6:	50 e0       	ldi	r21, 0x00	; 0
    11e8:	60 e0       	ldi	r22, 0x00	; 0
    11ea:	70 e0       	ldi	r23, 0x00	; 0
    11ec:	49 ab       	std	Y+49, r20	; 0x31
    11ee:	5a ab       	std	Y+50, r21	; 0x32
    11f0:	6b ab       	std	Y+51, r22	; 0x33
    11f2:	7c ab       	std	Y+52, r23	; 0x34
    11f4:	46 85       	ldd	r20, Z+14	; 0x0e
    11f6:	50 e0       	ldi	r21, 0x00	; 0
    11f8:	60 e0       	ldi	r22, 0x00	; 0
    11fa:	70 e0       	ldi	r23, 0x00	; 0
    11fc:	4d ab       	std	Y+53, r20	; 0x35
    11fe:	5e ab       	std	Y+54, r21	; 0x36
    1200:	6f ab       	std	Y+55, r22	; 0x37
    1202:	78 af       	std	Y+56, r23	; 0x38
    1204:	4d 91       	ld	r20, X+
    1206:	5c 91       	ld	r21, X
    1208:	11 97       	sbiw	r26, 0x01	; 1
    120a:	66 27       	eor	r22, r22
    120c:	57 fd       	sbrc	r21, 7
    120e:	60 95       	com	r22
    1210:	76 2f       	mov	r23, r22
    1212:	49 af       	std	Y+57, r20	; 0x39
    1214:	5a af       	std	Y+58, r21	; 0x3a
    1216:	6b af       	std	Y+59, r22	; 0x3b
    1218:	7c af       	std	Y+60, r23	; 0x3c
    121a:	40 81       	ld	r20, Z
    121c:	51 81       	ldd	r21, Z+1	; 0x01
    121e:	66 27       	eor	r22, r22
    1220:	57 fd       	sbrc	r21, 7
    1222:	60 95       	com	r22
    1224:	76 2f       	mov	r23, r22
    1226:	21 96       	adiw	r28, 0x01	; 1
    1228:	4c af       	std	Y+60, r20	; 0x3c
    122a:	5d af       	std	Y+61, r21	; 0x3d
    122c:	6e af       	std	Y+62, r22	; 0x3e
    122e:	7f af       	std	Y+63, r23	; 0x3f
    1230:	21 97       	sbiw	r28, 0x01	; 1
    1232:	1f 96       	adiw	r26, 0x0f	; 15
    1234:	4d 91       	ld	r20, X+
    1236:	5c 91       	ld	r21, X
    1238:	50 97       	sbiw	r26, 0x10	; 16
    123a:	66 27       	eor	r22, r22
    123c:	57 fd       	sbrc	r21, 7
    123e:	60 95       	com	r22
    1240:	76 2f       	mov	r23, r22
    1242:	25 96       	adiw	r28, 0x05	; 5
    1244:	4c af       	std	Y+60, r20	; 0x3c
    1246:	5d af       	std	Y+61, r21	; 0x3d
    1248:	6e af       	std	Y+62, r22	; 0x3e
    124a:	7f af       	std	Y+63, r23	; 0x3f
    124c:	25 97       	sbiw	r28, 0x05	; 5
    124e:	47 85       	ldd	r20, Z+15	; 0x0f
    1250:	50 89       	ldd	r21, Z+16	; 0x10
    1252:	66 27       	eor	r22, r22
    1254:	57 fd       	sbrc	r21, 7
    1256:	60 95       	com	r22
    1258:	76 2f       	mov	r23, r22
    125a:	29 96       	adiw	r28, 0x09	; 9
    125c:	4c af       	std	Y+60, r20	; 0x3c
    125e:	5d af       	std	Y+61, r21	; 0x3d
    1260:	6e af       	std	Y+62, r22	; 0x3e
    1262:	7f af       	std	Y+63, r23	; 0x3f
    1264:	29 97       	sbiw	r28, 0x09	; 9
    1266:	51 96       	adiw	r26, 0x11	; 17
    1268:	4d 91       	ld	r20, X+
    126a:	5c 91       	ld	r21, X
    126c:	52 97       	sbiw	r26, 0x12	; 18
    126e:	66 27       	eor	r22, r22
    1270:	57 fd       	sbrc	r21, 7
    1272:	60 95       	com	r22
    1274:	76 2f       	mov	r23, r22
    1276:	2d 96       	adiw	r28, 0x0d	; 13
    1278:	4c af       	std	Y+60, r20	; 0x3c
    127a:	5d af       	std	Y+61, r21	; 0x3d
    127c:	6e af       	std	Y+62, r22	; 0x3e
    127e:	7f af       	std	Y+63, r23	; 0x3f
    1280:	2d 97       	sbiw	r28, 0x0d	; 13
    1282:	41 89       	ldd	r20, Z+17	; 0x11
    1284:	52 89       	ldd	r21, Z+18	; 0x12
    1286:	66 27       	eor	r22, r22
    1288:	57 fd       	sbrc	r21, 7
    128a:	60 95       	com	r22
    128c:	76 2f       	mov	r23, r22
    128e:	61 96       	adiw	r28, 0x11	; 17
    1290:	4c af       	std	Y+60, r20	; 0x3c
    1292:	5d af       	std	Y+61, r21	; 0x3d
    1294:	6e af       	std	Y+62, r22	; 0x3e
    1296:	7f af       	std	Y+63, r23	; 0x3f
    1298:	61 97       	sbiw	r28, 0x11	; 17
    129a:	55 96       	adiw	r26, 0x15	; 21
    129c:	4d 91       	ld	r20, X+
    129e:	5c 91       	ld	r21, X
    12a0:	56 97       	sbiw	r26, 0x16	; 22
    12a2:	66 27       	eor	r22, r22
    12a4:	57 fd       	sbrc	r21, 7
    12a6:	60 95       	com	r22
    12a8:	76 2f       	mov	r23, r22
    12aa:	65 96       	adiw	r28, 0x15	; 21
    12ac:	4c af       	std	Y+60, r20	; 0x3c
    12ae:	5d af       	std	Y+61, r21	; 0x3d
    12b0:	6e af       	std	Y+62, r22	; 0x3e
    12b2:	7f af       	std	Y+63, r23	; 0x3f
    12b4:	65 97       	sbiw	r28, 0x15	; 21
    12b6:	45 89       	ldd	r20, Z+21	; 0x15
    12b8:	56 89       	ldd	r21, Z+22	; 0x16
    12ba:	66 27       	eor	r22, r22
    12bc:	57 fd       	sbrc	r21, 7
    12be:	60 95       	com	r22
    12c0:	76 2f       	mov	r23, r22
    12c2:	69 96       	adiw	r28, 0x19	; 25
    12c4:	4c af       	std	Y+60, r20	; 0x3c
    12c6:	5d af       	std	Y+61, r21	; 0x3d
    12c8:	6e af       	std	Y+62, r22	; 0x3e
    12ca:	7f af       	std	Y+63, r23	; 0x3f
    12cc:	69 97       	sbiw	r28, 0x19	; 25
    12ce:	53 96       	adiw	r26, 0x13	; 19
    12d0:	4d 91       	ld	r20, X+
    12d2:	5c 91       	ld	r21, X
    12d4:	54 97       	sbiw	r26, 0x14	; 20
    12d6:	66 27       	eor	r22, r22
    12d8:	57 fd       	sbrc	r21, 7
    12da:	60 95       	com	r22
    12dc:	76 2f       	mov	r23, r22
    12de:	6d 96       	adiw	r28, 0x1d	; 29
    12e0:	4c af       	std	Y+60, r20	; 0x3c
    12e2:	5d af       	std	Y+61, r21	; 0x3d
    12e4:	6e af       	std	Y+62, r22	; 0x3e
    12e6:	7f af       	std	Y+63, r23	; 0x3f
    12e8:	6d 97       	sbiw	r28, 0x1d	; 29
    12ea:	43 89       	ldd	r20, Z+19	; 0x13
    12ec:	54 89       	ldd	r21, Z+20	; 0x14
    12ee:	66 27       	eor	r22, r22
    12f0:	57 fd       	sbrc	r21, 7
    12f2:	60 95       	com	r22
    12f4:	76 2f       	mov	r23, r22
    12f6:	a1 96       	adiw	r28, 0x21	; 33
    12f8:	4c af       	std	Y+60, r20	; 0x3c
    12fa:	5d af       	std	Y+61, r21	; 0x3d
    12fc:	6e af       	std	Y+62, r22	; 0x3e
    12fe:	7f af       	std	Y+63, r23	; 0x3f
    1300:	a1 97       	sbiw	r28, 0x21	; 33
    1302:	1c 96       	adiw	r26, 0x0c	; 12
    1304:	4d 91       	ld	r20, X+
    1306:	5c 91       	ld	r21, X
    1308:	1d 97       	sbiw	r26, 0x0d	; 13
    130a:	66 27       	eor	r22, r22
    130c:	57 fd       	sbrc	r21, 7
    130e:	60 95       	com	r22
    1310:	76 2f       	mov	r23, r22
    1312:	a5 96       	adiw	r28, 0x25	; 37
    1314:	4c af       	std	Y+60, r20	; 0x3c
    1316:	5d af       	std	Y+61, r21	; 0x3d
    1318:	6e af       	std	Y+62, r22	; 0x3e
    131a:	7f af       	std	Y+63, r23	; 0x3f
    131c:	a5 97       	sbiw	r28, 0x25	; 37
    131e:	44 85       	ldd	r20, Z+12	; 0x0c
    1320:	55 85       	ldd	r21, Z+13	; 0x0d
    1322:	66 27       	eor	r22, r22
    1324:	57 fd       	sbrc	r21, 7
    1326:	60 95       	com	r22
    1328:	76 2f       	mov	r23, r22
    132a:	a9 96       	adiw	r28, 0x29	; 41
    132c:	4c af       	std	Y+60, r20	; 0x3c
    132e:	5d af       	std	Y+61, r21	; 0x3d
    1330:	6e af       	std	Y+62, r22	; 0x3e
    1332:	7f af       	std	Y+63, r23	; 0x3f
    1334:	a9 97       	sbiw	r28, 0x29	; 41
    1336:	87 59       	subi	r24, 0x97	; 151
    1338:	9f 4f       	sbci	r25, 0xFF	; 255
    133a:	fc 01       	movw	r30, r24
    133c:	40 81       	ld	r20, Z
    133e:	51 81       	ldd	r21, Z+1	; 0x01
    1340:	60 e0       	ldi	r22, 0x00	; 0
    1342:	70 e0       	ldi	r23, 0x00	; 0
    1344:	ad 96       	adiw	r28, 0x2d	; 45
    1346:	4c af       	std	Y+60, r20	; 0x3c
    1348:	5d af       	std	Y+61, r21	; 0x3d
    134a:	6e af       	std	Y+62, r22	; 0x3e
    134c:	7f af       	std	Y+63, r23	; 0x3f
    134e:	ad 97       	sbiw	r28, 0x2d	; 45
    1350:	c9 01       	movw	r24, r18
    1352:	87 59       	subi	r24, 0x97	; 151
    1354:	9f 4f       	sbci	r25, 0xFF	; 255
    1356:	fc 01       	movw	r30, r24
    1358:	40 81       	ld	r20, Z
    135a:	51 81       	ldd	r21, Z+1	; 0x01
    135c:	60 e0       	ldi	r22, 0x00	; 0
    135e:	70 e0       	ldi	r23, 0x00	; 0
    1360:	e1 96       	adiw	r28, 0x31	; 49
    1362:	4c af       	std	Y+60, r20	; 0x3c
    1364:	5d af       	std	Y+61, r21	; 0x3d
    1366:	6e af       	std	Y+62, r22	; 0x3e
    1368:	7f af       	std	Y+63, r23	; 0x3f
    136a:	e1 97       	sbiw	r28, 0x31	; 49
    136c:	a5 59       	subi	r26, 0x95	; 149
    136e:	bf 4f       	sbci	r27, 0xFF	; 255
    1370:	8d 91       	ld	r24, X+
    1372:	9c 91       	ld	r25, X
    1374:	aa 27       	eor	r26, r26
    1376:	97 fd       	sbrc	r25, 7
    1378:	a0 95       	com	r26
    137a:	ba 2f       	mov	r27, r26
    137c:	e5 96       	adiw	r28, 0x35	; 53
    137e:	8c af       	std	Y+60, r24	; 0x3c
    1380:	9d af       	std	Y+61, r25	; 0x3d
    1382:	ae af       	std	Y+62, r26	; 0x3e
    1384:	bf af       	std	Y+63, r27	; 0x3f
    1386:	e5 97       	sbiw	r28, 0x35	; 53
    1388:	f9 01       	movw	r30, r18
    138a:	e5 59       	subi	r30, 0x95	; 149
    138c:	ff 4f       	sbci	r31, 0xFF	; 255
    138e:	80 81       	ld	r24, Z
    1390:	91 81       	ldd	r25, Z+1	; 0x01
    1392:	aa 27       	eor	r26, r26
    1394:	97 fd       	sbrc	r25, 7
    1396:	a0 95       	com	r26
    1398:	ba 2f       	mov	r27, r26
    139a:	e9 96       	adiw	r28, 0x39	; 57
    139c:	8c af       	std	Y+60, r24	; 0x3c
    139e:	9d af       	std	Y+61, r25	; 0x3d
    13a0:	ae af       	std	Y+62, r26	; 0x3e
    13a2:	bf af       	std	Y+63, r27	; 0x3f
    13a4:	e9 97       	sbiw	r28, 0x39	; 57
    13a6:	80 91 aa 00 	lds	r24, 0x00AA
    13aa:	90 e0       	ldi	r25, 0x00	; 0
    13ac:	a0 e0       	ldi	r26, 0x00	; 0
    13ae:	b0 e0       	ldi	r27, 0x00	; 0
    13b0:	ed 96       	adiw	r28, 0x3d	; 61
    13b2:	8c af       	std	Y+60, r24	; 0x3c
    13b4:	9d af       	std	Y+61, r25	; 0x3d
    13b6:	ae af       	std	Y+62, r26	; 0x3e
    13b8:	bf af       	std	Y+63, r27	; 0x3f
    13ba:	ed 97       	sbiw	r28, 0x3d	; 61
    13bc:	8a b5       	in	r24, 0x2a	; 42
    13be:	9b b5       	in	r25, 0x2b	; 43
    13c0:	a0 e0       	ldi	r26, 0x00	; 0
    13c2:	b0 e0       	ldi	r27, 0x00	; 0
    13c4:	c3 58       	subi	r28, 0x83	; 131
    13c6:	df 4f       	sbci	r29, 0xFF	; 255
    13c8:	88 83       	st	Y, r24
    13ca:	99 83       	std	Y+1, r25	; 0x01
    13cc:	aa 83       	std	Y+2, r26	; 0x02
    13ce:	bb 83       	std	Y+3, r27	; 0x03
    13d0:	cd 57       	subi	r28, 0x7D	; 125
    13d2:	d0 40       	sbci	r29, 0x00	; 0
    13d4:	88 b5       	in	r24, 0x28	; 40
    13d6:	99 b5       	in	r25, 0x29	; 41
    13d8:	a0 e0       	ldi	r26, 0x00	; 0
    13da:	b0 e0       	ldi	r27, 0x00	; 0
    13dc:	cf 57       	subi	r28, 0x7F	; 127
    13de:	df 4f       	sbci	r29, 0xFF	; 255
    13e0:	88 83       	st	Y, r24
    13e2:	99 83       	std	Y+1, r25	; 0x01
    13e4:	aa 83       	std	Y+2, r26	; 0x02
    13e6:	bb 83       	std	Y+3, r27	; 0x03
    13e8:	c1 58       	subi	r28, 0x81	; 129
    13ea:	d0 40       	sbci	r29, 0x00	; 0
    13ec:	83 b5       	in	r24, 0x23	; 35
    13ee:	90 e0       	ldi	r25, 0x00	; 0
    13f0:	a0 e0       	ldi	r26, 0x00	; 0
    13f2:	b0 e0       	ldi	r27, 0x00	; 0
    13f4:	cb 57       	subi	r28, 0x7B	; 123
    13f6:	df 4f       	sbci	r29, 0xFF	; 255
    13f8:	88 83       	st	Y, r24
    13fa:	99 83       	std	Y+1, r25	; 0x01
    13fc:	aa 83       	std	Y+2, r26	; 0x02
    13fe:	bb 83       	std	Y+3, r27	; 0x03
    1400:	c5 58       	subi	r28, 0x85	; 133
    1402:	d0 40       	sbci	r29, 0x00	; 0
    1404:	80 ef       	ldi	r24, 0xF0	; 240
    1406:	90 ef       	ldi	r25, 0xF0	; 240
    1408:	a0 ef       	ldi	r26, 0xF0	; 240
    140a:	b0 e0       	ldi	r27, 0x00	; 0
    140c:	c7 57       	subi	r28, 0x77	; 119
    140e:	df 4f       	sbci	r29, 0xFF	; 255
    1410:	88 83       	st	Y, r24
    1412:	99 83       	std	Y+1, r25	; 0x01
    1414:	aa 83       	std	Y+2, r26	; 0x02
    1416:	bb 83       	std	Y+3, r27	; 0x03
    1418:	c9 58       	subi	r28, 0x89	; 137
    141a:	d0 40       	sbci	r29, 0x00	; 0
    141c:	10 e0       	ldi	r17, 0x00	; 0
    141e:	10 c0       	rjmp	.+32     	; 0x1440 <debug+0x374>
    1420:	2a e0       	ldi	r18, 0x0A	; 10
    1422:	30 e0       	ldi	r19, 0x00	; 0
    1424:	ae 01       	movw	r20, r28
    1426:	43 57       	subi	r20, 0x73	; 115
    1428:	5f 4f       	sbci	r21, 0xFF	; 255
    142a:	0e 94 ea 15 	call	0x2bd4	; 0x2bd4 <ltoa>
    142e:	ce 01       	movw	r24, r28
    1430:	83 57       	subi	r24, 0x73	; 115
    1432:	9f 4f       	sbci	r25, 0xFF	; 255
    1434:	0e 94 f3 14 	call	0x29e6	; 0x29e6 <uart_put_s>
    1438:	8b e3       	ldi	r24, 0x3B	; 59
    143a:	0e 94 ef 14 	call	0x29de	; 0x29de <uart_put_c>
    143e:	1f 5f       	subi	r17, 0xFF	; 255
    1440:	e1 e0       	ldi	r30, 0x01	; 1
    1442:	f0 e0       	ldi	r31, 0x00	; 0
    1444:	ec 0f       	add	r30, r28
    1446:	fd 1f       	adc	r31, r29
    1448:	24 e0       	ldi	r18, 0x04	; 4
    144a:	12 9f       	mul	r17, r18
    144c:	e0 0d       	add	r30, r0
    144e:	f1 1d       	adc	r31, r1
    1450:	11 24       	eor	r1, r1
    1452:	60 81       	ld	r22, Z
    1454:	71 81       	ldd	r23, Z+1	; 0x01
    1456:	82 81       	ldd	r24, Z+2	; 0x02
    1458:	93 81       	ldd	r25, Z+3	; 0x03
    145a:	60 3f       	cpi	r22, 0xF0	; 240
    145c:	e0 ef       	ldi	r30, 0xF0	; 240
    145e:	7e 07       	cpc	r23, r30
    1460:	8e 07       	cpc	r24, r30
    1462:	91 05       	cpc	r25, r1
    1464:	e9 f6       	brne	.-70     	; 0x1420 <debug+0x354>
    1466:	8a e0       	ldi	r24, 0x0A	; 10
    1468:	0e 94 ef 14 	call	0x29de	; 0x29de <uart_put_c>
    146c:	cc 56       	subi	r28, 0x6C	; 108
    146e:	df 4f       	sbci	r29, 0xFF	; 255
    1470:	0f b6       	in	r0, 0x3f	; 63
    1472:	f8 94       	cli
    1474:	de bf       	out	0x3e, r29	; 62
    1476:	0f be       	out	0x3f, r0	; 63
    1478:	cd bf       	out	0x3d, r28	; 61
    147a:	df 91       	pop	r29
    147c:	cf 91       	pop	r28
    147e:	1f 91       	pop	r17
    1480:	08 95       	ret

00001482 <handleCanMessage>:
    1482:	ef 92       	push	r14
    1484:	ff 92       	push	r15
    1486:	0f 93       	push	r16
    1488:	1f 93       	push	r17
    148a:	cf 93       	push	r28
    148c:	df 93       	push	r29
    148e:	cd b7       	in	r28, 0x3d	; 61
    1490:	de b7       	in	r29, 0x3e	; 62
    1492:	2c 97       	sbiw	r28, 0x0c	; 12
    1494:	0f b6       	in	r0, 0x3f	; 63
    1496:	f8 94       	cli
    1498:	de bf       	out	0x3e, r29	; 62
    149a:	0f be       	out	0x3f, r0	; 63
    149c:	cd bf       	out	0x3d, r28	; 61
    149e:	7c 01       	movw	r14, r24
    14a0:	8b 01       	movw	r16, r22
    14a2:	ce 01       	movw	r24, r28
    14a4:	01 96       	adiw	r24, 0x01	; 1
    14a6:	0e 94 05 02 	call	0x40a	; 0x40a <can_get_message>
    14aa:	8f 3f       	cpi	r24, 0xFF	; 255
    14ac:	09 f4       	brne	.+2      	; 0x14b0 <handleCanMessage+0x2e>
    14ae:	df c0       	rjmp	.+446    	; 0x166e <handleCanMessage+0x1ec>
    14b0:	89 81       	ldd	r24, Y+1	; 0x01
    14b2:	9a 81       	ldd	r25, Y+2	; 0x02
    14b4:	28 2f       	mov	r18, r24
    14b6:	2f 70       	andi	r18, 0x0F	; 15
    14b8:	e4 e0       	ldi	r30, 0x04	; 4
    14ba:	96 95       	lsr	r25
    14bc:	87 95       	ror	r24
    14be:	ea 95       	dec	r30
    14c0:	e1 f7       	brne	.-8      	; 0x14ba <handleCanMessage+0x38>
    14c2:	99 27       	eor	r25, r25
    14c4:	81 30       	cpi	r24, 0x01	; 1
    14c6:	91 05       	cpc	r25, r1
    14c8:	21 f0       	breq	.+8      	; 0x14d2 <handleCanMessage+0x50>
    14ca:	02 97       	sbiw	r24, 0x02	; 2
    14cc:	09 f0       	breq	.+2      	; 0x14d0 <handleCanMessage+0x4e>
    14ce:	e8 c0       	rjmp	.+464    	; 0x16a0 <handleCanMessage+0x21e>
    14d0:	3b c0       	rjmp	.+118    	; 0x1548 <handleCanMessage+0xc6>
    14d2:	21 30       	cpi	r18, 0x01	; 1
    14d4:	21 f4       	brne	.+8      	; 0x14de <handleCanMessage+0x5c>
    14d6:	9d 81       	ldd	r25, Y+5	; 0x05
    14d8:	80 e0       	ldi	r24, 0x00	; 0
    14da:	f7 01       	movw	r30, r14
    14dc:	3a c0       	rjmp	.+116    	; 0x1552 <handleCanMessage+0xd0>
    14de:	22 30       	cpi	r18, 0x02	; 2
    14e0:	61 f5       	brne	.+88     	; 0x153a <handleCanMessage+0xb8>
    14e2:	8d 81       	ldd	r24, Y+5	; 0x05
    14e4:	90 e0       	ldi	r25, 0x00	; 0
    14e6:	a0 e0       	ldi	r26, 0x00	; 0
    14e8:	b0 e0       	ldi	r27, 0x00	; 0
    14ea:	b8 2f       	mov	r27, r24
    14ec:	aa 27       	eor	r26, r26
    14ee:	99 27       	eor	r25, r25
    14f0:	88 27       	eor	r24, r24
    14f2:	f7 01       	movw	r30, r14
    14f4:	80 87       	std	Z+8, r24	; 0x08
    14f6:	91 87       	std	Z+9, r25	; 0x09
    14f8:	a2 87       	std	Z+10, r26	; 0x0a
    14fa:	b3 87       	std	Z+11, r27	; 0x0b
    14fc:	80 85       	ldd	r24, Z+8	; 0x08
    14fe:	91 85       	ldd	r25, Z+9	; 0x09
    1500:	a2 85       	ldd	r26, Z+10	; 0x0a
    1502:	b3 85       	ldd	r27, Z+11	; 0x0b
    1504:	2e 81       	ldd	r18, Y+6	; 0x06
    1506:	a2 2b       	or	r26, r18
    1508:	80 87       	std	Z+8, r24	; 0x08
    150a:	91 87       	std	Z+9, r25	; 0x09
    150c:	a2 87       	std	Z+10, r26	; 0x0a
    150e:	b3 87       	std	Z+11, r27	; 0x0b
    1510:	80 85       	ldd	r24, Z+8	; 0x08
    1512:	91 85       	ldd	r25, Z+9	; 0x09
    1514:	a2 85       	ldd	r26, Z+10	; 0x0a
    1516:	b3 85       	ldd	r27, Z+11	; 0x0b
    1518:	2f 81       	ldd	r18, Y+7	; 0x07
    151a:	92 2b       	or	r25, r18
    151c:	80 87       	std	Z+8, r24	; 0x08
    151e:	91 87       	std	Z+9, r25	; 0x09
    1520:	a2 87       	std	Z+10, r26	; 0x0a
    1522:	b3 87       	std	Z+11, r27	; 0x0b
    1524:	40 85       	ldd	r20, Z+8	; 0x08
    1526:	51 85       	ldd	r21, Z+9	; 0x09
    1528:	62 85       	ldd	r22, Z+10	; 0x0a
    152a:	73 85       	ldd	r23, Z+11	; 0x0b
    152c:	88 85       	ldd	r24, Y+8	; 0x08
    152e:	48 2b       	or	r20, r24
    1530:	40 87       	std	Z+8, r20	; 0x08
    1532:	51 87       	std	Z+9, r21	; 0x09
    1534:	62 87       	std	Z+10, r22	; 0x0a
    1536:	73 87       	std	Z+11, r23	; 0x0b
    1538:	60 c0       	rjmp	.+192    	; 0x15fa <handleCanMessage+0x178>
    153a:	23 30       	cpi	r18, 0x03	; 3
    153c:	09 f0       	breq	.+2      	; 0x1540 <handleCanMessage+0xbe>
    153e:	b0 c0       	rjmp	.+352    	; 0x16a0 <handleCanMessage+0x21e>
    1540:	9d 81       	ldd	r25, Y+5	; 0x05
    1542:	80 e0       	ldi	r24, 0x00	; 0
    1544:	f7 01       	movw	r30, r14
    1546:	6c c0       	rjmp	.+216    	; 0x1620 <handleCanMessage+0x19e>
    1548:	21 30       	cpi	r18, 0x01	; 1
    154a:	51 f5       	brne	.+84     	; 0x15a0 <handleCanMessage+0x11e>
    154c:	9d 81       	ldd	r25, Y+5	; 0x05
    154e:	80 e0       	ldi	r24, 0x00	; 0
    1550:	f8 01       	movw	r30, r16
    1552:	95 87       	std	Z+13, r25	; 0x0d
    1554:	84 87       	std	Z+12, r24	; 0x0c
    1556:	84 85       	ldd	r24, Z+12	; 0x0c
    1558:	95 85       	ldd	r25, Z+13	; 0x0d
    155a:	2e 81       	ldd	r18, Y+6	; 0x06
    155c:	82 2b       	or	r24, r18
    155e:	95 87       	std	Z+13, r25	; 0x0d
    1560:	84 87       	std	Z+12, r24	; 0x0c
    1562:	9f 81       	ldd	r25, Y+7	; 0x07
    1564:	80 e0       	ldi	r24, 0x00	; 0
    1566:	93 83       	std	Z+3, r25	; 0x03
    1568:	82 83       	std	Z+2, r24	; 0x02
    156a:	82 81       	ldd	r24, Z+2	; 0x02
    156c:	93 81       	ldd	r25, Z+3	; 0x03
    156e:	28 85       	ldd	r18, Y+8	; 0x08
    1570:	82 2b       	or	r24, r18
    1572:	93 83       	std	Z+3, r25	; 0x03
    1574:	82 83       	std	Z+2, r24	; 0x02
    1576:	99 85       	ldd	r25, Y+9	; 0x09
    1578:	80 e0       	ldi	r24, 0x00	; 0
    157a:	95 83       	std	Z+5, r25	; 0x05
    157c:	84 83       	std	Z+4, r24	; 0x04
    157e:	84 81       	ldd	r24, Z+4	; 0x04
    1580:	95 81       	ldd	r25, Z+5	; 0x05
    1582:	2a 85       	ldd	r18, Y+10	; 0x0a
    1584:	82 2b       	or	r24, r18
    1586:	95 83       	std	Z+5, r25	; 0x05
    1588:	84 83       	std	Z+4, r24	; 0x04
    158a:	9b 85       	ldd	r25, Y+11	; 0x0b
    158c:	80 e0       	ldi	r24, 0x00	; 0
    158e:	97 83       	std	Z+7, r25	; 0x07
    1590:	86 83       	std	Z+6, r24	; 0x06
    1592:	86 81       	ldd	r24, Z+6	; 0x06
    1594:	97 81       	ldd	r25, Z+7	; 0x07
    1596:	2c 85       	ldd	r18, Y+12	; 0x0c
    1598:	82 2b       	or	r24, r18
    159a:	97 83       	std	Z+7, r25	; 0x07
    159c:	86 83       	std	Z+6, r24	; 0x06
    159e:	80 c0       	rjmp	.+256    	; 0x16a0 <handleCanMessage+0x21e>
    15a0:	22 30       	cpi	r18, 0x02	; 2
    15a2:	c1 f5       	brne	.+112    	; 0x1614 <handleCanMessage+0x192>
    15a4:	8d 81       	ldd	r24, Y+5	; 0x05
    15a6:	90 e0       	ldi	r25, 0x00	; 0
    15a8:	a0 e0       	ldi	r26, 0x00	; 0
    15aa:	b0 e0       	ldi	r27, 0x00	; 0
    15ac:	b8 2f       	mov	r27, r24
    15ae:	aa 27       	eor	r26, r26
    15b0:	99 27       	eor	r25, r25
    15b2:	88 27       	eor	r24, r24
    15b4:	f8 01       	movw	r30, r16
    15b6:	80 87       	std	Z+8, r24	; 0x08
    15b8:	91 87       	std	Z+9, r25	; 0x09
    15ba:	a2 87       	std	Z+10, r26	; 0x0a
    15bc:	b3 87       	std	Z+11, r27	; 0x0b
    15be:	80 85       	ldd	r24, Z+8	; 0x08
    15c0:	91 85       	ldd	r25, Z+9	; 0x09
    15c2:	a2 85       	ldd	r26, Z+10	; 0x0a
    15c4:	b3 85       	ldd	r27, Z+11	; 0x0b
    15c6:	2e 81       	ldd	r18, Y+6	; 0x06
    15c8:	a2 2b       	or	r26, r18
    15ca:	80 87       	std	Z+8, r24	; 0x08
    15cc:	91 87       	std	Z+9, r25	; 0x09
    15ce:	a2 87       	std	Z+10, r26	; 0x0a
    15d0:	b3 87       	std	Z+11, r27	; 0x0b
    15d2:	80 85       	ldd	r24, Z+8	; 0x08
    15d4:	91 85       	ldd	r25, Z+9	; 0x09
    15d6:	a2 85       	ldd	r26, Z+10	; 0x0a
    15d8:	b3 85       	ldd	r27, Z+11	; 0x0b
    15da:	2f 81       	ldd	r18, Y+7	; 0x07
    15dc:	92 2b       	or	r25, r18
    15de:	80 87       	std	Z+8, r24	; 0x08
    15e0:	91 87       	std	Z+9, r25	; 0x09
    15e2:	a2 87       	std	Z+10, r26	; 0x0a
    15e4:	b3 87       	std	Z+11, r27	; 0x0b
    15e6:	80 85       	ldd	r24, Z+8	; 0x08
    15e8:	91 85       	ldd	r25, Z+9	; 0x09
    15ea:	a2 85       	ldd	r26, Z+10	; 0x0a
    15ec:	b3 85       	ldd	r27, Z+11	; 0x0b
    15ee:	28 85       	ldd	r18, Y+8	; 0x08
    15f0:	82 2b       	or	r24, r18
    15f2:	80 87       	std	Z+8, r24	; 0x08
    15f4:	91 87       	std	Z+9, r25	; 0x09
    15f6:	a2 87       	std	Z+10, r26	; 0x0a
    15f8:	b3 87       	std	Z+11, r27	; 0x0b
    15fa:	89 85       	ldd	r24, Y+9	; 0x09
    15fc:	86 87       	std	Z+14, r24	; 0x0e
    15fe:	9a 85       	ldd	r25, Y+10	; 0x0a
    1600:	80 e0       	ldi	r24, 0x00	; 0
    1602:	91 83       	std	Z+1, r25	; 0x01
    1604:	80 83       	st	Z, r24
    1606:	80 81       	ld	r24, Z
    1608:	91 81       	ldd	r25, Z+1	; 0x01
    160a:	2b 85       	ldd	r18, Y+11	; 0x0b
    160c:	82 2b       	or	r24, r18
    160e:	91 83       	std	Z+1, r25	; 0x01
    1610:	80 83       	st	Z, r24
    1612:	46 c0       	rjmp	.+140    	; 0x16a0 <handleCanMessage+0x21e>
    1614:	23 30       	cpi	r18, 0x03	; 3
    1616:	09 f0       	breq	.+2      	; 0x161a <handleCanMessage+0x198>
    1618:	43 c0       	rjmp	.+134    	; 0x16a0 <handleCanMessage+0x21e>
    161a:	9d 81       	ldd	r25, Y+5	; 0x05
    161c:	80 e0       	ldi	r24, 0x00	; 0
    161e:	f8 01       	movw	r30, r16
    1620:	90 8b       	std	Z+16, r25	; 0x10
    1622:	87 87       	std	Z+15, r24	; 0x0f
    1624:	87 85       	ldd	r24, Z+15	; 0x0f
    1626:	90 89       	ldd	r25, Z+16	; 0x10
    1628:	2e 81       	ldd	r18, Y+6	; 0x06
    162a:	82 2b       	or	r24, r18
    162c:	90 8b       	std	Z+16, r25	; 0x10
    162e:	87 87       	std	Z+15, r24	; 0x0f
    1630:	9f 81       	ldd	r25, Y+7	; 0x07
    1632:	80 e0       	ldi	r24, 0x00	; 0
    1634:	92 8b       	std	Z+18, r25	; 0x12
    1636:	81 8b       	std	Z+17, r24	; 0x11
    1638:	81 89       	ldd	r24, Z+17	; 0x11
    163a:	92 89       	ldd	r25, Z+18	; 0x12
    163c:	28 85       	ldd	r18, Y+8	; 0x08
    163e:	82 2b       	or	r24, r18
    1640:	92 8b       	std	Z+18, r25	; 0x12
    1642:	81 8b       	std	Z+17, r24	; 0x11
    1644:	99 85       	ldd	r25, Y+9	; 0x09
    1646:	80 e0       	ldi	r24, 0x00	; 0
    1648:	94 8b       	std	Z+20, r25	; 0x14
    164a:	83 8b       	std	Z+19, r24	; 0x13
    164c:	83 89       	ldd	r24, Z+19	; 0x13
    164e:	94 89       	ldd	r25, Z+20	; 0x14
    1650:	2a 85       	ldd	r18, Y+10	; 0x0a
    1652:	82 2b       	or	r24, r18
    1654:	94 8b       	std	Z+20, r25	; 0x14
    1656:	83 8b       	std	Z+19, r24	; 0x13
    1658:	9b 85       	ldd	r25, Y+11	; 0x0b
    165a:	80 e0       	ldi	r24, 0x00	; 0
    165c:	96 8b       	std	Z+22, r25	; 0x16
    165e:	85 8b       	std	Z+21, r24	; 0x15
    1660:	85 89       	ldd	r24, Z+21	; 0x15
    1662:	96 89       	ldd	r25, Z+22	; 0x16
    1664:	2c 85       	ldd	r18, Y+12	; 0x0c
    1666:	82 2b       	or	r24, r18
    1668:	96 8b       	std	Z+22, r25	; 0x16
    166a:	85 8b       	std	Z+21, r24	; 0x15
    166c:	19 c0       	rjmp	.+50     	; 0x16a0 <handleCanMessage+0x21e>
    166e:	8c e2       	ldi	r24, 0x2C	; 44
    1670:	0e 94 7d 00 	call	0xfa	; 0xfa <mcp2515_read_register>
    1674:	85 ff       	sbrs	r24, 5
    1676:	10 c0       	rjmp	.+32     	; 0x1698 <handleCanMessage+0x216>
    1678:	8d e2       	ldi	r24, 0x2D	; 45
    167a:	0e 94 7d 00 	call	0xfa	; 0xfa <mcp2515_read_register>
    167e:	80 93 a9 00 	sts	0x00A9, r24
    1682:	48 2f       	mov	r20, r24
    1684:	68 2f       	mov	r22, r24
    1686:	8d e2       	ldi	r24, 0x2D	; 45
    1688:	0e 94 a5 00 	call	0x14a	; 0x14a <mcp2515_bit_modify>
    168c:	40 e2       	ldi	r20, 0x20	; 32
    168e:	60 e2       	ldi	r22, 0x20	; 32
    1690:	8c e2       	ldi	r24, 0x2C	; 44
    1692:	0e 94 a5 00 	call	0x14a	; 0x14a <mcp2515_bit_modify>
    1696:	02 c0       	rjmp	.+4      	; 0x169c <handleCanMessage+0x21a>
    1698:	10 92 81 00 	sts	0x0081, r1
    169c:	80 e0       	ldi	r24, 0x00	; 0
    169e:	01 c0       	rjmp	.+2      	; 0x16a2 <handleCanMessage+0x220>
    16a0:	81 e0       	ldi	r24, 0x01	; 1
    16a2:	2c 96       	adiw	r28, 0x0c	; 12
    16a4:	0f b6       	in	r0, 0x3f	; 63
    16a6:	f8 94       	cli
    16a8:	de bf       	out	0x3e, r29	; 62
    16aa:	0f be       	out	0x3f, r0	; 63
    16ac:	cd bf       	out	0x3d, r28	; 61
    16ae:	df 91       	pop	r29
    16b0:	cf 91       	pop	r28
    16b2:	1f 91       	pop	r17
    16b4:	0f 91       	pop	r16
    16b6:	ff 90       	pop	r15
    16b8:	ef 90       	pop	r14
    16ba:	08 95       	ret

000016bc <calculate_means>:
    16bc:	0f 93       	push	r16
    16be:	1f 93       	push	r17
    16c0:	cf 93       	push	r28
    16c2:	df 93       	push	r29
    16c4:	ec 01       	movw	r28, r24
    16c6:	8d a5       	ldd	r24, Y+45	; 0x2d
    16c8:	9e a5       	ldd	r25, Y+46	; 0x2e
    16ca:	af a5       	ldd	r26, Y+47	; 0x2f
    16cc:	b8 a9       	ldd	r27, Y+48	; 0x30
    16ce:	48 81       	ld	r20, Y
    16d0:	59 81       	ldd	r21, Y+1	; 0x01
    16d2:	66 27       	eor	r22, r22
    16d4:	57 fd       	sbrc	r21, 7
    16d6:	60 95       	com	r22
    16d8:	76 2f       	mov	r23, r22
    16da:	84 0f       	add	r24, r20
    16dc:	95 1f       	adc	r25, r21
    16de:	a6 1f       	adc	r26, r22
    16e0:	b7 1f       	adc	r27, r23
    16e2:	8d a7       	std	Y+45, r24	; 0x2d
    16e4:	9e a7       	std	Y+46, r25	; 0x2e
    16e6:	af a7       	std	Y+47, r26	; 0x2f
    16e8:	b8 ab       	std	Y+48, r27	; 0x30
    16ea:	fe 01       	movw	r30, r28
    16ec:	eb 5a       	subi	r30, 0xAB	; 171
    16ee:	ff 4f       	sbci	r31, 0xFF	; 255
    16f0:	80 81       	ld	r24, Z
    16f2:	91 81       	ldd	r25, Z+1	; 0x01
    16f4:	01 96       	adiw	r24, 0x01	; 1
    16f6:	91 83       	std	Z+1, r25	; 0x01
    16f8:	80 83       	st	Z, r24
    16fa:	0d a5       	ldd	r16, Y+45	; 0x2d
    16fc:	1e a5       	ldd	r17, Y+46	; 0x2e
    16fe:	2f a5       	ldd	r18, Y+47	; 0x2f
    1700:	38 a9       	ldd	r19, Y+48	; 0x30
    1702:	80 81       	ld	r24, Z
    1704:	91 81       	ldd	r25, Z+1	; 0x01
    1706:	40 81       	ld	r20, Z
    1708:	51 81       	ldd	r21, Z+1	; 0x01
    170a:	97 fd       	sbrc	r25, 7
    170c:	01 96       	adiw	r24, 0x01	; 1
    170e:	bc 01       	movw	r22, r24
    1710:	75 95       	asr	r23
    1712:	67 95       	ror	r22
    1714:	88 27       	eor	r24, r24
    1716:	77 fd       	sbrc	r23, 7
    1718:	80 95       	com	r24
    171a:	98 2f       	mov	r25, r24
    171c:	60 0f       	add	r22, r16
    171e:	71 1f       	adc	r23, r17
    1720:	82 1f       	adc	r24, r18
    1722:	93 1f       	adc	r25, r19
    1724:	9a 01       	movw	r18, r20
    1726:	44 27       	eor	r20, r20
    1728:	37 fd       	sbrc	r19, 7
    172a:	40 95       	com	r20
    172c:	54 2f       	mov	r21, r20
    172e:	0e 94 68 15 	call	0x2ad0	; 0x2ad0 <__divmodsi4>
    1732:	38 8f       	std	Y+24, r19	; 0x18
    1734:	2f 8b       	std	Y+23, r18	; 0x17
    1736:	8a 81       	ldd	r24, Y+2	; 0x02
    1738:	9b 81       	ldd	r25, Y+3	; 0x03
    173a:	81 3f       	cpi	r24, 0xF1	; 241
    173c:	98 4d       	sbci	r25, 0xD8	; 216
    173e:	e1 f1       	breq	.+120    	; 0x17b8 <calculate_means+0xfc>
    1740:	8a 81       	ldd	r24, Y+2	; 0x02
    1742:	9b 81       	ldd	r25, Y+3	; 0x03
    1744:	89 2b       	or	r24, r25
    1746:	c1 f1       	breq	.+112    	; 0x17b8 <calculate_means+0xfc>
    1748:	89 a9       	ldd	r24, Y+49	; 0x31
    174a:	9a a9       	ldd	r25, Y+50	; 0x32
    174c:	ab a9       	ldd	r26, Y+51	; 0x33
    174e:	bc a9       	ldd	r27, Y+52	; 0x34
    1750:	4a 81       	ldd	r20, Y+2	; 0x02
    1752:	5b 81       	ldd	r21, Y+3	; 0x03
    1754:	66 27       	eor	r22, r22
    1756:	57 fd       	sbrc	r21, 7
    1758:	60 95       	com	r22
    175a:	76 2f       	mov	r23, r22
    175c:	84 0f       	add	r24, r20
    175e:	95 1f       	adc	r25, r21
    1760:	a6 1f       	adc	r26, r22
    1762:	b7 1f       	adc	r27, r23
    1764:	89 ab       	std	Y+49, r24	; 0x31
    1766:	9a ab       	std	Y+50, r25	; 0x32
    1768:	ab ab       	std	Y+51, r26	; 0x33
    176a:	bc ab       	std	Y+52, r27	; 0x34
    176c:	fe 01       	movw	r30, r28
    176e:	e9 5a       	subi	r30, 0xA9	; 169
    1770:	ff 4f       	sbci	r31, 0xFF	; 255
    1772:	80 81       	ld	r24, Z
    1774:	91 81       	ldd	r25, Z+1	; 0x01
    1776:	01 96       	adiw	r24, 0x01	; 1
    1778:	91 83       	std	Z+1, r25	; 0x01
    177a:	80 83       	st	Z, r24
    177c:	09 a9       	ldd	r16, Y+49	; 0x31
    177e:	1a a9       	ldd	r17, Y+50	; 0x32
    1780:	2b a9       	ldd	r18, Y+51	; 0x33
    1782:	3c a9       	ldd	r19, Y+52	; 0x34
    1784:	80 81       	ld	r24, Z
    1786:	91 81       	ldd	r25, Z+1	; 0x01
    1788:	40 81       	ld	r20, Z
    178a:	51 81       	ldd	r21, Z+1	; 0x01
    178c:	97 fd       	sbrc	r25, 7
    178e:	01 96       	adiw	r24, 0x01	; 1
    1790:	bc 01       	movw	r22, r24
    1792:	75 95       	asr	r23
    1794:	67 95       	ror	r22
    1796:	88 27       	eor	r24, r24
    1798:	77 fd       	sbrc	r23, 7
    179a:	80 95       	com	r24
    179c:	98 2f       	mov	r25, r24
    179e:	60 0f       	add	r22, r16
    17a0:	71 1f       	adc	r23, r17
    17a2:	82 1f       	adc	r24, r18
    17a4:	93 1f       	adc	r25, r19
    17a6:	9a 01       	movw	r18, r20
    17a8:	44 27       	eor	r20, r20
    17aa:	37 fd       	sbrc	r19, 7
    17ac:	40 95       	com	r20
    17ae:	54 2f       	mov	r21, r20
    17b0:	0e 94 68 15 	call	0x2ad0	; 0x2ad0 <__divmodsi4>
    17b4:	3a 8f       	std	Y+26, r19	; 0x1a
    17b6:	29 8f       	std	Y+25, r18	; 0x19
    17b8:	8c 81       	ldd	r24, Y+4	; 0x04
    17ba:	9d 81       	ldd	r25, Y+5	; 0x05
    17bc:	81 3f       	cpi	r24, 0xF1	; 241
    17be:	98 4d       	sbci	r25, 0xD8	; 216
    17c0:	e1 f1       	breq	.+120    	; 0x183a <calculate_means+0x17e>
    17c2:	8c 81       	ldd	r24, Y+4	; 0x04
    17c4:	9d 81       	ldd	r25, Y+5	; 0x05
    17c6:	89 2b       	or	r24, r25
    17c8:	c1 f1       	breq	.+112    	; 0x183a <calculate_means+0x17e>
    17ca:	8d a9       	ldd	r24, Y+53	; 0x35
    17cc:	9e a9       	ldd	r25, Y+54	; 0x36
    17ce:	af a9       	ldd	r26, Y+55	; 0x37
    17d0:	b8 ad       	ldd	r27, Y+56	; 0x38
    17d2:	4c 81       	ldd	r20, Y+4	; 0x04
    17d4:	5d 81       	ldd	r21, Y+5	; 0x05
    17d6:	66 27       	eor	r22, r22
    17d8:	57 fd       	sbrc	r21, 7
    17da:	60 95       	com	r22
    17dc:	76 2f       	mov	r23, r22
    17de:	84 0f       	add	r24, r20
    17e0:	95 1f       	adc	r25, r21
    17e2:	a6 1f       	adc	r26, r22
    17e4:	b7 1f       	adc	r27, r23
    17e6:	8d ab       	std	Y+53, r24	; 0x35
    17e8:	9e ab       	std	Y+54, r25	; 0x36
    17ea:	af ab       	std	Y+55, r26	; 0x37
    17ec:	b8 af       	std	Y+56, r27	; 0x38
    17ee:	fe 01       	movw	r30, r28
    17f0:	e7 5a       	subi	r30, 0xA7	; 167
    17f2:	ff 4f       	sbci	r31, 0xFF	; 255
    17f4:	80 81       	ld	r24, Z
    17f6:	91 81       	ldd	r25, Z+1	; 0x01
    17f8:	01 96       	adiw	r24, 0x01	; 1
    17fa:	91 83       	std	Z+1, r25	; 0x01
    17fc:	80 83       	st	Z, r24
    17fe:	0d a9       	ldd	r16, Y+53	; 0x35
    1800:	1e a9       	ldd	r17, Y+54	; 0x36
    1802:	2f a9       	ldd	r18, Y+55	; 0x37
    1804:	38 ad       	ldd	r19, Y+56	; 0x38
    1806:	80 81       	ld	r24, Z
    1808:	91 81       	ldd	r25, Z+1	; 0x01
    180a:	40 81       	ld	r20, Z
    180c:	51 81       	ldd	r21, Z+1	; 0x01
    180e:	97 fd       	sbrc	r25, 7
    1810:	01 96       	adiw	r24, 0x01	; 1
    1812:	bc 01       	movw	r22, r24
    1814:	75 95       	asr	r23
    1816:	67 95       	ror	r22
    1818:	88 27       	eor	r24, r24
    181a:	77 fd       	sbrc	r23, 7
    181c:	80 95       	com	r24
    181e:	98 2f       	mov	r25, r24
    1820:	60 0f       	add	r22, r16
    1822:	71 1f       	adc	r23, r17
    1824:	82 1f       	adc	r24, r18
    1826:	93 1f       	adc	r25, r19
    1828:	9a 01       	movw	r18, r20
    182a:	44 27       	eor	r20, r20
    182c:	37 fd       	sbrc	r19, 7
    182e:	40 95       	com	r20
    1830:	54 2f       	mov	r21, r20
    1832:	0e 94 68 15 	call	0x2ad0	; 0x2ad0 <__divmodsi4>
    1836:	3c 8f       	std	Y+28, r19	; 0x1c
    1838:	2b 8f       	std	Y+27, r18	; 0x1b
    183a:	8e 81       	ldd	r24, Y+6	; 0x06
    183c:	9f 81       	ldd	r25, Y+7	; 0x07
    183e:	81 3f       	cpi	r24, 0xF1	; 241
    1840:	98 4d       	sbci	r25, 0xD8	; 216
    1842:	e1 f1       	breq	.+120    	; 0x18bc <calculate_means+0x200>
    1844:	8e 81       	ldd	r24, Y+6	; 0x06
    1846:	9f 81       	ldd	r25, Y+7	; 0x07
    1848:	89 2b       	or	r24, r25
    184a:	c1 f1       	breq	.+112    	; 0x18bc <calculate_means+0x200>
    184c:	89 ad       	ldd	r24, Y+57	; 0x39
    184e:	9a ad       	ldd	r25, Y+58	; 0x3a
    1850:	ab ad       	ldd	r26, Y+59	; 0x3b
    1852:	bc ad       	ldd	r27, Y+60	; 0x3c
    1854:	4e 81       	ldd	r20, Y+6	; 0x06
    1856:	5f 81       	ldd	r21, Y+7	; 0x07
    1858:	66 27       	eor	r22, r22
    185a:	57 fd       	sbrc	r21, 7
    185c:	60 95       	com	r22
    185e:	76 2f       	mov	r23, r22
    1860:	84 0f       	add	r24, r20
    1862:	95 1f       	adc	r25, r21
    1864:	a6 1f       	adc	r26, r22
    1866:	b7 1f       	adc	r27, r23
    1868:	89 af       	std	Y+57, r24	; 0x39
    186a:	9a af       	std	Y+58, r25	; 0x3a
    186c:	ab af       	std	Y+59, r26	; 0x3b
    186e:	bc af       	std	Y+60, r27	; 0x3c
    1870:	fe 01       	movw	r30, r28
    1872:	e5 5a       	subi	r30, 0xA5	; 165
    1874:	ff 4f       	sbci	r31, 0xFF	; 255
    1876:	80 81       	ld	r24, Z
    1878:	91 81       	ldd	r25, Z+1	; 0x01
    187a:	01 96       	adiw	r24, 0x01	; 1
    187c:	91 83       	std	Z+1, r25	; 0x01
    187e:	80 83       	st	Z, r24
    1880:	09 ad       	ldd	r16, Y+57	; 0x39
    1882:	1a ad       	ldd	r17, Y+58	; 0x3a
    1884:	2b ad       	ldd	r18, Y+59	; 0x3b
    1886:	3c ad       	ldd	r19, Y+60	; 0x3c
    1888:	80 81       	ld	r24, Z
    188a:	91 81       	ldd	r25, Z+1	; 0x01
    188c:	40 81       	ld	r20, Z
    188e:	51 81       	ldd	r21, Z+1	; 0x01
    1890:	97 fd       	sbrc	r25, 7
    1892:	01 96       	adiw	r24, 0x01	; 1
    1894:	bc 01       	movw	r22, r24
    1896:	75 95       	asr	r23
    1898:	67 95       	ror	r22
    189a:	88 27       	eor	r24, r24
    189c:	77 fd       	sbrc	r23, 7
    189e:	80 95       	com	r24
    18a0:	98 2f       	mov	r25, r24
    18a2:	60 0f       	add	r22, r16
    18a4:	71 1f       	adc	r23, r17
    18a6:	82 1f       	adc	r24, r18
    18a8:	93 1f       	adc	r25, r19
    18aa:	9a 01       	movw	r18, r20
    18ac:	44 27       	eor	r20, r20
    18ae:	37 fd       	sbrc	r19, 7
    18b0:	40 95       	com	r20
    18b2:	54 2f       	mov	r21, r20
    18b4:	0e 94 68 15 	call	0x2ad0	; 0x2ad0 <__divmodsi4>
    18b8:	3e 8f       	std	Y+30, r19	; 0x1e
    18ba:	2d 8f       	std	Y+29, r18	; 0x1d
    18bc:	88 85       	ldd	r24, Y+8	; 0x08
    18be:	99 85       	ldd	r25, Y+9	; 0x09
    18c0:	aa 85       	ldd	r26, Y+10	; 0x0a
    18c2:	bb 85       	ldd	r27, Y+11	; 0x0b
    18c4:	81 3f       	cpi	r24, 0xF1	; 241
    18c6:	98 4d       	sbci	r25, 0xD8	; 216
    18c8:	af 4f       	sbci	r26, 0xFF	; 255
    18ca:	bf 4f       	sbci	r27, 0xFF	; 255
    18cc:	09 f4       	brne	.+2      	; 0x18d0 <calculate_means+0x214>
    18ce:	45 c0       	rjmp	.+138    	; 0x195a <calculate_means+0x29e>
    18d0:	88 85       	ldd	r24, Y+8	; 0x08
    18d2:	99 85       	ldd	r25, Y+9	; 0x09
    18d4:	aa 85       	ldd	r26, Y+10	; 0x0a
    18d6:	bb 85       	ldd	r27, Y+11	; 0x0b
    18d8:	89 2b       	or	r24, r25
    18da:	8a 2b       	or	r24, r26
    18dc:	8b 2b       	or	r24, r27
    18de:	e9 f1       	breq	.+122    	; 0x195a <calculate_means+0x29e>
    18e0:	9e 01       	movw	r18, r28
    18e2:	23 5c       	subi	r18, 0xC3	; 195
    18e4:	3f 4f       	sbci	r19, 0xFF	; 255
    18e6:	f9 01       	movw	r30, r18
    18e8:	80 81       	ld	r24, Z
    18ea:	91 81       	ldd	r25, Z+1	; 0x01
    18ec:	a2 81       	ldd	r26, Z+2	; 0x02
    18ee:	b3 81       	ldd	r27, Z+3	; 0x03
    18f0:	48 85       	ldd	r20, Y+8	; 0x08
    18f2:	59 85       	ldd	r21, Y+9	; 0x09
    18f4:	6a 85       	ldd	r22, Y+10	; 0x0a
    18f6:	7b 85       	ldd	r23, Y+11	; 0x0b
    18f8:	84 0f       	add	r24, r20
    18fa:	95 1f       	adc	r25, r21
    18fc:	a6 1f       	adc	r26, r22
    18fe:	b7 1f       	adc	r27, r23
    1900:	80 83       	st	Z, r24
    1902:	91 83       	std	Z+1, r25	; 0x01
    1904:	a2 83       	std	Z+2, r26	; 0x02
    1906:	b3 83       	std	Z+3, r27	; 0x03
    1908:	fe 01       	movw	r30, r28
    190a:	e3 5a       	subi	r30, 0xA3	; 163
    190c:	ff 4f       	sbci	r31, 0xFF	; 255
    190e:	80 81       	ld	r24, Z
    1910:	91 81       	ldd	r25, Z+1	; 0x01
    1912:	01 96       	adiw	r24, 0x01	; 1
    1914:	91 83       	std	Z+1, r25	; 0x01
    1916:	80 83       	st	Z, r24
    1918:	d9 01       	movw	r26, r18
    191a:	0d 91       	ld	r16, X+
    191c:	1d 91       	ld	r17, X+
    191e:	2d 91       	ld	r18, X+
    1920:	3c 91       	ld	r19, X
    1922:	80 81       	ld	r24, Z
    1924:	91 81       	ldd	r25, Z+1	; 0x01
    1926:	40 81       	ld	r20, Z
    1928:	51 81       	ldd	r21, Z+1	; 0x01
    192a:	97 fd       	sbrc	r25, 7
    192c:	01 96       	adiw	r24, 0x01	; 1
    192e:	bc 01       	movw	r22, r24
    1930:	75 95       	asr	r23
    1932:	67 95       	ror	r22
    1934:	88 27       	eor	r24, r24
    1936:	77 fd       	sbrc	r23, 7
    1938:	80 95       	com	r24
    193a:	98 2f       	mov	r25, r24
    193c:	60 0f       	add	r22, r16
    193e:	71 1f       	adc	r23, r17
    1940:	82 1f       	adc	r24, r18
    1942:	93 1f       	adc	r25, r19
    1944:	9a 01       	movw	r18, r20
    1946:	44 27       	eor	r20, r20
    1948:	37 fd       	sbrc	r19, 7
    194a:	40 95       	com	r20
    194c:	54 2f       	mov	r21, r20
    194e:	0e 94 68 15 	call	0x2ad0	; 0x2ad0 <__divmodsi4>
    1952:	2f 8f       	std	Y+31, r18	; 0x1f
    1954:	38 a3       	std	Y+32, r19	; 0x20
    1956:	49 a3       	std	Y+33, r20	; 0x21
    1958:	5a a3       	std	Y+34, r21	; 0x22
    195a:	8c 85       	ldd	r24, Y+12	; 0x0c
    195c:	9d 85       	ldd	r25, Y+13	; 0x0d
    195e:	81 3f       	cpi	r24, 0xF1	; 241
    1960:	98 4d       	sbci	r25, 0xD8	; 216
    1962:	09 f4       	brne	.+2      	; 0x1966 <calculate_means+0x2aa>
    1964:	41 c0       	rjmp	.+130    	; 0x19e8 <calculate_means+0x32c>
    1966:	8c 85       	ldd	r24, Y+12	; 0x0c
    1968:	9d 85       	ldd	r25, Y+13	; 0x0d
    196a:	89 2b       	or	r24, r25
    196c:	e9 f1       	breq	.+122    	; 0x19e8 <calculate_means+0x32c>
    196e:	9e 01       	movw	r18, r28
    1970:	2f 5b       	subi	r18, 0xBF	; 191
    1972:	3f 4f       	sbci	r19, 0xFF	; 255
    1974:	f9 01       	movw	r30, r18
    1976:	80 81       	ld	r24, Z
    1978:	91 81       	ldd	r25, Z+1	; 0x01
    197a:	a2 81       	ldd	r26, Z+2	; 0x02
    197c:	b3 81       	ldd	r27, Z+3	; 0x03
    197e:	4c 85       	ldd	r20, Y+12	; 0x0c
    1980:	5d 85       	ldd	r21, Y+13	; 0x0d
    1982:	66 27       	eor	r22, r22
    1984:	57 fd       	sbrc	r21, 7
    1986:	60 95       	com	r22
    1988:	76 2f       	mov	r23, r22
    198a:	84 0f       	add	r24, r20
    198c:	95 1f       	adc	r25, r21
    198e:	a6 1f       	adc	r26, r22
    1990:	b7 1f       	adc	r27, r23
    1992:	80 83       	st	Z, r24
    1994:	91 83       	std	Z+1, r25	; 0x01
    1996:	a2 83       	std	Z+2, r26	; 0x02
    1998:	b3 83       	std	Z+3, r27	; 0x03
    199a:	fe 01       	movw	r30, r28
    199c:	e1 5a       	subi	r30, 0xA1	; 161
    199e:	ff 4f       	sbci	r31, 0xFF	; 255
    19a0:	80 81       	ld	r24, Z
    19a2:	91 81       	ldd	r25, Z+1	; 0x01
    19a4:	01 96       	adiw	r24, 0x01	; 1
    19a6:	91 83       	std	Z+1, r25	; 0x01
    19a8:	80 83       	st	Z, r24
    19aa:	d9 01       	movw	r26, r18
    19ac:	0d 91       	ld	r16, X+
    19ae:	1d 91       	ld	r17, X+
    19b0:	2d 91       	ld	r18, X+
    19b2:	3c 91       	ld	r19, X
    19b4:	80 81       	ld	r24, Z
    19b6:	91 81       	ldd	r25, Z+1	; 0x01
    19b8:	40 81       	ld	r20, Z
    19ba:	51 81       	ldd	r21, Z+1	; 0x01
    19bc:	97 fd       	sbrc	r25, 7
    19be:	01 96       	adiw	r24, 0x01	; 1
    19c0:	bc 01       	movw	r22, r24
    19c2:	75 95       	asr	r23
    19c4:	67 95       	ror	r22
    19c6:	88 27       	eor	r24, r24
    19c8:	77 fd       	sbrc	r23, 7
    19ca:	80 95       	com	r24
    19cc:	98 2f       	mov	r25, r24
    19ce:	60 0f       	add	r22, r16
    19d0:	71 1f       	adc	r23, r17
    19d2:	82 1f       	adc	r24, r18
    19d4:	93 1f       	adc	r25, r19
    19d6:	9a 01       	movw	r18, r20
    19d8:	44 27       	eor	r20, r20
    19da:	37 fd       	sbrc	r19, 7
    19dc:	40 95       	com	r20
    19de:	54 2f       	mov	r21, r20
    19e0:	0e 94 68 15 	call	0x2ad0	; 0x2ad0 <__divmodsi4>
    19e4:	3c a3       	std	Y+36, r19	; 0x24
    19e6:	2b a3       	std	Y+35, r18	; 0x23
    19e8:	8f 85       	ldd	r24, Y+15	; 0x0f
    19ea:	98 89       	ldd	r25, Y+16	; 0x10
    19ec:	81 3f       	cpi	r24, 0xF1	; 241
    19ee:	98 4d       	sbci	r25, 0xD8	; 216
    19f0:	09 f4       	brne	.+2      	; 0x19f4 <calculate_means+0x338>
    19f2:	41 c0       	rjmp	.+130    	; 0x1a76 <calculate_means+0x3ba>
    19f4:	8f 85       	ldd	r24, Y+15	; 0x0f
    19f6:	98 89       	ldd	r25, Y+16	; 0x10
    19f8:	89 2b       	or	r24, r25
    19fa:	e9 f1       	breq	.+122    	; 0x1a76 <calculate_means+0x3ba>
    19fc:	9e 01       	movw	r18, r28
    19fe:	2b 5b       	subi	r18, 0xBB	; 187
    1a00:	3f 4f       	sbci	r19, 0xFF	; 255
    1a02:	f9 01       	movw	r30, r18
    1a04:	80 81       	ld	r24, Z
    1a06:	91 81       	ldd	r25, Z+1	; 0x01
    1a08:	a2 81       	ldd	r26, Z+2	; 0x02
    1a0a:	b3 81       	ldd	r27, Z+3	; 0x03
    1a0c:	4f 85       	ldd	r20, Y+15	; 0x0f
    1a0e:	58 89       	ldd	r21, Y+16	; 0x10
    1a10:	66 27       	eor	r22, r22
    1a12:	57 fd       	sbrc	r21, 7
    1a14:	60 95       	com	r22
    1a16:	76 2f       	mov	r23, r22
    1a18:	84 0f       	add	r24, r20
    1a1a:	95 1f       	adc	r25, r21
    1a1c:	a6 1f       	adc	r26, r22
    1a1e:	b7 1f       	adc	r27, r23
    1a20:	80 83       	st	Z, r24
    1a22:	91 83       	std	Z+1, r25	; 0x01
    1a24:	a2 83       	std	Z+2, r26	; 0x02
    1a26:	b3 83       	std	Z+3, r27	; 0x03
    1a28:	fe 01       	movw	r30, r28
    1a2a:	ef 59       	subi	r30, 0x9F	; 159
    1a2c:	ff 4f       	sbci	r31, 0xFF	; 255
    1a2e:	80 81       	ld	r24, Z
    1a30:	91 81       	ldd	r25, Z+1	; 0x01
    1a32:	01 96       	adiw	r24, 0x01	; 1
    1a34:	91 83       	std	Z+1, r25	; 0x01
    1a36:	80 83       	st	Z, r24
    1a38:	d9 01       	movw	r26, r18
    1a3a:	0d 91       	ld	r16, X+
    1a3c:	1d 91       	ld	r17, X+
    1a3e:	2d 91       	ld	r18, X+
    1a40:	3c 91       	ld	r19, X
    1a42:	80 81       	ld	r24, Z
    1a44:	91 81       	ldd	r25, Z+1	; 0x01
    1a46:	40 81       	ld	r20, Z
    1a48:	51 81       	ldd	r21, Z+1	; 0x01
    1a4a:	97 fd       	sbrc	r25, 7
    1a4c:	01 96       	adiw	r24, 0x01	; 1
    1a4e:	bc 01       	movw	r22, r24
    1a50:	75 95       	asr	r23
    1a52:	67 95       	ror	r22
    1a54:	88 27       	eor	r24, r24
    1a56:	77 fd       	sbrc	r23, 7
    1a58:	80 95       	com	r24
    1a5a:	98 2f       	mov	r25, r24
    1a5c:	60 0f       	add	r22, r16
    1a5e:	71 1f       	adc	r23, r17
    1a60:	82 1f       	adc	r24, r18
    1a62:	93 1f       	adc	r25, r19
    1a64:	9a 01       	movw	r18, r20
    1a66:	44 27       	eor	r20, r20
    1a68:	37 fd       	sbrc	r19, 7
    1a6a:	40 95       	com	r20
    1a6c:	54 2f       	mov	r21, r20
    1a6e:	0e 94 68 15 	call	0x2ad0	; 0x2ad0 <__divmodsi4>
    1a72:	3e a3       	std	Y+38, r19	; 0x26
    1a74:	2d a3       	std	Y+37, r18	; 0x25
    1a76:	89 89       	ldd	r24, Y+17	; 0x11
    1a78:	9a 89       	ldd	r25, Y+18	; 0x12
    1a7a:	81 3f       	cpi	r24, 0xF1	; 241
    1a7c:	98 4d       	sbci	r25, 0xD8	; 216
    1a7e:	09 f4       	brne	.+2      	; 0x1a82 <calculate_means+0x3c6>
    1a80:	41 c0       	rjmp	.+130    	; 0x1b04 <calculate_means+0x448>
    1a82:	89 89       	ldd	r24, Y+17	; 0x11
    1a84:	9a 89       	ldd	r25, Y+18	; 0x12
    1a86:	89 2b       	or	r24, r25
    1a88:	e9 f1       	breq	.+122    	; 0x1b04 <calculate_means+0x448>
    1a8a:	9e 01       	movw	r18, r28
    1a8c:	27 5b       	subi	r18, 0xB7	; 183
    1a8e:	3f 4f       	sbci	r19, 0xFF	; 255
    1a90:	f9 01       	movw	r30, r18
    1a92:	80 81       	ld	r24, Z
    1a94:	91 81       	ldd	r25, Z+1	; 0x01
    1a96:	a2 81       	ldd	r26, Z+2	; 0x02
    1a98:	b3 81       	ldd	r27, Z+3	; 0x03
    1a9a:	49 89       	ldd	r20, Y+17	; 0x11
    1a9c:	5a 89       	ldd	r21, Y+18	; 0x12
    1a9e:	66 27       	eor	r22, r22
    1aa0:	57 fd       	sbrc	r21, 7
    1aa2:	60 95       	com	r22
    1aa4:	76 2f       	mov	r23, r22
    1aa6:	84 0f       	add	r24, r20
    1aa8:	95 1f       	adc	r25, r21
    1aaa:	a6 1f       	adc	r26, r22
    1aac:	b7 1f       	adc	r27, r23
    1aae:	80 83       	st	Z, r24
    1ab0:	91 83       	std	Z+1, r25	; 0x01
    1ab2:	a2 83       	std	Z+2, r26	; 0x02
    1ab4:	b3 83       	std	Z+3, r27	; 0x03
    1ab6:	fe 01       	movw	r30, r28
    1ab8:	ed 59       	subi	r30, 0x9D	; 157
    1aba:	ff 4f       	sbci	r31, 0xFF	; 255
    1abc:	80 81       	ld	r24, Z
    1abe:	91 81       	ldd	r25, Z+1	; 0x01
    1ac0:	01 96       	adiw	r24, 0x01	; 1
    1ac2:	91 83       	std	Z+1, r25	; 0x01
    1ac4:	80 83       	st	Z, r24
    1ac6:	d9 01       	movw	r26, r18
    1ac8:	0d 91       	ld	r16, X+
    1aca:	1d 91       	ld	r17, X+
    1acc:	2d 91       	ld	r18, X+
    1ace:	3c 91       	ld	r19, X
    1ad0:	80 81       	ld	r24, Z
    1ad2:	91 81       	ldd	r25, Z+1	; 0x01
    1ad4:	40 81       	ld	r20, Z
    1ad6:	51 81       	ldd	r21, Z+1	; 0x01
    1ad8:	97 fd       	sbrc	r25, 7
    1ada:	01 96       	adiw	r24, 0x01	; 1
    1adc:	bc 01       	movw	r22, r24
    1ade:	75 95       	asr	r23
    1ae0:	67 95       	ror	r22
    1ae2:	88 27       	eor	r24, r24
    1ae4:	77 fd       	sbrc	r23, 7
    1ae6:	80 95       	com	r24
    1ae8:	98 2f       	mov	r25, r24
    1aea:	60 0f       	add	r22, r16
    1aec:	71 1f       	adc	r23, r17
    1aee:	82 1f       	adc	r24, r18
    1af0:	93 1f       	adc	r25, r19
    1af2:	9a 01       	movw	r18, r20
    1af4:	44 27       	eor	r20, r20
    1af6:	37 fd       	sbrc	r19, 7
    1af8:	40 95       	com	r20
    1afa:	54 2f       	mov	r21, r20
    1afc:	0e 94 68 15 	call	0x2ad0	; 0x2ad0 <__divmodsi4>
    1b00:	38 a7       	std	Y+40, r19	; 0x28
    1b02:	2f a3       	std	Y+39, r18	; 0x27
    1b04:	8b 89       	ldd	r24, Y+19	; 0x13
    1b06:	9c 89       	ldd	r25, Y+20	; 0x14
    1b08:	81 3f       	cpi	r24, 0xF1	; 241
    1b0a:	98 4d       	sbci	r25, 0xD8	; 216
    1b0c:	09 f4       	brne	.+2      	; 0x1b10 <calculate_means+0x454>
    1b0e:	41 c0       	rjmp	.+130    	; 0x1b92 <calculate_means+0x4d6>
    1b10:	8b 89       	ldd	r24, Y+19	; 0x13
    1b12:	9c 89       	ldd	r25, Y+20	; 0x14
    1b14:	89 2b       	or	r24, r25
    1b16:	e9 f1       	breq	.+122    	; 0x1b92 <calculate_means+0x4d6>
    1b18:	9e 01       	movw	r18, r28
    1b1a:	23 5b       	subi	r18, 0xB3	; 179
    1b1c:	3f 4f       	sbci	r19, 0xFF	; 255
    1b1e:	f9 01       	movw	r30, r18
    1b20:	80 81       	ld	r24, Z
    1b22:	91 81       	ldd	r25, Z+1	; 0x01
    1b24:	a2 81       	ldd	r26, Z+2	; 0x02
    1b26:	b3 81       	ldd	r27, Z+3	; 0x03
    1b28:	4b 89       	ldd	r20, Y+19	; 0x13
    1b2a:	5c 89       	ldd	r21, Y+20	; 0x14
    1b2c:	66 27       	eor	r22, r22
    1b2e:	57 fd       	sbrc	r21, 7
    1b30:	60 95       	com	r22
    1b32:	76 2f       	mov	r23, r22
    1b34:	84 0f       	add	r24, r20
    1b36:	95 1f       	adc	r25, r21
    1b38:	a6 1f       	adc	r26, r22
    1b3a:	b7 1f       	adc	r27, r23
    1b3c:	80 83       	st	Z, r24
    1b3e:	91 83       	std	Z+1, r25	; 0x01
    1b40:	a2 83       	std	Z+2, r26	; 0x02
    1b42:	b3 83       	std	Z+3, r27	; 0x03
    1b44:	fe 01       	movw	r30, r28
    1b46:	eb 59       	subi	r30, 0x9B	; 155
    1b48:	ff 4f       	sbci	r31, 0xFF	; 255
    1b4a:	80 81       	ld	r24, Z
    1b4c:	91 81       	ldd	r25, Z+1	; 0x01
    1b4e:	01 96       	adiw	r24, 0x01	; 1
    1b50:	91 83       	std	Z+1, r25	; 0x01
    1b52:	80 83       	st	Z, r24
    1b54:	d9 01       	movw	r26, r18
    1b56:	0d 91       	ld	r16, X+
    1b58:	1d 91       	ld	r17, X+
    1b5a:	2d 91       	ld	r18, X+
    1b5c:	3c 91       	ld	r19, X
    1b5e:	80 81       	ld	r24, Z
    1b60:	91 81       	ldd	r25, Z+1	; 0x01
    1b62:	40 81       	ld	r20, Z
    1b64:	51 81       	ldd	r21, Z+1	; 0x01
    1b66:	97 fd       	sbrc	r25, 7
    1b68:	01 96       	adiw	r24, 0x01	; 1
    1b6a:	bc 01       	movw	r22, r24
    1b6c:	75 95       	asr	r23
    1b6e:	67 95       	ror	r22
    1b70:	88 27       	eor	r24, r24
    1b72:	77 fd       	sbrc	r23, 7
    1b74:	80 95       	com	r24
    1b76:	98 2f       	mov	r25, r24
    1b78:	60 0f       	add	r22, r16
    1b7a:	71 1f       	adc	r23, r17
    1b7c:	82 1f       	adc	r24, r18
    1b7e:	93 1f       	adc	r25, r19
    1b80:	9a 01       	movw	r18, r20
    1b82:	44 27       	eor	r20, r20
    1b84:	37 fd       	sbrc	r19, 7
    1b86:	40 95       	com	r20
    1b88:	54 2f       	mov	r21, r20
    1b8a:	0e 94 68 15 	call	0x2ad0	; 0x2ad0 <__divmodsi4>
    1b8e:	3a a7       	std	Y+42, r19	; 0x2a
    1b90:	29 a7       	std	Y+41, r18	; 0x29
    1b92:	8d 89       	ldd	r24, Y+21	; 0x15
    1b94:	9e 89       	ldd	r25, Y+22	; 0x16
    1b96:	81 3f       	cpi	r24, 0xF1	; 241
    1b98:	98 4d       	sbci	r25, 0xD8	; 216
    1b9a:	09 f4       	brne	.+2      	; 0x1b9e <calculate_means+0x4e2>
    1b9c:	41 c0       	rjmp	.+130    	; 0x1c20 <calculate_means+0x564>
    1b9e:	8d 89       	ldd	r24, Y+21	; 0x15
    1ba0:	9e 89       	ldd	r25, Y+22	; 0x16
    1ba2:	89 2b       	or	r24, r25
    1ba4:	e9 f1       	breq	.+122    	; 0x1c20 <calculate_means+0x564>
    1ba6:	9e 01       	movw	r18, r28
    1ba8:	2f 5a       	subi	r18, 0xAF	; 175
    1baa:	3f 4f       	sbci	r19, 0xFF	; 255
    1bac:	f9 01       	movw	r30, r18
    1bae:	40 81       	ld	r20, Z
    1bb0:	51 81       	ldd	r21, Z+1	; 0x01
    1bb2:	62 81       	ldd	r22, Z+2	; 0x02
    1bb4:	73 81       	ldd	r23, Z+3	; 0x03
    1bb6:	8d 89       	ldd	r24, Y+21	; 0x15
    1bb8:	9e 89       	ldd	r25, Y+22	; 0x16
    1bba:	aa 27       	eor	r26, r26
    1bbc:	97 fd       	sbrc	r25, 7
    1bbe:	a0 95       	com	r26
    1bc0:	ba 2f       	mov	r27, r26
    1bc2:	48 0f       	add	r20, r24
    1bc4:	59 1f       	adc	r21, r25
    1bc6:	6a 1f       	adc	r22, r26
    1bc8:	7b 1f       	adc	r23, r27
    1bca:	d9 01       	movw	r26, r18
    1bcc:	40 83       	st	Z, r20
    1bce:	51 83       	std	Z+1, r21	; 0x01
    1bd0:	62 83       	std	Z+2, r22	; 0x02
    1bd2:	73 83       	std	Z+3, r23	; 0x03
    1bd4:	fe 01       	movw	r30, r28
    1bd6:	e9 59       	subi	r30, 0x99	; 153
    1bd8:	ff 4f       	sbci	r31, 0xFF	; 255
    1bda:	80 81       	ld	r24, Z
    1bdc:	91 81       	ldd	r25, Z+1	; 0x01
    1bde:	01 96       	adiw	r24, 0x01	; 1
    1be0:	91 83       	std	Z+1, r25	; 0x01
    1be2:	80 83       	st	Z, r24
    1be4:	0d 91       	ld	r16, X+
    1be6:	1d 91       	ld	r17, X+
    1be8:	2d 91       	ld	r18, X+
    1bea:	3c 91       	ld	r19, X
    1bec:	80 81       	ld	r24, Z
    1bee:	91 81       	ldd	r25, Z+1	; 0x01
    1bf0:	40 81       	ld	r20, Z
    1bf2:	51 81       	ldd	r21, Z+1	; 0x01
    1bf4:	97 fd       	sbrc	r25, 7
    1bf6:	01 96       	adiw	r24, 0x01	; 1
    1bf8:	bc 01       	movw	r22, r24
    1bfa:	75 95       	asr	r23
    1bfc:	67 95       	ror	r22
    1bfe:	88 27       	eor	r24, r24
    1c00:	77 fd       	sbrc	r23, 7
    1c02:	80 95       	com	r24
    1c04:	98 2f       	mov	r25, r24
    1c06:	60 0f       	add	r22, r16
    1c08:	71 1f       	adc	r23, r17
    1c0a:	82 1f       	adc	r24, r18
    1c0c:	93 1f       	adc	r25, r19
    1c0e:	9a 01       	movw	r18, r20
    1c10:	44 27       	eor	r20, r20
    1c12:	37 fd       	sbrc	r19, 7
    1c14:	40 95       	com	r20
    1c16:	54 2f       	mov	r21, r20
    1c18:	0e 94 68 15 	call	0x2ad0	; 0x2ad0 <__divmodsi4>
    1c1c:	3c a7       	std	Y+44, r19	; 0x2c
    1c1e:	2b a7       	std	Y+43, r18	; 0x2b
    1c20:	fe 01       	movw	r30, r28
    1c22:	e7 59       	subi	r30, 0x97	; 151
    1c24:	ff 4f       	sbci	r31, 0xFF	; 255
    1c26:	80 81       	ld	r24, Z
    1c28:	91 81       	ldd	r25, Z+1	; 0x01
    1c2a:	01 96       	adiw	r24, 0x01	; 1
    1c2c:	91 83       	std	Z+1, r25	; 0x01
    1c2e:	80 83       	st	Z, r24
    1c30:	20 81       	ld	r18, Z
    1c32:	31 81       	ldd	r19, Z+1	; 0x01
    1c34:	de 01       	movw	r26, r28
    1c36:	a5 59       	subi	r26, 0x95	; 149
    1c38:	bf 4f       	sbci	r27, 0xFF	; 255
    1c3a:	8d 91       	ld	r24, X+
    1c3c:	9c 91       	ld	r25, X
    1c3e:	28 17       	cp	r18, r24
    1c40:	39 07       	cpc	r19, r25
    1c42:	08 f4       	brcc	.+2      	; 0x1c46 <calculate_means+0x58a>
    1c44:	7b c0       	rjmp	.+246    	; 0x1d3c <calculate_means+0x680>
    1c46:	1d a6       	std	Y+45, r1	; 0x2d
    1c48:	1e a6       	std	Y+46, r1	; 0x2e
    1c4a:	1f a6       	std	Y+47, r1	; 0x2f
    1c4c:	18 aa       	std	Y+48, r1	; 0x30
    1c4e:	19 aa       	std	Y+49, r1	; 0x31
    1c50:	1a aa       	std	Y+50, r1	; 0x32
    1c52:	1b aa       	std	Y+51, r1	; 0x33
    1c54:	1c aa       	std	Y+52, r1	; 0x34
    1c56:	1d aa       	std	Y+53, r1	; 0x35
    1c58:	1e aa       	std	Y+54, r1	; 0x36
    1c5a:	1f aa       	std	Y+55, r1	; 0x37
    1c5c:	18 ae       	std	Y+56, r1	; 0x38
    1c5e:	19 ae       	std	Y+57, r1	; 0x39
    1c60:	1a ae       	std	Y+58, r1	; 0x3a
    1c62:	1b ae       	std	Y+59, r1	; 0x3b
    1c64:	1c ae       	std	Y+60, r1	; 0x3c
    1c66:	de 01       	movw	r26, r28
    1c68:	dd 96       	adiw	r26, 0x3d	; 61
    1c6a:	1d 92       	st	X+, r1
    1c6c:	1d 92       	st	X+, r1
    1c6e:	1d 92       	st	X+, r1
    1c70:	1c 92       	st	X, r1
    1c72:	13 97       	sbiw	r26, 0x03	; 3
    1c74:	de 01       	movw	r26, r28
    1c76:	af 5b       	subi	r26, 0xBF	; 191
    1c78:	bf 4f       	sbci	r27, 0xFF	; 255
    1c7a:	1d 92       	st	X+, r1
    1c7c:	1d 92       	st	X+, r1
    1c7e:	1d 92       	st	X+, r1
    1c80:	1c 92       	st	X, r1
    1c82:	13 97       	sbiw	r26, 0x03	; 3
    1c84:	de 01       	movw	r26, r28
    1c86:	ab 5b       	subi	r26, 0xBB	; 187
    1c88:	bf 4f       	sbci	r27, 0xFF	; 255
    1c8a:	1d 92       	st	X+, r1
    1c8c:	1d 92       	st	X+, r1
    1c8e:	1d 92       	st	X+, r1
    1c90:	1c 92       	st	X, r1
    1c92:	13 97       	sbiw	r26, 0x03	; 3
    1c94:	de 01       	movw	r26, r28
    1c96:	a7 5b       	subi	r26, 0xB7	; 183
    1c98:	bf 4f       	sbci	r27, 0xFF	; 255
    1c9a:	1d 92       	st	X+, r1
    1c9c:	1d 92       	st	X+, r1
    1c9e:	1d 92       	st	X+, r1
    1ca0:	1c 92       	st	X, r1
    1ca2:	13 97       	sbiw	r26, 0x03	; 3
    1ca4:	de 01       	movw	r26, r28
    1ca6:	a3 5b       	subi	r26, 0xB3	; 179
    1ca8:	bf 4f       	sbci	r27, 0xFF	; 255
    1caa:	1d 92       	st	X+, r1
    1cac:	1d 92       	st	X+, r1
    1cae:	1d 92       	st	X+, r1
    1cb0:	1c 92       	st	X, r1
    1cb2:	13 97       	sbiw	r26, 0x03	; 3
    1cb4:	de 01       	movw	r26, r28
    1cb6:	af 5a       	subi	r26, 0xAF	; 175
    1cb8:	bf 4f       	sbci	r27, 0xFF	; 255
    1cba:	1d 92       	st	X+, r1
    1cbc:	1d 92       	st	X+, r1
    1cbe:	1d 92       	st	X+, r1
    1cc0:	1c 92       	st	X, r1
    1cc2:	13 97       	sbiw	r26, 0x03	; 3
    1cc4:	de 01       	movw	r26, r28
    1cc6:	ab 5a       	subi	r26, 0xAB	; 171
    1cc8:	bf 4f       	sbci	r27, 0xFF	; 255
    1cca:	11 96       	adiw	r26, 0x01	; 1
    1ccc:	1c 92       	st	X, r1
    1cce:	1e 92       	st	-X, r1
    1cd0:	de 01       	movw	r26, r28
    1cd2:	a9 5a       	subi	r26, 0xA9	; 169
    1cd4:	bf 4f       	sbci	r27, 0xFF	; 255
    1cd6:	11 96       	adiw	r26, 0x01	; 1
    1cd8:	1c 92       	st	X, r1
    1cda:	1e 92       	st	-X, r1
    1cdc:	de 01       	movw	r26, r28
    1cde:	a7 5a       	subi	r26, 0xA7	; 167
    1ce0:	bf 4f       	sbci	r27, 0xFF	; 255
    1ce2:	11 96       	adiw	r26, 0x01	; 1
    1ce4:	1c 92       	st	X, r1
    1ce6:	1e 92       	st	-X, r1
    1ce8:	de 01       	movw	r26, r28
    1cea:	a5 5a       	subi	r26, 0xA5	; 165
    1cec:	bf 4f       	sbci	r27, 0xFF	; 255
    1cee:	11 96       	adiw	r26, 0x01	; 1
    1cf0:	1c 92       	st	X, r1
    1cf2:	1e 92       	st	-X, r1
    1cf4:	de 01       	movw	r26, r28
    1cf6:	a3 5a       	subi	r26, 0xA3	; 163
    1cf8:	bf 4f       	sbci	r27, 0xFF	; 255
    1cfa:	11 96       	adiw	r26, 0x01	; 1
    1cfc:	1c 92       	st	X, r1
    1cfe:	1e 92       	st	-X, r1
    1d00:	de 01       	movw	r26, r28
    1d02:	a1 5a       	subi	r26, 0xA1	; 161
    1d04:	bf 4f       	sbci	r27, 0xFF	; 255
    1d06:	11 96       	adiw	r26, 0x01	; 1
    1d08:	1c 92       	st	X, r1
    1d0a:	1e 92       	st	-X, r1
    1d0c:	de 01       	movw	r26, r28
    1d0e:	af 59       	subi	r26, 0x9F	; 159
    1d10:	bf 4f       	sbci	r27, 0xFF	; 255
    1d12:	11 96       	adiw	r26, 0x01	; 1
    1d14:	1c 92       	st	X, r1
    1d16:	1e 92       	st	-X, r1
    1d18:	de 01       	movw	r26, r28
    1d1a:	ad 59       	subi	r26, 0x9D	; 157
    1d1c:	bf 4f       	sbci	r27, 0xFF	; 255
    1d1e:	11 96       	adiw	r26, 0x01	; 1
    1d20:	1c 92       	st	X, r1
    1d22:	1e 92       	st	-X, r1
    1d24:	de 01       	movw	r26, r28
    1d26:	ab 59       	subi	r26, 0x9B	; 155
    1d28:	bf 4f       	sbci	r27, 0xFF	; 255
    1d2a:	11 96       	adiw	r26, 0x01	; 1
    1d2c:	1c 92       	st	X, r1
    1d2e:	1e 92       	st	-X, r1
    1d30:	c9 59       	subi	r28, 0x99	; 153
    1d32:	df 4f       	sbci	r29, 0xFF	; 255
    1d34:	19 82       	std	Y+1, r1	; 0x01
    1d36:	18 82       	st	Y, r1
    1d38:	11 82       	std	Z+1, r1	; 0x01
    1d3a:	10 82       	st	Z, r1
    1d3c:	80 e0       	ldi	r24, 0x00	; 0
    1d3e:	df 91       	pop	r29
    1d40:	cf 91       	pop	r28
    1d42:	1f 91       	pop	r17
    1d44:	0f 91       	pop	r16
    1d46:	08 95       	ret

00001d48 <main>:
    1d48:	cf 93       	push	r28
    1d4a:	df 93       	push	r29
    1d4c:	cd b7       	in	r28, 0x3d	; 61
    1d4e:	de b7       	in	r29, 0x3e	; 62
    1d50:	c0 56       	subi	r28, 0x60	; 96
    1d52:	d1 40       	sbci	r29, 0x01	; 1
    1d54:	0f b6       	in	r0, 0x3f	; 63
    1d56:	f8 94       	cli
    1d58:	de bf       	out	0x3e, r29	; 62
    1d5a:	0f be       	out	0x3f, r0	; 63
    1d5c:	cd bf       	out	0x3d, r28	; 61
    1d5e:	0e 94 57 11 	call	0x22ae	; 0x22ae <init>
    1d62:	3e 01       	movw	r6, r28
    1d64:	25 ed       	ldi	r18, 0xD5	; 213
    1d66:	62 1a       	sub	r6, r18
    1d68:	2e ef       	ldi	r18, 0xFE	; 254
    1d6a:	72 0a       	sbc	r7, r18
    1d6c:	8a ef       	ldi	r24, 0xFA	; 250
    1d6e:	c8 2e       	mov	r12, r24
    1d70:	d1 2c       	mov	r13, r1
    1d72:	e1 2c       	mov	r14, r1
    1d74:	08 eb       	ldi	r16, 0xB8	; 184
    1d76:	1b e0       	ldi	r17, 0x0B	; 11
    1d78:	2f ef       	ldi	r18, 0xFF	; 255
    1d7a:	41 e0       	ldi	r20, 0x01	; 1
    1d7c:	62 e0       	ldi	r22, 0x02	; 2
    1d7e:	c3 01       	movw	r24, r6
    1d80:	0e 94 da 12 	call	0x25b4	; 0x25b4 <init_PID_values>
    1d84:	2e 01       	movw	r4, r28
    1d86:	8b ef       	ldi	r24, 0xFB	; 251
    1d88:	48 1a       	sub	r4, r24
    1d8a:	8e ef       	ldi	r24, 0xFE	; 254
    1d8c:	58 0a       	sbc	r5, r24
    1d8e:	00 e8       	ldi	r16, 0x80	; 128
    1d90:	1c e0       	ldi	r17, 0x0C	; 12
    1d92:	2f ef       	ldi	r18, 0xFF	; 255
    1d94:	41 e0       	ldi	r20, 0x01	; 1
    1d96:	62 e0       	ldi	r22, 0x02	; 2
    1d98:	c2 01       	movw	r24, r4
    1d9a:	0e 94 da 12 	call	0x25b4	; 0x25b4 <init_PID_values>
    1d9e:	1e 01       	movw	r2, r28
    1da0:	ef ed       	ldi	r30, 0xDF	; 223
    1da2:	2e 0e       	add	r2, r30
    1da4:	31 1c       	adc	r3, r1
    1da6:	9c ed       	ldi	r25, 0xDC	; 220
    1da8:	c9 2e       	mov	r12, r25
    1daa:	95 e0       	ldi	r25, 0x05	; 5
    1dac:	d9 2e       	mov	r13, r25
    1dae:	22 e3       	ldi	r18, 0x32	; 50
    1db0:	e2 2e       	mov	r14, r18
    1db2:	00 e7       	ldi	r16, 0x70	; 112
    1db4:	17 e1       	ldi	r17, 0x17	; 23
    1db6:	2f ef       	ldi	r18, 0xFF	; 255
    1db8:	41 e0       	ldi	r20, 0x01	; 1
    1dba:	62 e0       	ldi	r22, 0x02	; 2
    1dbc:	c1 01       	movw	r24, r2
    1dbe:	0e 94 da 12 	call	0x25b4	; 0x25b4 <init_PID_values>
    1dc2:	4e 01       	movw	r8, r28
    1dc4:	f3 ea       	ldi	r31, 0xA3	; 163
    1dc6:	8f 1a       	sub	r8, r31
    1dc8:	fe ef       	ldi	r31, 0xFE	; 254
    1dca:	9f 0a       	sbc	r9, r31
    1dcc:	80 e4       	ldi	r24, 0x40	; 64
    1dce:	90 e0       	ldi	r25, 0x00	; 0
    1dd0:	a0 e0       	ldi	r26, 0x00	; 0
    1dd2:	b0 e0       	ldi	r27, 0x00	; 0
    1dd4:	f4 01       	movw	r30, r8
    1dd6:	80 83       	st	Z, r24
    1dd8:	91 83       	std	Z+1, r25	; 0x01
    1dda:	a2 83       	std	Z+2, r26	; 0x02
    1ddc:	b3 83       	std	Z+3, r27	; 0x03
    1dde:	5e 01       	movw	r10, r28
    1de0:	f0 e7       	ldi	r31, 0x70	; 112
    1de2:	af 0e       	add	r10, r31
    1de4:	b1 1c       	adc	r11, r1
    1de6:	c5 01       	movw	r24, r10
    1de8:	0e 94 ff 11 	call	0x23fe	; 0x23fe <init_sensValues>
    1dec:	ce 01       	movw	r24, r28
    1dee:	01 96       	adiw	r24, 0x01	; 1
    1df0:	0e 94 ff 11 	call	0x23fe	; 0x23fe <init_sensValues>
    1df4:	80 91 81 00 	lds	r24, 0x0081
    1df8:	88 23       	and	r24, r24
    1dfa:	31 f0       	breq	.+12     	; 0x1e08 <main+0xc0>
    1dfc:	be 01       	movw	r22, r28
    1dfe:	6f 5f       	subi	r22, 0xFF	; 255
    1e00:	7f 4f       	sbci	r23, 0xFF	; 255
    1e02:	c5 01       	movw	r24, r10
    1e04:	0e 94 41 0a 	call	0x1482	; 0x1482 <handleCanMessage>
    1e08:	80 91 b3 00 	lds	r24, 0x00B3
    1e0c:	88 23       	and	r24, r24
    1e0e:	91 f3       	breq	.-28     	; 0x1df4 <main+0xac>
    1e10:	f5 01       	movw	r30, r10
    1e12:	84 81       	ldd	r24, Z+4	; 0x04
    1e14:	95 81       	ldd	r25, Z+5	; 0x05
    1e16:	81 3f       	cpi	r24, 0xF1	; 241
    1e18:	98 4d       	sbci	r25, 0xD8	; 216
    1e1a:	49 f0       	breq	.+18     	; 0x1e2e <main+0xe6>
    1e1c:	f5 01       	movw	r30, r10
    1e1e:	64 81       	ldd	r22, Z+4	; 0x04
    1e20:	75 81       	ldd	r23, Z+5	; 0x05
    1e22:	c3 01       	movw	r24, r6
    1e24:	0e 94 ce 13 	call	0x279c	; 0x279c <calculate_pid>
    1e28:	90 e0       	ldi	r25, 0x00	; 0
    1e2a:	9b bd       	out	0x2b, r25	; 43
    1e2c:	8a bd       	out	0x2a, r24	; 42
    1e2e:	8d 81       	ldd	r24, Y+5	; 0x05
    1e30:	9e 81       	ldd	r25, Y+6	; 0x06
    1e32:	81 3f       	cpi	r24, 0xF1	; 241
    1e34:	98 4d       	sbci	r25, 0xD8	; 216
    1e36:	41 f0       	breq	.+16     	; 0x1e48 <main+0x100>
    1e38:	6d 81       	ldd	r22, Y+5	; 0x05
    1e3a:	7e 81       	ldd	r23, Y+6	; 0x06
    1e3c:	c2 01       	movw	r24, r4
    1e3e:	0e 94 ce 13 	call	0x279c	; 0x279c <calculate_pid>
    1e42:	90 e0       	ldi	r25, 0x00	; 0
    1e44:	99 bd       	out	0x29, r25	; 41
    1e46:	88 bd       	out	0x28, r24	; 40
    1e48:	f5 01       	movw	r30, r10
    1e4a:	86 81       	ldd	r24, Z+6	; 0x06
    1e4c:	97 81       	ldd	r25, Z+7	; 0x07
    1e4e:	81 3f       	cpi	r24, 0xF1	; 241
    1e50:	98 4d       	sbci	r25, 0xD8	; 216
    1e52:	39 f0       	breq	.+14     	; 0x1e62 <main+0x11a>
    1e54:	f5 01       	movw	r30, r10
    1e56:	66 81       	ldd	r22, Z+6	; 0x06
    1e58:	77 81       	ldd	r23, Z+7	; 0x07
    1e5a:	c1 01       	movw	r24, r2
    1e5c:	0e 94 ce 13 	call	0x279c	; 0x279c <calculate_pid>
    1e60:	83 bd       	out	0x23, r24	; 35
    1e62:	8f ef       	ldi	r24, 0xFF	; 255
    1e64:	80 93 da 00 	sts	0x00DA, r24
    1e68:	0e 94 71 02 	call	0x4e2	; 0x4e2 <PCF8574_write>
    1e6c:	80 91 8f 00 	lds	r24, 0x008F
    1e70:	82 30       	cpi	r24, 0x02	; 2
    1e72:	49 f4       	brne	.+18     	; 0x1e86 <main+0x13e>
    1e74:	81 01       	movw	r16, r2
    1e76:	92 01       	movw	r18, r4
    1e78:	a3 01       	movw	r20, r6
    1e7a:	be 01       	movw	r22, r28
    1e7c:	6f 5f       	subi	r22, 0xFF	; 255
    1e7e:	7f 4f       	sbci	r23, 0xFF	; 255
    1e80:	c5 01       	movw	r24, r10
    1e82:	0e 94 fc 06 	call	0xdf8	; 0xdf8 <receive_command>
    1e86:	c5 52       	subi	r28, 0x25	; 37
    1e88:	df 4f       	sbci	r29, 0xFF	; 255
    1e8a:	88 81       	ld	r24, Y
    1e8c:	99 81       	ldd	r25, Y+1	; 0x01
    1e8e:	cb 5d       	subi	r28, 0xDB	; 219
    1e90:	d0 40       	sbci	r29, 0x00	; 0
    1e92:	c7 52       	subi	r28, 0x27	; 39
    1e94:	df 4f       	sbci	r29, 0xFF	; 255
    1e96:	48 81       	ld	r20, Y
    1e98:	59 81       	ldd	r21, Y+1	; 0x01
    1e9a:	c9 5d       	subi	r28, 0xD9	; 217
    1e9c:	d0 40       	sbci	r29, 0x00	; 0
    1e9e:	ae 96       	adiw	r28, 0x2e	; 46
    1ea0:	2e ad       	ldd	r18, Y+62	; 0x3e
    1ea2:	3f ad       	ldd	r19, Y+63	; 0x3f
    1ea4:	ae 97       	sbiw	r28, 0x2e	; 46
    1ea6:	84 1b       	sub	r24, r20
    1ea8:	95 0b       	sbc	r25, r21
    1eaa:	28 17       	cp	r18, r24
    1eac:	39 07       	cpc	r19, r25
    1eae:	20 f0       	brcs	.+8      	; 0x1eb8 <main+0x170>
    1eb0:	ce 01       	movw	r24, r28
    1eb2:	01 96       	adiw	r24, 0x01	; 1
    1eb4:	0e 94 5e 0b 	call	0x16bc	; 0x16bc <calculate_means>
    1eb8:	c5 01       	movw	r24, r10
    1eba:	0e 94 5e 0b 	call	0x16bc	; 0x16bc <calculate_means>
    1ebe:	ac 96       	adiw	r28, 0x2c	; 44
    1ec0:	8e ad       	ldd	r24, Y+62	; 0x3e
    1ec2:	9f ad       	ldd	r25, Y+63	; 0x3f
    1ec4:	ac 97       	sbiw	r28, 0x2c	; 44
    1ec6:	89 2b       	or	r24, r25
    1ec8:	09 f0       	breq	.+2      	; 0x1ecc <main+0x184>
    1eca:	4d c0       	rjmp	.+154    	; 0x1f66 <main+0x21e>
    1ecc:	c7 52       	subi	r28, 0x27	; 39
    1ece:	df 4f       	sbci	r29, 0xFF	; 255
    1ed0:	88 81       	ld	r24, Y
    1ed2:	99 81       	ldd	r25, Y+1	; 0x01
    1ed4:	c9 5d       	subi	r28, 0xD9	; 217
    1ed6:	d0 40       	sbci	r29, 0x00	; 0
    1ed8:	89 2b       	or	r24, r25
    1eda:	09 f0       	breq	.+2      	; 0x1ede <main+0x196>
    1edc:	44 c0       	rjmp	.+136    	; 0x1f66 <main+0x21e>
    1ede:	80 91 aa 00 	lds	r24, 0x00AA
    1ee2:	81 30       	cpi	r24, 0x01	; 1
    1ee4:	b1 f4       	brne	.+44     	; 0x1f12 <main+0x1ca>
    1ee6:	a4 01       	movw	r20, r8
    1ee8:	be 01       	movw	r22, r28
    1eea:	6f 5f       	subi	r22, 0xFF	; 255
    1eec:	7f 4f       	sbci	r23, 0xFF	; 255
    1eee:	c5 01       	movw	r24, r10
    1ef0:	0e 94 86 02 	call	0x50c	; 0x50c <eprom_write>
    1ef4:	f4 01       	movw	r30, r8
    1ef6:	c0 80       	ld	r12, Z
    1ef8:	d1 80       	ldd	r13, Z+1	; 0x01
    1efa:	e2 80       	ldd	r14, Z+2	; 0x02
    1efc:	f3 80       	ldd	r15, Z+3	; 0x03
    1efe:	f0 e8       	ldi	r31, 0x80	; 128
    1f00:	cf 16       	cp	r12, r31
    1f02:	f9 ef       	ldi	r31, 0xF9	; 249
    1f04:	df 06       	cpc	r13, r31
    1f06:	e1 04       	cpc	r14, r1
    1f08:	f1 04       	cpc	r15, r1
    1f0a:	18 f0       	brcs	.+6      	; 0x1f12 <main+0x1ca>
    1f0c:	82 e0       	ldi	r24, 0x02	; 2
    1f0e:	80 93 aa 00 	sts	0x00AA, r24
    1f12:	c3 52       	subi	r28, 0x23	; 35
    1f14:	df 4f       	sbci	r29, 0xFF	; 255
    1f16:	88 81       	ld	r24, Y
    1f18:	99 81       	ldd	r25, Y+1	; 0x01
    1f1a:	cd 5d       	subi	r28, 0xDD	; 221
    1f1c:	d0 40       	sbci	r29, 0x00	; 0
    1f1e:	c5 52       	subi	r28, 0x25	; 37
    1f20:	df 4f       	sbci	r29, 0xFF	; 255
    1f22:	99 83       	std	Y+1, r25	; 0x01
    1f24:	88 83       	st	Y, r24
    1f26:	cb 5d       	subi	r28, 0xDB	; 219
    1f28:	d0 40       	sbci	r29, 0x00	; 0
    1f2a:	e0 96       	adiw	r28, 0x30	; 48
    1f2c:	8e ad       	ldd	r24, Y+62	; 0x3e
    1f2e:	9f ad       	ldd	r25, Y+63	; 0x3f
    1f30:	e0 97       	sbiw	r28, 0x30	; 48
    1f32:	ae 96       	adiw	r28, 0x2e	; 46
    1f34:	9f af       	std	Y+63, r25	; 0x3f
    1f36:	8e af       	std	Y+62, r24	; 0x3e
    1f38:	ae 97       	sbiw	r28, 0x2e	; 46
    1f3a:	c5 52       	subi	r28, 0x25	; 37
    1f3c:	df 4f       	sbci	r29, 0xFF	; 255
    1f3e:	88 81       	ld	r24, Y
    1f40:	99 81       	ldd	r25, Y+1	; 0x01
    1f42:	cb 5d       	subi	r28, 0xDB	; 219
    1f44:	d0 40       	sbci	r29, 0x00	; 0
    1f46:	c3 52       	subi	r28, 0x23	; 35
    1f48:	df 4f       	sbci	r29, 0xFF	; 255
    1f4a:	99 83       	std	Y+1, r25	; 0x01
    1f4c:	88 83       	st	Y, r24
    1f4e:	cd 5d       	subi	r28, 0xDD	; 221
    1f50:	d0 40       	sbci	r29, 0x00	; 0
    1f52:	ae 96       	adiw	r28, 0x2e	; 46
    1f54:	8e ad       	ldd	r24, Y+62	; 0x3e
    1f56:	9f ad       	ldd	r25, Y+63	; 0x3f
    1f58:	ae 97       	sbiw	r28, 0x2e	; 46
    1f5a:	e0 96       	adiw	r28, 0x30	; 48
    1f5c:	9f af       	std	Y+63, r25	; 0x3f
    1f5e:	8e af       	std	Y+62, r24	; 0x3e
    1f60:	e0 97       	sbiw	r28, 0x30	; 48
    1f62:	10 92 70 00 	sts	0x0070, r1
    1f66:	be 01       	movw	r22, r28
    1f68:	6f 5f       	subi	r22, 0xFF	; 255
    1f6a:	7f 4f       	sbci	r23, 0xFF	; 255
    1f6c:	c5 01       	movw	r24, r10
    1f6e:	0e 94 66 08 	call	0x10cc	; 0x10cc <debug>
    1f72:	80 e1       	ldi	r24, 0x10	; 16
    1f74:	90 e0       	ldi	r25, 0x00	; 0
    1f76:	cf 5a       	subi	r28, 0xAF	; 175
    1f78:	de 4f       	sbci	r29, 0xFE	; 254
    1f7a:	99 83       	std	Y+1, r25	; 0x01
    1f7c:	88 83       	st	Y, r24
    1f7e:	c1 55       	subi	r28, 0x51	; 81
    1f80:	d1 40       	sbci	r29, 0x01	; 1
    1f82:	cd 5a       	subi	r28, 0xAD	; 173
    1f84:	de 4f       	sbci	r29, 0xFE	; 254
    1f86:	18 82       	st	Y, r1
    1f88:	c3 55       	subi	r28, 0x53	; 83
    1f8a:	d1 40       	sbci	r29, 0x01	; 1
    1f8c:	82 e0       	ldi	r24, 0x02	; 2
    1f8e:	cc 5a       	subi	r28, 0xAC	; 172
    1f90:	de 4f       	sbci	r29, 0xFE	; 254
    1f92:	88 83       	st	Y, r24
    1f94:	c4 55       	subi	r28, 0x54	; 84
    1f96:	d1 40       	sbci	r29, 0x01	; 1
    1f98:	81 e0       	ldi	r24, 0x01	; 1
    1f9a:	cb 5a       	subi	r28, 0xAB	; 171
    1f9c:	de 4f       	sbci	r29, 0xFE	; 254
    1f9e:	88 83       	st	Y, r24
    1fa0:	c5 55       	subi	r28, 0x55	; 85
    1fa2:	d1 40       	sbci	r29, 0x01	; 1
    1fa4:	10 e0       	ldi	r17, 0x00	; 0
    1fa6:	01 c0       	rjmp	.+2      	; 0x1faa <main+0x262>
    1fa8:	1f 5f       	subi	r17, 0xFF	; 255
    1faa:	ce 01       	movw	r24, r28
    1fac:	8f 5a       	subi	r24, 0xAF	; 175
    1fae:	9e 4f       	sbci	r25, 0xFE	; 254
    1fb0:	0e 94 77 01 	call	0x2ee	; 0x2ee <can_send_message>
    1fb4:	1a 3f       	cpi	r17, 0xFA	; 250
    1fb6:	10 f4       	brcc	.+4      	; 0x1fbc <main+0x274>
    1fb8:	88 23       	and	r24, r24
    1fba:	b1 f3       	breq	.-20     	; 0x1fa8 <main+0x260>
    1fbc:	80 e2       	ldi	r24, 0x20	; 32
    1fbe:	90 e0       	ldi	r25, 0x00	; 0
    1fc0:	cf 5a       	subi	r28, 0xAF	; 175
    1fc2:	de 4f       	sbci	r29, 0xFE	; 254
    1fc4:	99 83       	std	Y+1, r25	; 0x01
    1fc6:	88 83       	st	Y, r24
    1fc8:	c1 55       	subi	r28, 0x51	; 81
    1fca:	d1 40       	sbci	r29, 0x01	; 1
    1fcc:	10 e0       	ldi	r17, 0x00	; 0
    1fce:	01 c0       	rjmp	.+2      	; 0x1fd2 <main+0x28a>
    1fd0:	1f 5f       	subi	r17, 0xFF	; 255
    1fd2:	ce 01       	movw	r24, r28
    1fd4:	8f 5a       	subi	r24, 0xAF	; 175
    1fd6:	9e 4f       	sbci	r25, 0xFE	; 254
    1fd8:	0e 94 77 01 	call	0x2ee	; 0x2ee <can_send_message>
    1fdc:	1a 3f       	cpi	r17, 0xFA	; 250
    1fde:	10 f4       	brcc	.+4      	; 0x1fe4 <main+0x29c>
    1fe0:	88 23       	and	r24, r24
    1fe2:	b1 f3       	breq	.-20     	; 0x1fd0 <main+0x288>
    1fe4:	c5 01       	movw	r24, r10
    1fe6:	0e 94 c1 12 	call	0x2582	; 0x2582 <zero_sensValues>
    1fea:	ce 01       	movw	r24, r28
    1fec:	01 96       	adiw	r24, 0x01	; 1
    1fee:	0e 94 c1 12 	call	0x2582	; 0x2582 <zero_sensValues>
    1ff2:	10 92 b3 00 	sts	0x00B3, r1
    1ff6:	fe ce       	rjmp	.-516    	; 0x1df4 <main+0xac>

00001ff8 <twi_init>:
    1ff8:	09 98       	cbi	0x01, 1	; 1
    1ffa:	08 9a       	sbi	0x01, 0	; 1
    1ffc:	81 e0       	ldi	r24, 0x01	; 1
    1ffe:	80 b9       	out	0x00, r24	; 0
    2000:	81 b1       	in	r24, 0x01	; 1
    2002:	90 e0       	ldi	r25, 0x00	; 0
    2004:	08 95       	ret

00002006 <i2c_comm>:
    2006:	90 93 ba 00 	sts	0x00BA, r25
    200a:	80 93 b9 00 	sts	0x00B9, r24
    200e:	90 93 ce 00 	sts	0x00CE, r25
    2012:	80 93 cd 00 	sts	0x00CD, r24
    2016:	20 93 d3 00 	sts	0x00D3, r18
    201a:	10 92 d1 00 	sts	0x00D1, r1
    201e:	89 e0       	ldi	r24, 0x09	; 9
    2020:	80 93 d2 00 	sts	0x00D2, r24
    2024:	40 93 d0 00 	sts	0x00D0, r20
    2028:	60 93 cf 00 	sts	0x00CF, r22
    202c:	85 ea       	ldi	r24, 0xA5	; 165
    202e:	86 bf       	out	0x36, r24	; 54
    2030:	10 92 b7 00 	sts	0x00B7, r1
    2034:	10 92 b6 00 	sts	0x00B6, r1
    2038:	23 e0       	ldi	r18, 0x03	; 3
    203a:	08 c0       	rjmp	.+16     	; 0x204c <i2c_comm+0x46>
    203c:	80 91 b6 00 	lds	r24, 0x00B6
    2040:	90 91 b7 00 	lds	r25, 0x00B7
    2044:	44 97       	sbiw	r24, 0x14	; 20
    2046:	14 f0       	brlt	.+4      	; 0x204c <i2c_comm+0x46>
    2048:	20 93 d2 00 	sts	0x00D2, r18
    204c:	80 91 d2 00 	lds	r24, 0x00D2
    2050:	89 30       	cpi	r24, 0x09	; 9
    2052:	a1 f3       	breq	.-24     	; 0x203c <i2c_comm+0x36>
    2054:	80 91 d2 00 	lds	r24, 0x00D2
    2058:	8b eb       	ldi	r24, 0xBB	; 187
    205a:	90 e0       	ldi	r25, 0x00	; 0
    205c:	08 95       	ret

0000205e <__vector_19>:
    205e:	1f 92       	push	r1
    2060:	0f 92       	push	r0
    2062:	0f b6       	in	r0, 0x3f	; 63
    2064:	0f 92       	push	r0
    2066:	11 24       	eor	r1, r1
    2068:	2f 93       	push	r18
    206a:	3f 93       	push	r19
    206c:	8f 93       	push	r24
    206e:	9f 93       	push	r25
    2070:	ef 93       	push	r30
    2072:	ff 93       	push	r31
    2074:	81 b1       	in	r24, 0x01	; 1
    2076:	88 7f       	andi	r24, 0xF8	; 248
    2078:	88 32       	cpi	r24, 0x28	; 40
    207a:	09 f4       	brne	.+2      	; 0x207e <__vector_19+0x20>
    207c:	96 c0       	rjmp	.+300    	; 0x21aa <__vector_19+0x14c>
    207e:	90 f4       	brcc	.+36     	; 0x20a4 <__vector_19+0x46>
    2080:	80 31       	cpi	r24, 0x10	; 16
    2082:	09 f4       	brne	.+2      	; 0x2086 <__vector_19+0x28>
    2084:	4f c0       	rjmp	.+158    	; 0x2124 <__vector_19+0xc6>
    2086:	38 f4       	brcc	.+14     	; 0x2096 <__vector_19+0x38>
    2088:	88 23       	and	r24, r24
    208a:	09 f4       	brne	.+2      	; 0x208e <__vector_19+0x30>
    208c:	00 c1       	rjmp	.+512    	; 0x228e <__vector_19+0x230>
    208e:	88 30       	cpi	r24, 0x08	; 8
    2090:	09 f0       	breq	.+2      	; 0x2094 <__vector_19+0x36>
    2092:	fd c0       	rjmp	.+506    	; 0x228e <__vector_19+0x230>
    2094:	1c c0       	rjmp	.+56     	; 0x20ce <__vector_19+0x70>
    2096:	88 31       	cpi	r24, 0x18	; 24
    2098:	09 f4       	brne	.+2      	; 0x209c <__vector_19+0x3e>
    209a:	71 c0       	rjmp	.+226    	; 0x217e <__vector_19+0x120>
    209c:	80 32       	cpi	r24, 0x20	; 32
    209e:	09 f0       	breq	.+2      	; 0x20a2 <__vector_19+0x44>
    20a0:	f6 c0       	rjmp	.+492    	; 0x228e <__vector_19+0x230>
    20a2:	cb c0       	rjmp	.+406    	; 0x223a <__vector_19+0x1dc>
    20a4:	80 34       	cpi	r24, 0x40	; 64
    20a6:	09 f4       	brne	.+2      	; 0x20aa <__vector_19+0x4c>
    20a8:	c3 c0       	rjmp	.+390    	; 0x2230 <__vector_19+0x1d2>
    20aa:	38 f4       	brcc	.+14     	; 0x20ba <__vector_19+0x5c>
    20ac:	80 33       	cpi	r24, 0x30	; 48
    20ae:	09 f4       	brne	.+2      	; 0x20b2 <__vector_19+0x54>
    20b0:	c4 c0       	rjmp	.+392    	; 0x223a <__vector_19+0x1dc>
    20b2:	88 33       	cpi	r24, 0x38	; 56
    20b4:	09 f0       	breq	.+2      	; 0x20b8 <__vector_19+0x5a>
    20b6:	eb c0       	rjmp	.+470    	; 0x228e <__vector_19+0x230>
    20b8:	b9 c0       	rjmp	.+370    	; 0x222c <__vector_19+0x1ce>
    20ba:	80 35       	cpi	r24, 0x50	; 80
    20bc:	09 f4       	brne	.+2      	; 0x20c0 <__vector_19+0x62>
    20be:	c1 c0       	rjmp	.+386    	; 0x2242 <__vector_19+0x1e4>
    20c0:	88 35       	cpi	r24, 0x58	; 88
    20c2:	09 f4       	brne	.+2      	; 0x20c6 <__vector_19+0x68>
    20c4:	d8 c0       	rjmp	.+432    	; 0x2276 <__vector_19+0x218>
    20c6:	88 34       	cpi	r24, 0x48	; 72
    20c8:	09 f0       	breq	.+2      	; 0x20cc <__vector_19+0x6e>
    20ca:	e1 c0       	rjmp	.+450    	; 0x228e <__vector_19+0x230>
    20cc:	b6 c0       	rjmp	.+364    	; 0x223a <__vector_19+0x1dc>
    20ce:	90 91 d1 00 	lds	r25, 0x00D1
    20d2:	80 91 cf 00 	lds	r24, 0x00CF
    20d6:	98 13       	cpse	r25, r24
    20d8:	04 c0       	rjmp	.+8      	; 0x20e2 <__vector_19+0x84>
    20da:	80 91 d0 00 	lds	r24, 0x00D0
    20de:	81 11       	cpse	r24, r1
    20e0:	2b c0       	rjmp	.+86     	; 0x2138 <__vector_19+0xda>
    20e2:	10 92 d1 00 	sts	0x00D1, r1
    20e6:	80 91 cd 00 	lds	r24, 0x00CD
    20ea:	90 91 ce 00 	lds	r25, 0x00CE
    20ee:	90 93 ba 00 	sts	0x00BA, r25
    20f2:	80 93 b9 00 	sts	0x00B9, r24
    20f6:	e0 91 b9 00 	lds	r30, 0x00B9
    20fa:	f0 91 ba 00 	lds	r31, 0x00BA
    20fe:	80 81       	ld	r24, Z
    2100:	83 b9       	out	0x03, r24	; 3
    2102:	85 e8       	ldi	r24, 0x85	; 133
    2104:	86 bf       	out	0x36, r24	; 54
    2106:	80 91 b9 00 	lds	r24, 0x00B9
    210a:	90 91 ba 00 	lds	r25, 0x00BA
    210e:	01 96       	adiw	r24, 0x01	; 1
    2110:	90 93 ba 00 	sts	0x00BA, r25
    2114:	80 93 b9 00 	sts	0x00B9, r24
    2118:	80 91 d1 00 	lds	r24, 0x00D1
    211c:	8f 5f       	subi	r24, 0xFF	; 255
    211e:	80 93 d1 00 	sts	0x00D1, r24
    2122:	ba c0       	rjmp	.+372    	; 0x2298 <__vector_19+0x23a>
    2124:	90 91 d1 00 	lds	r25, 0x00D1
    2128:	80 91 cf 00 	lds	r24, 0x00CF
    212c:	98 13       	cpse	r25, r24
    212e:	16 c0       	rjmp	.+44     	; 0x215c <__vector_19+0xfe>
    2130:	80 91 d0 00 	lds	r24, 0x00D0
    2134:	88 23       	and	r24, r24
    2136:	91 f0       	breq	.+36     	; 0x215c <__vector_19+0xfe>
    2138:	80 91 cd 00 	lds	r24, 0x00CD
    213c:	90 91 ce 00 	lds	r25, 0x00CE
    2140:	90 93 ba 00 	sts	0x00BA, r25
    2144:	80 93 b9 00 	sts	0x00B9, r24
    2148:	e0 91 b9 00 	lds	r30, 0x00B9
    214c:	f0 91 ba 00 	lds	r31, 0x00BA
    2150:	80 81       	ld	r24, Z
    2152:	81 60       	ori	r24, 0x01	; 1
    2154:	80 83       	st	Z, r24
    2156:	10 92 d1 00 	sts	0x00D1, r1
    215a:	0a c0       	rjmp	.+20     	; 0x2170 <__vector_19+0x112>
    215c:	10 92 d1 00 	sts	0x00D1, r1
    2160:	80 91 cd 00 	lds	r24, 0x00CD
    2164:	90 91 ce 00 	lds	r25, 0x00CE
    2168:	90 93 ba 00 	sts	0x00BA, r25
    216c:	80 93 b9 00 	sts	0x00B9, r24
    2170:	e0 91 b9 00 	lds	r30, 0x00B9
    2174:	f0 91 ba 00 	lds	r31, 0x00BA
    2178:	80 81       	ld	r24, Z
    217a:	83 b9       	out	0x03, r24	; 3
    217c:	77 c0       	rjmp	.+238    	; 0x226c <__vector_19+0x20e>
    217e:	90 91 d1 00 	lds	r25, 0x00D1
    2182:	80 91 cf 00 	lds	r24, 0x00CF
    2186:	98 13       	cpse	r25, r24
    2188:	05 c0       	rjmp	.+10     	; 0x2194 <__vector_19+0x136>
    218a:	80 91 d0 00 	lds	r24, 0x00D0
    218e:	81 11       	cpse	r24, r1
    2190:	01 c0       	rjmp	.+2      	; 0x2194 <__vector_19+0x136>
    2192:	78 c0       	rjmp	.+240    	; 0x2284 <__vector_19+0x226>
    2194:	90 91 d1 00 	lds	r25, 0x00D1
    2198:	80 91 cf 00 	lds	r24, 0x00CF
    219c:	98 13       	cpse	r25, r24
    219e:	31 c0       	rjmp	.+98     	; 0x2202 <__vector_19+0x1a4>
    21a0:	80 91 d0 00 	lds	r24, 0x00D0
    21a4:	88 23       	and	r24, r24
    21a6:	69 f1       	breq	.+90     	; 0x2202 <__vector_19+0x1a4>
    21a8:	1a c0       	rjmp	.+52     	; 0x21de <__vector_19+0x180>
    21aa:	90 91 d1 00 	lds	r25, 0x00D1
    21ae:	80 91 cf 00 	lds	r24, 0x00CF
    21b2:	98 13       	cpse	r25, r24
    21b4:	06 c0       	rjmp	.+12     	; 0x21c2 <__vector_19+0x164>
    21b6:	80 91 d0 00 	lds	r24, 0x00D0
    21ba:	81 11       	cpse	r24, r1
    21bc:	02 c0       	rjmp	.+4      	; 0x21c2 <__vector_19+0x164>
    21be:	84 e9       	ldi	r24, 0x94	; 148
    21c0:	62 c0       	rjmp	.+196    	; 0x2286 <__vector_19+0x228>
    21c2:	90 91 d1 00 	lds	r25, 0x00D1
    21c6:	80 91 cf 00 	lds	r24, 0x00CF
    21ca:	98 13       	cpse	r25, r24
    21cc:	0a c0       	rjmp	.+20     	; 0x21e2 <__vector_19+0x184>
    21ce:	80 91 d0 00 	lds	r24, 0x00D0
    21d2:	88 23       	and	r24, r24
    21d4:	31 f0       	breq	.+12     	; 0x21e2 <__vector_19+0x184>
    21d6:	80 91 d3 00 	lds	r24, 0x00D3
    21da:	81 11       	cpse	r24, r1
    21dc:	02 c0       	rjmp	.+4      	; 0x21e2 <__vector_19+0x184>
    21de:	85 eb       	ldi	r24, 0xB5	; 181
    21e0:	48 c0       	rjmp	.+144    	; 0x2272 <__vector_19+0x214>
    21e2:	90 91 d1 00 	lds	r25, 0x00D1
    21e6:	80 91 cf 00 	lds	r24, 0x00CF
    21ea:	98 13       	cpse	r25, r24
    21ec:	0a c0       	rjmp	.+20     	; 0x2202 <__vector_19+0x1a4>
    21ee:	80 91 d0 00 	lds	r24, 0x00D0
    21f2:	88 23       	and	r24, r24
    21f4:	31 f0       	breq	.+12     	; 0x2202 <__vector_19+0x1a4>
    21f6:	80 91 d3 00 	lds	r24, 0x00D3
    21fa:	88 23       	and	r24, r24
    21fc:	11 f0       	breq	.+4      	; 0x2202 <__vector_19+0x1a4>
    21fe:	85 ea       	ldi	r24, 0xA5	; 165
    2200:	38 c0       	rjmp	.+112    	; 0x2272 <__vector_19+0x214>
    2202:	e0 91 b9 00 	lds	r30, 0x00B9
    2206:	f0 91 ba 00 	lds	r31, 0x00BA
    220a:	80 81       	ld	r24, Z
    220c:	83 b9       	out	0x03, r24	; 3
    220e:	80 91 b9 00 	lds	r24, 0x00B9
    2212:	90 91 ba 00 	lds	r25, 0x00BA
    2216:	01 96       	adiw	r24, 0x01	; 1
    2218:	90 93 ba 00 	sts	0x00BA, r25
    221c:	80 93 b9 00 	sts	0x00B9, r24
    2220:	80 91 d1 00 	lds	r24, 0x00D1
    2224:	8f 5f       	subi	r24, 0xFF	; 255
    2226:	80 93 d1 00 	sts	0x00D1, r24
    222a:	20 c0       	rjmp	.+64     	; 0x226c <__vector_19+0x20e>
    222c:	80 e8       	ldi	r24, 0x80	; 128
    222e:	21 c0       	rjmp	.+66     	; 0x2272 <__vector_19+0x214>
    2230:	80 91 d0 00 	lds	r24, 0x00D0
    2234:	81 30       	cpi	r24, 0x01	; 1
    2236:	e1 f4       	brne	.+56     	; 0x2270 <__vector_19+0x212>
    2238:	19 c0       	rjmp	.+50     	; 0x226c <__vector_19+0x20e>
    223a:	80 e9       	ldi	r24, 0x90	; 144
    223c:	86 bf       	out	0x36, r24	; 54
    223e:	82 e0       	ldi	r24, 0x02	; 2
    2240:	29 c0       	rjmp	.+82     	; 0x2294 <__vector_19+0x236>
    2242:	80 91 d1 00 	lds	r24, 0x00D1
    2246:	e8 2f       	mov	r30, r24
    2248:	f0 e0       	ldi	r31, 0x00	; 0
    224a:	93 b1       	in	r25, 0x03	; 3
    224c:	e7 54       	subi	r30, 0x47	; 71
    224e:	ff 4f       	sbci	r31, 0xFF	; 255
    2250:	92 83       	std	Z+2, r25	; 0x02
    2252:	8f 5f       	subi	r24, 0xFF	; 255
    2254:	80 93 d1 00 	sts	0x00D1, r24
    2258:	20 91 d1 00 	lds	r18, 0x00D1
    225c:	80 91 d0 00 	lds	r24, 0x00D0
    2260:	30 e0       	ldi	r19, 0x00	; 0
    2262:	90 e0       	ldi	r25, 0x00	; 0
    2264:	01 97       	sbiw	r24, 0x01	; 1
    2266:	28 17       	cp	r18, r24
    2268:	39 07       	cpc	r19, r25
    226a:	11 f4       	brne	.+4      	; 0x2270 <__vector_19+0x212>
    226c:	85 e8       	ldi	r24, 0x85	; 133
    226e:	01 c0       	rjmp	.+2      	; 0x2272 <__vector_19+0x214>
    2270:	85 ec       	ldi	r24, 0xC5	; 197
    2272:	86 bf       	out	0x36, r24	; 54
    2274:	11 c0       	rjmp	.+34     	; 0x2298 <__vector_19+0x23a>
    2276:	e0 91 d1 00 	lds	r30, 0x00D1
    227a:	f0 e0       	ldi	r31, 0x00	; 0
    227c:	83 b1       	in	r24, 0x03	; 3
    227e:	e7 54       	subi	r30, 0x47	; 71
    2280:	ff 4f       	sbci	r31, 0xFF	; 255
    2282:	82 83       	std	Z+2, r24	; 0x02
    2284:	80 e9       	ldi	r24, 0x90	; 144
    2286:	86 bf       	out	0x36, r24	; 54
    2288:	10 92 d2 00 	sts	0x00D2, r1
    228c:	05 c0       	rjmp	.+10     	; 0x2298 <__vector_19+0x23a>
    228e:	80 e9       	ldi	r24, 0x90	; 144
    2290:	86 bf       	out	0x36, r24	; 54
    2292:	81 e0       	ldi	r24, 0x01	; 1
    2294:	80 93 d2 00 	sts	0x00D2, r24
    2298:	ff 91       	pop	r31
    229a:	ef 91       	pop	r30
    229c:	9f 91       	pop	r25
    229e:	8f 91       	pop	r24
    22a0:	3f 91       	pop	r19
    22a2:	2f 91       	pop	r18
    22a4:	0f 90       	pop	r0
    22a6:	0f be       	out	0x3f, r0	; 63
    22a8:	0f 90       	pop	r0
    22aa:	1f 90       	pop	r1
    22ac:	18 95       	reti

000022ae <init>:
    22ae:	83 b7       	in	r24, 0x33	; 51
    22b0:	88 60       	ori	r24, 0x08	; 8
    22b2:	83 bf       	out	0x33, r24	; 51
    22b4:	83 b7       	in	r24, 0x33	; 51
    22b6:	83 60       	ori	r24, 0x03	; 3
    22b8:	83 bf       	out	0x33, r24	; 51
    22ba:	89 b7       	in	r24, 0x39	; 57
    22bc:	82 60       	ori	r24, 0x02	; 2
    22be:	89 bf       	out	0x39, r24	; 57
    22c0:	8d e7       	ldi	r24, 0x7D	; 125
    22c2:	8c bf       	out	0x3c, r24	; 60
    22c4:	8f b5       	in	r24, 0x2f	; 47
    22c6:	81 6a       	ori	r24, 0xA1	; 161
    22c8:	8f bd       	out	0x2f, r24	; 47
    22ca:	8e b5       	in	r24, 0x2e	; 46
    22cc:	85 60       	ori	r24, 0x05	; 5
    22ce:	8e bd       	out	0x2e, r24	; 46
    22d0:	1b bc       	out	0x2b, r1	; 43
    22d2:	1a bc       	out	0x2a, r1	; 42
    22d4:	19 bc       	out	0x29, r1	; 41
    22d6:	18 bc       	out	0x28, r1	; 40
    22d8:	85 b5       	in	r24, 0x25	; 37
    22da:	82 66       	ori	r24, 0x62	; 98
    22dc:	85 bd       	out	0x25, r24	; 37
    22de:	13 bc       	out	0x23, r1	; 35
    22e0:	ba 98       	cbi	0x17, 2	; 23
    22e2:	8b b7       	in	r24, 0x3b	; 59
    22e4:	80 62       	ori	r24, 0x20	; 32
    22e6:	8b bf       	out	0x3b, r24	; 59
    22e8:	84 b7       	in	r24, 0x34	; 52
    22ea:	8f 7b       	andi	r24, 0xBF	; 191
    22ec:	84 bf       	out	0x34, r24	; 52
    22ee:	8a 98       	cbi	0x11, 2	; 17
    22f0:	82 b3       	in	r24, 0x12	; 18
    22f2:	8c 60       	ori	r24, 0x0C	; 12
    22f4:	82 bb       	out	0x12, r24	; 18
    22f6:	85 b7       	in	r24, 0x35	; 53
    22f8:	8f 60       	ori	r24, 0x0F	; 15
    22fa:	85 bf       	out	0x35, r24	; 53
    22fc:	8b b7       	in	r24, 0x3b	; 59
    22fe:	80 6c       	ori	r24, 0xC0	; 192
    2300:	8b bf       	out	0x3b, r24	; 59
    2302:	81 b3       	in	r24, 0x11	; 17
    2304:	80 6f       	ori	r24, 0xF0	; 240
    2306:	81 bb       	out	0x11, r24	; 17
    2308:	84 b3       	in	r24, 0x14	; 20
    230a:	84 6f       	ori	r24, 0xF4	; 244
    230c:	84 bb       	out	0x14, r24	; 20
    230e:	82 b3       	in	r24, 0x12	; 18
    2310:	8f 70       	andi	r24, 0x0F	; 15
    2312:	82 bb       	out	0x12, r24	; 18
    2314:	85 b3       	in	r24, 0x15	; 21
    2316:	8f 70       	andi	r24, 0x0F	; 15
    2318:	85 bb       	out	0x15, r24	; 21
    231a:	97 9a       	sbi	0x12, 7	; 18
    231c:	aa 9a       	sbi	0x15, 2	; 21
    231e:	3e 9a       	sbi	0x07, 6	; 7
    2320:	3f 98       	cbi	0x07, 7	; 7
    2322:	86 b1       	in	r24, 0x06	; 6
    2324:	87 60       	ori	r24, 0x07	; 7
    2326:	86 b9       	out	0x06, r24	; 6
    2328:	10 92 82 00 	sts	0x0082, r1
    232c:	78 94       	sei
    232e:	83 e3       	ldi	r24, 0x33	; 51
    2330:	90 e0       	ldi	r25, 0x00	; 0
    2332:	0e 94 e3 14 	call	0x29c6	; 0x29c6 <uart_init>
    2336:	0e 94 fc 0f 	call	0x1ff8	; 0x1ff8 <twi_init>
    233a:	0e 94 cf 14 	call	0x299e	; 0x299e <spi_init>
    233e:	81 e0       	ldi	r24, 0x01	; 1
    2340:	90 e0       	ldi	r25, 0x00	; 0
    2342:	0e 94 c2 13 	call	0x2784	; 0x2784 <delay>
    2346:	60 e0       	ldi	r22, 0x00	; 0
    2348:	70 e0       	ldi	r23, 0x00	; 0
    234a:	80 e0       	ldi	r24, 0x00	; 0
    234c:	90 e0       	ldi	r25, 0x00	; 0
    234e:	0e 94 c4 00 	call	0x188	; 0x188 <mcp2515_init>
    2352:	10 92 74 00 	sts	0x0074, r1
    2356:	10 92 73 00 	sts	0x0073, r1
    235a:	10 92 b0 00 	sts	0x00B0, r1
    235e:	10 92 af 00 	sts	0x00AF, r1
    2362:	10 92 b2 00 	sts	0x00B2, r1
    2366:	10 92 b1 00 	sts	0x00B1, r1
    236a:	10 92 ac 00 	sts	0x00AC, r1
    236e:	10 92 ab 00 	sts	0x00AB, r1
    2372:	10 92 a6 00 	sts	0x00A6, r1
    2376:	10 92 a5 00 	sts	0x00A5, r1
    237a:	10 92 76 00 	sts	0x0076, r1
    237e:	10 92 75 00 	sts	0x0075, r1
    2382:	10 92 dc 00 	sts	0x00DC, r1
    2386:	10 92 db 00 	sts	0x00DB, r1
    238a:	10 92 b5 00 	sts	0x00B5, r1
    238e:	10 92 b4 00 	sts	0x00B4, r1
    2392:	10 92 ae 00 	sts	0x00AE, r1
    2396:	10 92 ad 00 	sts	0x00AD, r1
    239a:	10 92 df 00 	sts	0x00DF, r1
    239e:	10 92 de 00 	sts	0x00DE, r1
    23a2:	10 92 72 00 	sts	0x0072, r1
    23a6:	10 92 71 00 	sts	0x0071, r1
    23aa:	10 92 da 00 	sts	0x00DA, r1
    23ae:	10 92 d7 00 	sts	0x00D7, r1
    23b2:	10 92 81 00 	sts	0x0081, r1
    23b6:	10 92 70 00 	sts	0x0070, r1
    23ba:	10 92 a8 00 	sts	0x00A8, r1
    23be:	10 92 b8 00 	sts	0x00B8, r1
    23c2:	81 e0       	ldi	r24, 0x01	; 1
    23c4:	80 93 b3 00 	sts	0x00B3, r24
    23c8:	10 92 aa 00 	sts	0x00AA, r1
    23cc:	10 92 a9 00 	sts	0x00A9, r1
    23d0:	10 92 78 00 	sts	0x0078, r1
    23d4:	81 e0       	ldi	r24, 0x01	; 1
    23d6:	90 e0       	ldi	r25, 0x00	; 0
    23d8:	a0 e0       	ldi	r26, 0x00	; 0
    23da:	b0 e0       	ldi	r27, 0x00	; 0
    23dc:	80 93 79 00 	sts	0x0079, r24
    23e0:	90 93 7a 00 	sts	0x007A, r25
    23e4:	a0 93 7b 00 	sts	0x007B, r26
    23e8:	b0 93 7c 00 	sts	0x007C, r27
    23ec:	10 92 7d 00 	sts	0x007D, r1
    23f0:	10 92 7e 00 	sts	0x007E, r1
    23f4:	10 92 7f 00 	sts	0x007F, r1
    23f8:	10 92 80 00 	sts	0x0080, r1
    23fc:	08 95       	ret

000023fe <init_sensValues>:
    23fe:	fc 01       	movw	r30, r24
    2400:	81 ef       	ldi	r24, 0xF1	; 241
    2402:	98 ed       	ldi	r25, 0xD8	; 216
    2404:	95 87       	std	Z+13, r25	; 0x0d
    2406:	84 87       	std	Z+12, r24	; 0x0c
    2408:	93 83       	std	Z+3, r25	; 0x03
    240a:	82 83       	std	Z+2, r24	; 0x02
    240c:	97 83       	std	Z+7, r25	; 0x07
    240e:	86 83       	std	Z+6, r24	; 0x06
    2410:	95 83       	std	Z+5, r25	; 0x05
    2412:	84 83       	std	Z+4, r24	; 0x04
    2414:	16 86       	std	Z+14, r1	; 0x0e
    2416:	11 82       	std	Z+1, r1	; 0x01
    2418:	10 82       	st	Z, r1
    241a:	41 ef       	ldi	r20, 0xF1	; 241
    241c:	58 ed       	ldi	r21, 0xD8	; 216
    241e:	6f ef       	ldi	r22, 0xFF	; 255
    2420:	7f ef       	ldi	r23, 0xFF	; 255
    2422:	40 87       	std	Z+8, r20	; 0x08
    2424:	51 87       	std	Z+9, r21	; 0x09
    2426:	62 87       	std	Z+10, r22	; 0x0a
    2428:	73 87       	std	Z+11, r23	; 0x0b
    242a:	90 8b       	std	Z+16, r25	; 0x10
    242c:	87 87       	std	Z+15, r24	; 0x0f
    242e:	92 8b       	std	Z+18, r25	; 0x12
    2430:	81 8b       	std	Z+17, r24	; 0x11
    2432:	94 8b       	std	Z+20, r25	; 0x14
    2434:	83 8b       	std	Z+19, r24	; 0x13
    2436:	96 8b       	std	Z+22, r25	; 0x16
    2438:	85 8b       	std	Z+21, r24	; 0x15
    243a:	90 8f       	std	Z+24, r25	; 0x18
    243c:	87 8b       	std	Z+23, r24	; 0x17
    243e:	92 8f       	std	Z+26, r25	; 0x1a
    2440:	81 8f       	std	Z+25, r24	; 0x19
    2442:	94 8f       	std	Z+28, r25	; 0x1c
    2444:	83 8f       	std	Z+27, r24	; 0x1b
    2446:	96 8f       	std	Z+30, r25	; 0x1e
    2448:	85 8f       	std	Z+29, r24	; 0x1d
    244a:	47 8f       	std	Z+31, r20	; 0x1f
    244c:	50 a3       	std	Z+32, r21	; 0x20
    244e:	61 a3       	std	Z+33, r22	; 0x21
    2450:	72 a3       	std	Z+34, r23	; 0x22
    2452:	94 a3       	std	Z+36, r25	; 0x24
    2454:	83 a3       	std	Z+35, r24	; 0x23
    2456:	96 a3       	std	Z+38, r25	; 0x26
    2458:	85 a3       	std	Z+37, r24	; 0x25
    245a:	90 a7       	std	Z+40, r25	; 0x28
    245c:	87 a3       	std	Z+39, r24	; 0x27
    245e:	92 a7       	std	Z+42, r25	; 0x2a
    2460:	81 a7       	std	Z+41, r24	; 0x29
    2462:	94 a7       	std	Z+44, r25	; 0x2c
    2464:	83 a7       	std	Z+43, r24	; 0x2b
    2466:	15 a6       	std	Z+45, r1	; 0x2d
    2468:	16 a6       	std	Z+46, r1	; 0x2e
    246a:	17 a6       	std	Z+47, r1	; 0x2f
    246c:	10 aa       	std	Z+48, r1	; 0x30
    246e:	11 aa       	std	Z+49, r1	; 0x31
    2470:	12 aa       	std	Z+50, r1	; 0x32
    2472:	13 aa       	std	Z+51, r1	; 0x33
    2474:	14 aa       	std	Z+52, r1	; 0x34
    2476:	15 aa       	std	Z+53, r1	; 0x35
    2478:	16 aa       	std	Z+54, r1	; 0x36
    247a:	17 aa       	std	Z+55, r1	; 0x37
    247c:	10 ae       	std	Z+56, r1	; 0x38
    247e:	11 ae       	std	Z+57, r1	; 0x39
    2480:	12 ae       	std	Z+58, r1	; 0x3a
    2482:	13 ae       	std	Z+59, r1	; 0x3b
    2484:	14 ae       	std	Z+60, r1	; 0x3c
    2486:	df 01       	movw	r26, r30
    2488:	dd 96       	adiw	r26, 0x3d	; 61
    248a:	1d 92       	st	X+, r1
    248c:	1d 92       	st	X+, r1
    248e:	1d 92       	st	X+, r1
    2490:	1c 92       	st	X, r1
    2492:	13 97       	sbiw	r26, 0x03	; 3
    2494:	df 01       	movw	r26, r30
    2496:	af 5b       	subi	r26, 0xBF	; 191
    2498:	bf 4f       	sbci	r27, 0xFF	; 255
    249a:	1d 92       	st	X+, r1
    249c:	1d 92       	st	X+, r1
    249e:	1d 92       	st	X+, r1
    24a0:	1c 92       	st	X, r1
    24a2:	13 97       	sbiw	r26, 0x03	; 3
    24a4:	df 01       	movw	r26, r30
    24a6:	ab 5b       	subi	r26, 0xBB	; 187
    24a8:	bf 4f       	sbci	r27, 0xFF	; 255
    24aa:	1d 92       	st	X+, r1
    24ac:	1d 92       	st	X+, r1
    24ae:	1d 92       	st	X+, r1
    24b0:	1c 92       	st	X, r1
    24b2:	13 97       	sbiw	r26, 0x03	; 3
    24b4:	df 01       	movw	r26, r30
    24b6:	a7 5b       	subi	r26, 0xB7	; 183
    24b8:	bf 4f       	sbci	r27, 0xFF	; 255
    24ba:	1d 92       	st	X+, r1
    24bc:	1d 92       	st	X+, r1
    24be:	1d 92       	st	X+, r1
    24c0:	1c 92       	st	X, r1
    24c2:	13 97       	sbiw	r26, 0x03	; 3
    24c4:	df 01       	movw	r26, r30
    24c6:	a3 5b       	subi	r26, 0xB3	; 179
    24c8:	bf 4f       	sbci	r27, 0xFF	; 255
    24ca:	1d 92       	st	X+, r1
    24cc:	1d 92       	st	X+, r1
    24ce:	1d 92       	st	X+, r1
    24d0:	1c 92       	st	X, r1
    24d2:	13 97       	sbiw	r26, 0x03	; 3
    24d4:	df 01       	movw	r26, r30
    24d6:	af 5a       	subi	r26, 0xAF	; 175
    24d8:	bf 4f       	sbci	r27, 0xFF	; 255
    24da:	1d 92       	st	X+, r1
    24dc:	1d 92       	st	X+, r1
    24de:	1d 92       	st	X+, r1
    24e0:	1c 92       	st	X, r1
    24e2:	13 97       	sbiw	r26, 0x03	; 3
    24e4:	df 01       	movw	r26, r30
    24e6:	ab 5a       	subi	r26, 0xAB	; 171
    24e8:	bf 4f       	sbci	r27, 0xFF	; 255
    24ea:	11 96       	adiw	r26, 0x01	; 1
    24ec:	1c 92       	st	X, r1
    24ee:	1e 92       	st	-X, r1
    24f0:	df 01       	movw	r26, r30
    24f2:	a9 5a       	subi	r26, 0xA9	; 169
    24f4:	bf 4f       	sbci	r27, 0xFF	; 255
    24f6:	11 96       	adiw	r26, 0x01	; 1
    24f8:	1c 92       	st	X, r1
    24fa:	1e 92       	st	-X, r1
    24fc:	df 01       	movw	r26, r30
    24fe:	a7 5a       	subi	r26, 0xA7	; 167
    2500:	bf 4f       	sbci	r27, 0xFF	; 255
    2502:	11 96       	adiw	r26, 0x01	; 1
    2504:	1c 92       	st	X, r1
    2506:	1e 92       	st	-X, r1
    2508:	df 01       	movw	r26, r30
    250a:	a5 5a       	subi	r26, 0xA5	; 165
    250c:	bf 4f       	sbci	r27, 0xFF	; 255
    250e:	11 96       	adiw	r26, 0x01	; 1
    2510:	1c 92       	st	X, r1
    2512:	1e 92       	st	-X, r1
    2514:	df 01       	movw	r26, r30
    2516:	a3 5a       	subi	r26, 0xA3	; 163
    2518:	bf 4f       	sbci	r27, 0xFF	; 255
    251a:	11 96       	adiw	r26, 0x01	; 1
    251c:	1c 92       	st	X, r1
    251e:	1e 92       	st	-X, r1
    2520:	df 01       	movw	r26, r30
    2522:	a1 5a       	subi	r26, 0xA1	; 161
    2524:	bf 4f       	sbci	r27, 0xFF	; 255
    2526:	11 96       	adiw	r26, 0x01	; 1
    2528:	1c 92       	st	X, r1
    252a:	1e 92       	st	-X, r1
    252c:	df 01       	movw	r26, r30
    252e:	af 59       	subi	r26, 0x9F	; 159
    2530:	bf 4f       	sbci	r27, 0xFF	; 255
    2532:	11 96       	adiw	r26, 0x01	; 1
    2534:	1c 92       	st	X, r1
    2536:	1e 92       	st	-X, r1
    2538:	df 01       	movw	r26, r30
    253a:	ad 59       	subi	r26, 0x9D	; 157
    253c:	bf 4f       	sbci	r27, 0xFF	; 255
    253e:	11 96       	adiw	r26, 0x01	; 1
    2540:	1c 92       	st	X, r1
    2542:	1e 92       	st	-X, r1
    2544:	df 01       	movw	r26, r30
    2546:	ab 59       	subi	r26, 0x9B	; 155
    2548:	bf 4f       	sbci	r27, 0xFF	; 255
    254a:	11 96       	adiw	r26, 0x01	; 1
    254c:	1c 92       	st	X, r1
    254e:	1e 92       	st	-X, r1
    2550:	df 01       	movw	r26, r30
    2552:	a9 59       	subi	r26, 0x99	; 153
    2554:	bf 4f       	sbci	r27, 0xFF	; 255
    2556:	11 96       	adiw	r26, 0x01	; 1
    2558:	1c 92       	st	X, r1
    255a:	1e 92       	st	-X, r1
    255c:	df 01       	movw	r26, r30
    255e:	a7 59       	subi	r26, 0x97	; 151
    2560:	bf 4f       	sbci	r27, 0xFF	; 255
    2562:	11 96       	adiw	r26, 0x01	; 1
    2564:	1c 92       	st	X, r1
    2566:	1e 92       	st	-X, r1
    2568:	df 01       	movw	r26, r30
    256a:	a5 59       	subi	r26, 0x95	; 149
    256c:	bf 4f       	sbci	r27, 0xFF	; 255
    256e:	8a e0       	ldi	r24, 0x0A	; 10
    2570:	90 e0       	ldi	r25, 0x00	; 0
    2572:	11 96       	adiw	r26, 0x01	; 1
    2574:	9c 93       	st	X, r25
    2576:	8e 93       	st	-X, r24
    2578:	e3 59       	subi	r30, 0x93	; 147
    257a:	ff 4f       	sbci	r31, 0xFF	; 255
    257c:	91 83       	std	Z+1, r25	; 0x01
    257e:	80 83       	st	Z, r24
    2580:	08 95       	ret

00002582 <zero_sensValues>:
    2582:	fc 01       	movw	r30, r24
    2584:	15 86       	std	Z+13, r1	; 0x0d
    2586:	14 86       	std	Z+12, r1	; 0x0c
    2588:	13 82       	std	Z+3, r1	; 0x03
    258a:	12 82       	std	Z+2, r1	; 0x02
    258c:	17 82       	std	Z+7, r1	; 0x07
    258e:	16 82       	std	Z+6, r1	; 0x06
    2590:	15 82       	std	Z+5, r1	; 0x05
    2592:	14 82       	std	Z+4, r1	; 0x04
    2594:	16 86       	std	Z+14, r1	; 0x0e
    2596:	11 82       	std	Z+1, r1	; 0x01
    2598:	10 82       	st	Z, r1
    259a:	10 86       	std	Z+8, r1	; 0x08
    259c:	11 86       	std	Z+9, r1	; 0x09
    259e:	12 86       	std	Z+10, r1	; 0x0a
    25a0:	13 86       	std	Z+11, r1	; 0x0b
    25a2:	10 8a       	std	Z+16, r1	; 0x10
    25a4:	17 86       	std	Z+15, r1	; 0x0f
    25a6:	12 8a       	std	Z+18, r1	; 0x12
    25a8:	11 8a       	std	Z+17, r1	; 0x11
    25aa:	14 8a       	std	Z+20, r1	; 0x14
    25ac:	13 8a       	std	Z+19, r1	; 0x13
    25ae:	16 8a       	std	Z+22, r1	; 0x16
    25b0:	15 8a       	std	Z+21, r1	; 0x15
    25b2:	08 95       	ret

000025b4 <init_PID_values>:
    25b4:	cf 92       	push	r12
    25b6:	df 92       	push	r13
    25b8:	ef 92       	push	r14
    25ba:	0f 93       	push	r16
    25bc:	1f 93       	push	r17
    25be:	fc 01       	movw	r30, r24
    25c0:	34 2f       	mov	r19, r20
    25c2:	42 2f       	mov	r20, r18
    25c4:	10 82       	st	Z, r1
    25c6:	11 82       	std	Z+1, r1	; 0x01
    25c8:	12 82       	std	Z+2, r1	; 0x02
    25ca:	13 82       	std	Z+3, r1	; 0x03
    25cc:	14 82       	std	Z+4, r1	; 0x04
    25ce:	15 82       	std	Z+5, r1	; 0x05
    25d0:	16 82       	std	Z+6, r1	; 0x06
    25d2:	17 82       	std	Z+7, r1	; 0x07
    25d4:	10 86       	std	Z+8, r1	; 0x08
    25d6:	11 86       	std	Z+9, r1	; 0x09
    25d8:	12 86       	std	Z+10, r1	; 0x0a
    25da:	13 86       	std	Z+11, r1	; 0x0b
    25dc:	11 8a       	std	Z+17, r1	; 0x11
    25de:	12 8a       	std	Z+18, r1	; 0x12
    25e0:	13 8a       	std	Z+19, r1	; 0x13
    25e2:	14 8a       	std	Z+20, r1	; 0x14
    25e4:	91 e0       	ldi	r25, 0x01	; 1
    25e6:	94 87       	std	Z+12, r25	; 0x0c
    25e8:	16 8b       	std	Z+22, r17	; 0x16
    25ea:	05 8b       	std	Z+21, r16	; 0x15
    25ec:	86 2f       	mov	r24, r22
    25ee:	90 e0       	ldi	r25, 0x00	; 0
    25f0:	a0 e0       	ldi	r26, 0x00	; 0
    25f2:	b0 e0       	ldi	r27, 0x00	; 0
    25f4:	87 8b       	std	Z+23, r24	; 0x17
    25f6:	90 8f       	std	Z+24, r25	; 0x18
    25f8:	a1 8f       	std	Z+25, r26	; 0x19
    25fa:	b2 8f       	std	Z+26, r27	; 0x1a
    25fc:	03 2f       	mov	r16, r19
    25fe:	10 e0       	ldi	r17, 0x00	; 0
    2600:	20 e0       	ldi	r18, 0x00	; 0
    2602:	30 e0       	ldi	r19, 0x00	; 0
    2604:	03 8f       	std	Z+27, r16	; 0x1b
    2606:	14 8f       	std	Z+28, r17	; 0x1c
    2608:	25 8f       	std	Z+29, r18	; 0x1d
    260a:	36 8f       	std	Z+30, r19	; 0x1e
    260c:	50 e0       	ldi	r21, 0x00	; 0
    260e:	60 e0       	ldi	r22, 0x00	; 0
    2610:	70 e0       	ldi	r23, 0x00	; 0
    2612:	47 8f       	std	Z+31, r20	; 0x1f
    2614:	50 a3       	std	Z+32, r21	; 0x20
    2616:	61 a3       	std	Z+33, r22	; 0x21
    2618:	72 a3       	std	Z+34, r23	; 0x22
    261a:	15 86       	std	Z+13, r1	; 0x0d
    261c:	16 86       	std	Z+14, r1	; 0x0e
    261e:	17 86       	std	Z+15, r1	; 0x0f
    2620:	10 8a       	std	Z+16, r1	; 0x10
    2622:	e3 a2       	std	Z+35, r14	; 0x23
    2624:	d5 a2       	std	Z+37, r13	; 0x25
    2626:	c4 a2       	std	Z+36, r12	; 0x24
    2628:	1f 91       	pop	r17
    262a:	0f 91       	pop	r16
    262c:	ef 90       	pop	r14
    262e:	df 90       	pop	r13
    2630:	cf 90       	pop	r12
    2632:	08 95       	ret

00002634 <__vector_10>:
    2634:	1f 92       	push	r1
    2636:	0f 92       	push	r0
    2638:	0f b6       	in	r0, 0x3f	; 63
    263a:	0f 92       	push	r0
    263c:	11 24       	eor	r1, r1
    263e:	2f 93       	push	r18
    2640:	8f 93       	push	r24
    2642:	9f 93       	push	r25
    2644:	af 93       	push	r26
    2646:	bf 93       	push	r27
    2648:	80 91 d4 00 	lds	r24, 0x00D4
    264c:	90 91 d5 00 	lds	r25, 0x00D5
    2650:	01 96       	adiw	r24, 0x01	; 1
    2652:	90 93 d5 00 	sts	0x00D5, r25
    2656:	80 93 d4 00 	sts	0x00D4, r24
    265a:	80 91 d4 00 	lds	r24, 0x00D4
    265e:	90 91 d5 00 	lds	r25, 0x00D5
    2662:	85 3e       	cpi	r24, 0xE5	; 229
    2664:	93 40       	sbci	r25, 0x03	; 3
    2666:	d4 f0       	brlt	.+52     	; 0x269c <__vector_10+0x68>
    2668:	10 92 d5 00 	sts	0x00D5, r1
    266c:	10 92 d4 00 	sts	0x00D4, r1
    2670:	81 e0       	ldi	r24, 0x01	; 1
    2672:	80 93 b3 00 	sts	0x00B3, r24
    2676:	80 91 79 00 	lds	r24, 0x0079
    267a:	90 91 7a 00 	lds	r25, 0x007A
    267e:	a0 91 7b 00 	lds	r26, 0x007B
    2682:	b0 91 7c 00 	lds	r27, 0x007C
    2686:	01 96       	adiw	r24, 0x01	; 1
    2688:	a1 1d       	adc	r26, r1
    268a:	b1 1d       	adc	r27, r1
    268c:	80 93 79 00 	sts	0x0079, r24
    2690:	90 93 7a 00 	sts	0x007A, r25
    2694:	a0 93 7b 00 	sts	0x007B, r26
    2698:	b0 93 7c 00 	sts	0x007C, r27
    269c:	80 91 82 00 	lds	r24, 0x0082
    26a0:	88 23       	and	r24, r24
    26a2:	29 f0       	breq	.+10     	; 0x26ae <__vector_10+0x7a>
    26a4:	80 91 82 00 	lds	r24, 0x0082
    26a8:	81 50       	subi	r24, 0x01	; 1
    26aa:	80 93 82 00 	sts	0x0082, r24
    26ae:	80 91 b6 00 	lds	r24, 0x00B6
    26b2:	90 91 b7 00 	lds	r25, 0x00B7
    26b6:	01 96       	adiw	r24, 0x01	; 1
    26b8:	90 93 b7 00 	sts	0x00B7, r25
    26bc:	80 93 b6 00 	sts	0x00B6, r24
    26c0:	80 91 d8 00 	lds	r24, 0x00D8
    26c4:	90 91 d9 00 	lds	r25, 0x00D9
    26c8:	01 96       	adiw	r24, 0x01	; 1
    26ca:	90 93 d9 00 	sts	0x00D9, r25
    26ce:	80 93 d8 00 	sts	0x00D8, r24
    26d2:	80 91 83 00 	lds	r24, 0x0083
    26d6:	90 91 84 00 	lds	r25, 0x0084
    26da:	01 96       	adiw	r24, 0x01	; 1
    26dc:	90 93 84 00 	sts	0x0084, r25
    26e0:	80 93 83 00 	sts	0x0083, r24
    26e4:	bf 91       	pop	r27
    26e6:	af 91       	pop	r26
    26e8:	9f 91       	pop	r25
    26ea:	8f 91       	pop	r24
    26ec:	2f 91       	pop	r18
    26ee:	0f 90       	pop	r0
    26f0:	0f be       	out	0x3f, r0	; 63
    26f2:	0f 90       	pop	r0
    26f4:	1f 90       	pop	r1
    26f6:	18 95       	reti

000026f8 <__vector_1>:
    26f8:	1f 92       	push	r1
    26fa:	0f 92       	push	r0
    26fc:	0f b6       	in	r0, 0x3f	; 63
    26fe:	0f 92       	push	r0
    2700:	11 24       	eor	r1, r1
    2702:	8f 93       	push	r24
    2704:	9f 93       	push	r25
    2706:	80 91 82 00 	lds	r24, 0x0082
    270a:	81 11       	cpse	r24, r1
    270c:	09 c0       	rjmp	.+18     	; 0x2720 <__vector_1+0x28>
    270e:	88 ec       	ldi	r24, 0xC8	; 200
    2710:	80 93 82 00 	sts	0x0082, r24
    2714:	80 91 aa 00 	lds	r24, 0x00AA
    2718:	91 e0       	ldi	r25, 0x01	; 1
    271a:	89 27       	eor	r24, r25
    271c:	80 93 aa 00 	sts	0x00AA, r24
    2720:	8a b7       	in	r24, 0x3a	; 58
    2722:	80 64       	ori	r24, 0x40	; 64
    2724:	8a bf       	out	0x3a, r24	; 58
    2726:	9f 91       	pop	r25
    2728:	8f 91       	pop	r24
    272a:	0f 90       	pop	r0
    272c:	0f be       	out	0x3f, r0	; 63
    272e:	0f 90       	pop	r0
    2730:	1f 90       	pop	r1
    2732:	18 95       	reti

00002734 <__vector_2>:
    2734:	1f 92       	push	r1
    2736:	0f 92       	push	r0
    2738:	0f b6       	in	r0, 0x3f	; 63
    273a:	0f 92       	push	r0
    273c:	11 24       	eor	r1, r1
    273e:	8f 93       	push	r24
    2740:	80 91 82 00 	lds	r24, 0x0082
    2744:	81 11       	cpse	r24, r1
    2746:	06 c0       	rjmp	.+12     	; 0x2754 <__vector_2+0x20>
    2748:	88 ec       	ldi	r24, 0xC8	; 200
    274a:	80 93 82 00 	sts	0x0082, r24
    274e:	82 b3       	in	r24, 0x12	; 18
    2750:	80 58       	subi	r24, 0x80	; 128
    2752:	82 bb       	out	0x12, r24	; 18
    2754:	8a b7       	in	r24, 0x3a	; 58
    2756:	80 68       	ori	r24, 0x80	; 128
    2758:	8a bf       	out	0x3a, r24	; 58
    275a:	8f 91       	pop	r24
    275c:	0f 90       	pop	r0
    275e:	0f be       	out	0x3f, r0	; 63
    2760:	0f 90       	pop	r0
    2762:	1f 90       	pop	r1
    2764:	18 95       	reti

00002766 <__vector_3>:
    2766:	1f 92       	push	r1
    2768:	0f 92       	push	r0
    276a:	0f b6       	in	r0, 0x3f	; 63
    276c:	0f 92       	push	r0
    276e:	11 24       	eor	r1, r1
    2770:	8f 93       	push	r24
    2772:	81 e0       	ldi	r24, 0x01	; 1
    2774:	80 93 81 00 	sts	0x0081, r24
    2778:	8f 91       	pop	r24
    277a:	0f 90       	pop	r0
    277c:	0f be       	out	0x3f, r0	; 63
    277e:	0f 90       	pop	r0
    2780:	1f 90       	pop	r1
    2782:	18 95       	reti

00002784 <delay>:
    2784:	10 92 84 00 	sts	0x0084, r1
    2788:	10 92 83 00 	sts	0x0083, r1
    278c:	20 91 83 00 	lds	r18, 0x0083
    2790:	30 91 84 00 	lds	r19, 0x0084
    2794:	28 17       	cp	r18, r24
    2796:	39 07       	cpc	r19, r25
    2798:	c8 f3       	brcs	.-14     	; 0x278c <delay+0x8>
    279a:	08 95       	ret

0000279c <calculate_pid>:
    279c:	af 92       	push	r10
    279e:	bf 92       	push	r11
    27a0:	cf 92       	push	r12
    27a2:	df 92       	push	r13
    27a4:	ef 92       	push	r14
    27a6:	ff 92       	push	r15
    27a8:	0f 93       	push	r16
    27aa:	1f 93       	push	r17
    27ac:	cf 93       	push	r28
    27ae:	df 93       	push	r29
    27b0:	ec 01       	movw	r28, r24
    27b2:	cd 88       	ldd	r12, Y+21	; 0x15
    27b4:	de 88       	ldd	r13, Y+22	; 0x16
    27b6:	c6 1a       	sub	r12, r22
    27b8:	d7 0a       	sbc	r13, r23
    27ba:	8c a1       	ldd	r24, Y+36	; 0x24
    27bc:	9d a1       	ldd	r25, Y+37	; 0x25
    27be:	8c 15       	cp	r24, r12
    27c0:	9d 05       	cpc	r25, r13
    27c2:	08 f4       	brcc	.+2      	; 0x27c6 <calculate_pid+0x2a>
    27c4:	c5 c0       	rjmp	.+394    	; 0x2950 <calculate_pid+0x1b4>
    27c6:	91 95       	neg	r25
    27c8:	81 95       	neg	r24
    27ca:	91 09       	sbc	r25, r1
    27cc:	c8 16       	cp	r12, r24
    27ce:	d9 06       	cpc	r13, r25
    27d0:	08 f4       	brcc	.+2      	; 0x27d4 <calculate_pid+0x38>
    27d2:	d0 c0       	rjmp	.+416    	; 0x2974 <calculate_pid+0x1d8>
    27d4:	8c 81       	ldd	r24, Y+4	; 0x04
    27d6:	9d 81       	ldd	r25, Y+5	; 0x05
    27d8:	ae 81       	ldd	r26, Y+6	; 0x06
    27da:	bf 81       	ldd	r27, Y+7	; 0x07
    27dc:	88 87       	std	Y+8, r24	; 0x08
    27de:	99 87       	std	Y+9, r25	; 0x09
    27e0:	aa 87       	std	Y+10, r26	; 0x0a
    27e2:	bb 87       	std	Y+11, r27	; 0x0b
    27e4:	88 81       	ld	r24, Y
    27e6:	99 81       	ldd	r25, Y+1	; 0x01
    27e8:	aa 81       	ldd	r26, Y+2	; 0x02
    27ea:	bb 81       	ldd	r27, Y+3	; 0x03
    27ec:	8c 83       	std	Y+4, r24	; 0x04
    27ee:	9d 83       	std	Y+5, r25	; 0x05
    27f0:	ae 83       	std	Y+6, r26	; 0x06
    27f2:	bf 83       	std	Y+7, r27	; 0x07
    27f4:	ee 24       	eor	r14, r14
    27f6:	d7 fc       	sbrc	r13, 7
    27f8:	e0 94       	com	r14
    27fa:	fe 2c       	mov	r15, r14
    27fc:	c8 82       	st	Y, r12
    27fe:	d9 82       	std	Y+1, r13	; 0x01
    2800:	ea 82       	std	Y+2, r14	; 0x02
    2802:	fb 82       	std	Y+3, r15	; 0x03
    2804:	1c 14       	cp	r1, r12
    2806:	1d 04       	cpc	r1, r13
    2808:	1e 04       	cpc	r1, r14
    280a:	1f 04       	cpc	r1, r15
    280c:	1c f4       	brge	.+6      	; 0x2814 <calculate_pid+0x78>
    280e:	b7 ff       	sbrs	r27, 7
    2810:	10 c0       	rjmp	.+32     	; 0x2832 <calculate_pid+0x96>
    2812:	0a c0       	rjmp	.+20     	; 0x2828 <calculate_pid+0x8c>
    2814:	c1 14       	cp	r12, r1
    2816:	d1 04       	cpc	r13, r1
    2818:	e1 04       	cpc	r14, r1
    281a:	f1 04       	cpc	r15, r1
    281c:	29 f0       	breq	.+10     	; 0x2828 <calculate_pid+0x8c>
    281e:	18 16       	cp	r1, r24
    2820:	19 06       	cpc	r1, r25
    2822:	1a 06       	cpc	r1, r26
    2824:	1b 06       	cpc	r1, r27
    2826:	2c f4       	brge	.+10     	; 0x2832 <calculate_pid+0x96>
    2828:	1d 86       	std	Y+13, r1	; 0x0d
    282a:	1e 86       	std	Y+14, r1	; 0x0e
    282c:	1f 86       	std	Y+15, r1	; 0x0f
    282e:	18 8a       	std	Y+16, r1	; 0x10
    2830:	17 c0       	rjmp	.+46     	; 0x2860 <calculate_pid+0xc4>
    2832:	8d 85       	ldd	r24, Y+13	; 0x0d
    2834:	9e 85       	ldd	r25, Y+14	; 0x0e
    2836:	af 85       	ldd	r26, Y+15	; 0x0f
    2838:	b8 89       	ldd	r27, Y+16	; 0x10
    283a:	ac 01       	movw	r20, r24
    283c:	bd 01       	movw	r22, r26
    283e:	49 51       	subi	r20, 0x19	; 25
    2840:	5c 4f       	sbci	r21, 0xFC	; 252
    2842:	6f 4f       	sbci	r22, 0xFF	; 255
    2844:	7f 4f       	sbci	r23, 0xFF	; 255
    2846:	4f 3c       	cpi	r20, 0xCF	; 207
    2848:	57 40       	sbci	r21, 0x07	; 7
    284a:	61 05       	cpc	r22, r1
    284c:	71 05       	cpc	r23, r1
    284e:	40 f4       	brcc	.+16     	; 0x2860 <calculate_pid+0xc4>
    2850:	8c 0d       	add	r24, r12
    2852:	9d 1d       	adc	r25, r13
    2854:	ae 1d       	adc	r26, r14
    2856:	bf 1d       	adc	r27, r15
    2858:	8d 87       	std	Y+13, r24	; 0x0d
    285a:	9e 87       	std	Y+14, r25	; 0x0e
    285c:	af 87       	std	Y+15, r26	; 0x0f
    285e:	b8 8b       	std	Y+16, r27	; 0x10
    2860:	6f 89       	ldd	r22, Y+23	; 0x17
    2862:	78 8d       	ldd	r23, Y+24	; 0x18
    2864:	89 8d       	ldd	r24, Y+25	; 0x19
    2866:	9a 8d       	ldd	r25, Y+26	; 0x1a
    2868:	a7 01       	movw	r20, r14
    286a:	96 01       	movw	r18, r12
    286c:	0e 94 58 15 	call	0x2ab0	; 0x2ab0 <__mulsi3>
    2870:	20 e0       	ldi	r18, 0x00	; 0
    2872:	31 e0       	ldi	r19, 0x01	; 1
    2874:	40 e0       	ldi	r20, 0x00	; 0
    2876:	50 e0       	ldi	r21, 0x00	; 0
    2878:	0e 94 68 15 	call	0x2ad0	; 0x2ad0 <__divmodsi4>
    287c:	89 01       	movw	r16, r18
    287e:	2e 3f       	cpi	r18, 0xFE	; 254
    2880:	8f ef       	ldi	r24, 0xFF	; 255
    2882:	38 07       	cpc	r19, r24
    2884:	14 f4       	brge	.+4      	; 0x288a <calculate_pid+0xee>
    2886:	0e ef       	ldi	r16, 0xFE	; 254
    2888:	1f ef       	ldi	r17, 0xFF	; 255
    288a:	6d 85       	ldd	r22, Y+13	; 0x0d
    288c:	7e 85       	ldd	r23, Y+14	; 0x0e
    288e:	8f 85       	ldd	r24, Y+15	; 0x0f
    2890:	98 89       	ldd	r25, Y+16	; 0x10
    2892:	20 e0       	ldi	r18, 0x00	; 0
    2894:	31 e0       	ldi	r19, 0x01	; 1
    2896:	40 e0       	ldi	r20, 0x00	; 0
    2898:	50 e0       	ldi	r21, 0x00	; 0
    289a:	0e 94 68 15 	call	0x2ad0	; 0x2ad0 <__divmodsi4>
    289e:	8b 8d       	ldd	r24, Y+27	; 0x1b
    28a0:	9c 8d       	ldd	r25, Y+28	; 0x1c
    28a2:	82 9f       	mul	r24, r18
    28a4:	50 01       	movw	r10, r0
    28a6:	83 9f       	mul	r24, r19
    28a8:	b0 0c       	add	r11, r0
    28aa:	92 9f       	mul	r25, r18
    28ac:	b0 0c       	add	r11, r0
    28ae:	11 24       	eor	r1, r1
    28b0:	b7 fe       	sbrs	r11, 7
    28b2:	03 c0       	rjmp	.+6      	; 0x28ba <calculate_pid+0x11e>
    28b4:	aa 24       	eor	r10, r10
    28b6:	aa 94       	dec	r10
    28b8:	ba 2c       	mov	r11, r10
    28ba:	8c 85       	ldd	r24, Y+12	; 0x0c
    28bc:	fe 01       	movw	r30, r28
    28be:	94 e0       	ldi	r25, 0x04	; 4
    28c0:	89 9f       	mul	r24, r25
    28c2:	e0 0d       	add	r30, r0
    28c4:	f1 1d       	adc	r31, r1
    28c6:	11 24       	eor	r1, r1
    28c8:	80 81       	ld	r24, Z
    28ca:	91 81       	ldd	r25, Z+1	; 0x01
    28cc:	a2 81       	ldd	r26, Z+2	; 0x02
    28ce:	b3 81       	ldd	r27, Z+3	; 0x03
    28d0:	a7 01       	movw	r20, r14
    28d2:	96 01       	movw	r18, r12
    28d4:	28 1b       	sub	r18, r24
    28d6:	39 0b       	sbc	r19, r25
    28d8:	4a 0b       	sbc	r20, r26
    28da:	5b 0b       	sbc	r21, r27
    28dc:	6f 8d       	ldd	r22, Y+31	; 0x1f
    28de:	78 a1       	ldd	r23, Y+32	; 0x20
    28e0:	89 a1       	ldd	r24, Y+33	; 0x21
    28e2:	9a a1       	ldd	r25, Y+34	; 0x22
    28e4:	0e 94 58 15 	call	0x2ab0	; 0x2ab0 <__mulsi3>
    28e8:	20 e0       	ldi	r18, 0x00	; 0
    28ea:	31 e0       	ldi	r19, 0x01	; 1
    28ec:	40 e0       	ldi	r20, 0x00	; 0
    28ee:	50 e0       	ldi	r21, 0x00	; 0
    28f0:	0e 94 68 15 	call	0x2ad0	; 0x2ad0 <__divmodsi4>
    28f4:	c9 01       	movw	r24, r18
    28f6:	8c 3f       	cpi	r24, 0xFC	; 252
    28f8:	2f ef       	ldi	r18, 0xFF	; 255
    28fa:	92 07       	cpc	r25, r18
    28fc:	14 f4       	brge	.+4      	; 0x2902 <calculate_pid+0x166>
    28fe:	8c ef       	ldi	r24, 0xFC	; 252
    2900:	9f ef       	ldi	r25, 0xFF	; 255
    2902:	a8 01       	movw	r20, r16
    2904:	03 30       	cpi	r16, 0x03	; 3
    2906:	11 05       	cpc	r17, r1
    2908:	14 f0       	brlt	.+4      	; 0x290e <calculate_pid+0x172>
    290a:	42 e0       	ldi	r20, 0x02	; 2
    290c:	50 e0       	ldi	r21, 0x00	; 0
    290e:	95 01       	movw	r18, r10
    2910:	1a 14       	cp	r1, r10
    2912:	1b 04       	cpc	r1, r11
    2914:	14 f4       	brge	.+4      	; 0x291a <calculate_pid+0x17e>
    2916:	21 e0       	ldi	r18, 0x01	; 1
    2918:	30 e0       	ldi	r19, 0x00	; 0
    291a:	42 0f       	add	r20, r18
    291c:	53 1f       	adc	r21, r19
    291e:	85 30       	cpi	r24, 0x05	; 5
    2920:	91 05       	cpc	r25, r1
    2922:	14 f0       	brlt	.+4      	; 0x2928 <calculate_pid+0x18c>
    2924:	84 e0       	ldi	r24, 0x04	; 4
    2926:	90 e0       	ldi	r25, 0x00	; 0
    2928:	48 0f       	add	r20, r24
    292a:	59 1f       	adc	r21, r25
    292c:	66 27       	eor	r22, r22
    292e:	57 fd       	sbrc	r21, 7
    2930:	60 95       	com	r22
    2932:	76 2f       	mov	r23, r22
    2934:	89 89       	ldd	r24, Y+17	; 0x11
    2936:	9a 89       	ldd	r25, Y+18	; 0x12
    2938:	ab 89       	ldd	r26, Y+19	; 0x13
    293a:	bc 89       	ldd	r27, Y+20	; 0x14
    293c:	48 0f       	add	r20, r24
    293e:	59 1f       	adc	r21, r25
    2940:	6a 1f       	adc	r22, r26
    2942:	7b 1f       	adc	r23, r27
    2944:	4f 3f       	cpi	r20, 0xFF	; 255
    2946:	51 05       	cpc	r21, r1
    2948:	61 05       	cpc	r22, r1
    294a:	71 05       	cpc	r23, r1
    294c:	51 f0       	breq	.+20     	; 0x2962 <calculate_pid+0x1c6>
    294e:	4c f0       	brlt	.+18     	; 0x2962 <calculate_pid+0x1c6>
    2950:	8f ef       	ldi	r24, 0xFF	; 255
    2952:	90 e0       	ldi	r25, 0x00	; 0
    2954:	a0 e0       	ldi	r26, 0x00	; 0
    2956:	b0 e0       	ldi	r27, 0x00	; 0
    2958:	89 8b       	std	Y+17, r24	; 0x11
    295a:	9a 8b       	std	Y+18, r25	; 0x12
    295c:	ab 8b       	std	Y+19, r26	; 0x13
    295e:	bc 8b       	std	Y+20, r27	; 0x14
    2960:	12 c0       	rjmp	.+36     	; 0x2986 <calculate_pid+0x1ea>
    2962:	8b a1       	ldd	r24, Y+35	; 0x23
    2964:	90 e0       	ldi	r25, 0x00	; 0
    2966:	a0 e0       	ldi	r26, 0x00	; 0
    2968:	b0 e0       	ldi	r27, 0x00	; 0
    296a:	48 17       	cp	r20, r24
    296c:	59 07       	cpc	r21, r25
    296e:	6a 07       	cpc	r22, r26
    2970:	7b 07       	cpc	r23, r27
    2972:	2c f4       	brge	.+10     	; 0x297e <calculate_pid+0x1e2>
    2974:	19 8a       	std	Y+17, r1	; 0x11
    2976:	1a 8a       	std	Y+18, r1	; 0x12
    2978:	1b 8a       	std	Y+19, r1	; 0x13
    297a:	1c 8a       	std	Y+20, r1	; 0x14
    297c:	04 c0       	rjmp	.+8      	; 0x2986 <calculate_pid+0x1ea>
    297e:	49 8b       	std	Y+17, r20	; 0x11
    2980:	5a 8b       	std	Y+18, r21	; 0x12
    2982:	6b 8b       	std	Y+19, r22	; 0x13
    2984:	7c 8b       	std	Y+20, r23	; 0x14
    2986:	89 89       	ldd	r24, Y+17	; 0x11
    2988:	df 91       	pop	r29
    298a:	cf 91       	pop	r28
    298c:	1f 91       	pop	r17
    298e:	0f 91       	pop	r16
    2990:	ff 90       	pop	r15
    2992:	ef 90       	pop	r14
    2994:	df 90       	pop	r13
    2996:	cf 90       	pop	r12
    2998:	bf 90       	pop	r11
    299a:	af 90       	pop	r10
    299c:	08 95       	ret

0000299e <spi_init>:
    299e:	bc 9a       	sbi	0x17, 4	; 23
    29a0:	c4 9a       	sbi	0x18, 4	; 24
    29a2:	87 b3       	in	r24, 0x17	; 23
    29a4:	80 6a       	ori	r24, 0xA0	; 160
    29a6:	87 bb       	out	0x17, r24	; 23
    29a8:	88 b3       	in	r24, 0x18	; 24
    29aa:	8f 71       	andi	r24, 0x1F	; 31
    29ac:	88 bb       	out	0x18, r24	; 24
    29ae:	80 e5       	ldi	r24, 0x50	; 80
    29b0:	8d b9       	out	0x0d, r24	; 13
    29b2:	81 e0       	ldi	r24, 0x01	; 1
    29b4:	8e b9       	out	0x0e, r24	; 14
    29b6:	08 95       	ret

000029b8 <spi_put_c>:
    29b8:	77 99       	sbic	0x0e, 7	; 14
    29ba:	fe cf       	rjmp	.-4      	; 0x29b8 <spi_put_c>
    29bc:	8f b9       	out	0x0f, r24	; 15
    29be:	77 9b       	sbis	0x0e, 7	; 14
    29c0:	fe cf       	rjmp	.-4      	; 0x29be <spi_put_c+0x6>
    29c2:	8f b1       	in	r24, 0x0f	; 15
    29c4:	08 95       	ret

000029c6 <uart_init>:
    29c6:	20 b5       	in	r18, 0x20	; 32
    29c8:	2f 77       	andi	r18, 0x7F	; 127
    29ca:	20 bd       	out	0x20, r18	; 32
    29cc:	90 bd       	out	0x20, r25	; 32
    29ce:	89 b9       	out	0x09, r24	; 9
    29d0:	8a b1       	in	r24, 0x0a	; 10
    29d2:	88 69       	ori	r24, 0x98	; 152
    29d4:	8a b9       	out	0x0a, r24	; 10
    29d6:	80 b5       	in	r24, 0x20	; 32
    29d8:	8e 68       	ori	r24, 0x8E	; 142
    29da:	80 bd       	out	0x20, r24	; 32
    29dc:	08 95       	ret

000029de <uart_put_c>:
    29de:	5d 9b       	sbis	0x0b, 5	; 11
    29e0:	fe cf       	rjmp	.-4      	; 0x29de <uart_put_c>
    29e2:	8c b9       	out	0x0c, r24	; 12
    29e4:	08 95       	ret

000029e6 <uart_put_s>:
    29e6:	cf 93       	push	r28
    29e8:	df 93       	push	r29
    29ea:	ec 01       	movw	r28, r24
    29ec:	02 c0       	rjmp	.+4      	; 0x29f2 <uart_put_s+0xc>
    29ee:	0e 94 ef 14 	call	0x29de	; 0x29de <uart_put_c>
    29f2:	89 91       	ld	r24, Y+
    29f4:	81 11       	cpse	r24, r1
    29f6:	fb cf       	rjmp	.-10     	; 0x29ee <uart_put_s+0x8>
    29f8:	df 91       	pop	r29
    29fa:	cf 91       	pop	r28
    29fc:	08 95       	ret

000029fe <__vector_13>:
    29fe:	1f 92       	push	r1
    2a00:	0f 92       	push	r0
    2a02:	0f b6       	in	r0, 0x3f	; 63
    2a04:	0f 92       	push	r0
    2a06:	11 24       	eor	r1, r1
    2a08:	8f 93       	push	r24
    2a0a:	9f 93       	push	r25
    2a0c:	ef 93       	push	r30
    2a0e:	ff 93       	push	r31
    2a10:	8c b1       	in	r24, 0x0c	; 12
    2a12:	88 23       	and	r24, r24
    2a14:	31 f0       	breq	.+12     	; 0x2a22 <__vector_13+0x24>
    2a16:	83 32       	cpi	r24, 0x23	; 35
    2a18:	19 f5       	brne	.+70     	; 0x2a60 <__vector_13+0x62>
    2a1a:	81 e0       	ldi	r24, 0x01	; 1
    2a1c:	80 93 8f 00 	sts	0x008F, r24
    2a20:	3c c0       	rjmp	.+120    	; 0x2a9a <__vector_13+0x9c>
    2a22:	80 91 8f 00 	lds	r24, 0x008F
    2a26:	81 30       	cpi	r24, 0x01	; 1
    2a28:	91 f4       	brne	.+36     	; 0x2a4e <__vector_13+0x50>
    2a2a:	80 91 90 00 	lds	r24, 0x0090
    2a2e:	88 23       	and	r24, r24
    2a30:	71 f0       	breq	.+28     	; 0x2a4e <__vector_13+0x50>
    2a32:	e0 91 90 00 	lds	r30, 0x0090
    2a36:	f0 e0       	ldi	r31, 0x00	; 0
    2a38:	e1 57       	subi	r30, 0x71	; 113
    2a3a:	ff 4f       	sbci	r31, 0xFF	; 255
    2a3c:	12 82       	std	Z+2, r1	; 0x02
    2a3e:	82 e0       	ldi	r24, 0x02	; 2
    2a40:	80 93 8f 00 	sts	0x008F, r24
    2a44:	80 91 90 00 	lds	r24, 0x0090
    2a48:	8f 5f       	subi	r24, 0xFF	; 255
    2a4a:	80 93 90 00 	sts	0x0090, r24
    2a4e:	80 91 8f 00 	lds	r24, 0x008F
    2a52:	81 30       	cpi	r24, 0x01	; 1
    2a54:	21 f5       	brne	.+72     	; 0x2a9e <__vector_13+0xa0>
    2a56:	80 91 90 00 	lds	r24, 0x0090
    2a5a:	81 11       	cpse	r24, r1
    2a5c:	20 c0       	rjmp	.+64     	; 0x2a9e <__vector_13+0xa0>
    2a5e:	1b c0       	rjmp	.+54     	; 0x2a96 <__vector_13+0x98>
    2a60:	90 91 8f 00 	lds	r25, 0x008F
    2a64:	91 30       	cpi	r25, 0x01	; 1
    2a66:	79 f4       	brne	.+30     	; 0x2a86 <__vector_13+0x88>
    2a68:	90 91 90 00 	lds	r25, 0x0090
    2a6c:	94 31       	cpi	r25, 0x14	; 20
    2a6e:	58 f4       	brcc	.+22     	; 0x2a86 <__vector_13+0x88>
    2a70:	e0 91 90 00 	lds	r30, 0x0090
    2a74:	f0 e0       	ldi	r31, 0x00	; 0
    2a76:	e1 57       	subi	r30, 0x71	; 113
    2a78:	ff 4f       	sbci	r31, 0xFF	; 255
    2a7a:	82 83       	std	Z+2, r24	; 0x02
    2a7c:	80 91 90 00 	lds	r24, 0x0090
    2a80:	8f 5f       	subi	r24, 0xFF	; 255
    2a82:	80 93 90 00 	sts	0x0090, r24
    2a86:	80 91 8f 00 	lds	r24, 0x008F
    2a8a:	81 30       	cpi	r24, 0x01	; 1
    2a8c:	41 f4       	brne	.+16     	; 0x2a9e <__vector_13+0xa0>
    2a8e:	80 91 90 00 	lds	r24, 0x0090
    2a92:	8a 30       	cpi	r24, 0x0A	; 10
    2a94:	20 f0       	brcs	.+8      	; 0x2a9e <__vector_13+0xa0>
    2a96:	10 92 8f 00 	sts	0x008F, r1
    2a9a:	10 92 90 00 	sts	0x0090, r1
    2a9e:	ff 91       	pop	r31
    2aa0:	ef 91       	pop	r30
    2aa2:	9f 91       	pop	r25
    2aa4:	8f 91       	pop	r24
    2aa6:	0f 90       	pop	r0
    2aa8:	0f be       	out	0x3f, r0	; 63
    2aaa:	0f 90       	pop	r0
    2aac:	1f 90       	pop	r1
    2aae:	18 95       	reti

00002ab0 <__mulsi3>:
    2ab0:	db 01       	movw	r26, r22
    2ab2:	8f 93       	push	r24
    2ab4:	9f 93       	push	r25
    2ab6:	0e 94 8a 15 	call	0x2b14	; 0x2b14 <__muluhisi3>
    2aba:	bf 91       	pop	r27
    2abc:	af 91       	pop	r26
    2abe:	a2 9f       	mul	r26, r18
    2ac0:	80 0d       	add	r24, r0
    2ac2:	91 1d       	adc	r25, r1
    2ac4:	a3 9f       	mul	r26, r19
    2ac6:	90 0d       	add	r25, r0
    2ac8:	b2 9f       	mul	r27, r18
    2aca:	90 0d       	add	r25, r0
    2acc:	11 24       	eor	r1, r1
    2ace:	08 95       	ret

00002ad0 <__divmodsi4>:
    2ad0:	05 2e       	mov	r0, r21
    2ad2:	97 fb       	bst	r25, 7
    2ad4:	16 f4       	brtc	.+4      	; 0x2ada <__divmodsi4+0xa>
    2ad6:	00 94       	com	r0
    2ad8:	07 d0       	rcall	.+14     	; 0x2ae8 <__divmodsi4_neg1>
    2ada:	57 fd       	sbrc	r21, 7
    2adc:	0d d0       	rcall	.+26     	; 0x2af8 <__divmodsi4_neg2>
    2ade:	0e 94 95 15 	call	0x2b2a	; 0x2b2a <__udivmodsi4>
    2ae2:	07 fc       	sbrc	r0, 7
    2ae4:	09 d0       	rcall	.+18     	; 0x2af8 <__divmodsi4_neg2>
    2ae6:	7e f4       	brtc	.+30     	; 0x2b06 <__divmodsi4_exit>

00002ae8 <__divmodsi4_neg1>:
    2ae8:	90 95       	com	r25
    2aea:	80 95       	com	r24
    2aec:	70 95       	com	r23
    2aee:	61 95       	neg	r22
    2af0:	7f 4f       	sbci	r23, 0xFF	; 255
    2af2:	8f 4f       	sbci	r24, 0xFF	; 255
    2af4:	9f 4f       	sbci	r25, 0xFF	; 255
    2af6:	08 95       	ret

00002af8 <__divmodsi4_neg2>:
    2af8:	50 95       	com	r21
    2afa:	40 95       	com	r20
    2afc:	30 95       	com	r19
    2afe:	21 95       	neg	r18
    2b00:	3f 4f       	sbci	r19, 0xFF	; 255
    2b02:	4f 4f       	sbci	r20, 0xFF	; 255
    2b04:	5f 4f       	sbci	r21, 0xFF	; 255

00002b06 <__divmodsi4_exit>:
    2b06:	08 95       	ret

00002b08 <__tablejump2__>:
    2b08:	ee 0f       	add	r30, r30
    2b0a:	ff 1f       	adc	r31, r31

00002b0c <__tablejump__>:
    2b0c:	05 90       	lpm	r0, Z+
    2b0e:	f4 91       	lpm	r31, Z
    2b10:	e0 2d       	mov	r30, r0
    2b12:	09 94       	ijmp

00002b14 <__muluhisi3>:
    2b14:	0e 94 b7 15 	call	0x2b6e	; 0x2b6e <__umulhisi3>
    2b18:	a5 9f       	mul	r26, r21
    2b1a:	90 0d       	add	r25, r0
    2b1c:	b4 9f       	mul	r27, r20
    2b1e:	90 0d       	add	r25, r0
    2b20:	a4 9f       	mul	r26, r20
    2b22:	80 0d       	add	r24, r0
    2b24:	91 1d       	adc	r25, r1
    2b26:	11 24       	eor	r1, r1
    2b28:	08 95       	ret

00002b2a <__udivmodsi4>:
    2b2a:	a1 e2       	ldi	r26, 0x21	; 33
    2b2c:	1a 2e       	mov	r1, r26
    2b2e:	aa 1b       	sub	r26, r26
    2b30:	bb 1b       	sub	r27, r27
    2b32:	fd 01       	movw	r30, r26
    2b34:	0d c0       	rjmp	.+26     	; 0x2b50 <__udivmodsi4_ep>

00002b36 <__udivmodsi4_loop>:
    2b36:	aa 1f       	adc	r26, r26
    2b38:	bb 1f       	adc	r27, r27
    2b3a:	ee 1f       	adc	r30, r30
    2b3c:	ff 1f       	adc	r31, r31
    2b3e:	a2 17       	cp	r26, r18
    2b40:	b3 07       	cpc	r27, r19
    2b42:	e4 07       	cpc	r30, r20
    2b44:	f5 07       	cpc	r31, r21
    2b46:	20 f0       	brcs	.+8      	; 0x2b50 <__udivmodsi4_ep>
    2b48:	a2 1b       	sub	r26, r18
    2b4a:	b3 0b       	sbc	r27, r19
    2b4c:	e4 0b       	sbc	r30, r20
    2b4e:	f5 0b       	sbc	r31, r21

00002b50 <__udivmodsi4_ep>:
    2b50:	66 1f       	adc	r22, r22
    2b52:	77 1f       	adc	r23, r23
    2b54:	88 1f       	adc	r24, r24
    2b56:	99 1f       	adc	r25, r25
    2b58:	1a 94       	dec	r1
    2b5a:	69 f7       	brne	.-38     	; 0x2b36 <__udivmodsi4_loop>
    2b5c:	60 95       	com	r22
    2b5e:	70 95       	com	r23
    2b60:	80 95       	com	r24
    2b62:	90 95       	com	r25
    2b64:	9b 01       	movw	r18, r22
    2b66:	ac 01       	movw	r20, r24
    2b68:	bd 01       	movw	r22, r26
    2b6a:	cf 01       	movw	r24, r30
    2b6c:	08 95       	ret

00002b6e <__umulhisi3>:
    2b6e:	a2 9f       	mul	r26, r18
    2b70:	b0 01       	movw	r22, r0
    2b72:	b3 9f       	mul	r27, r19
    2b74:	c0 01       	movw	r24, r0
    2b76:	a3 9f       	mul	r26, r19
    2b78:	01 d0       	rcall	.+2      	; 0x2b7c <__umulhisi3+0xe>
    2b7a:	b2 9f       	mul	r27, r18
    2b7c:	70 0d       	add	r23, r0
    2b7e:	81 1d       	adc	r24, r1
    2b80:	11 24       	eor	r1, r1
    2b82:	91 1d       	adc	r25, r1
    2b84:	08 95       	ret

00002b86 <atol>:
    2b86:	1f 93       	push	r17
    2b88:	fc 01       	movw	r30, r24
    2b8a:	99 27       	eor	r25, r25
    2b8c:	88 27       	eor	r24, r24
    2b8e:	bc 01       	movw	r22, r24
    2b90:	e8 94       	clt
    2b92:	11 91       	ld	r17, Z+
    2b94:	10 32       	cpi	r17, 0x20	; 32
    2b96:	e9 f3       	breq	.-6      	; 0x2b92 <atol+0xc>
    2b98:	19 30       	cpi	r17, 0x09	; 9
    2b9a:	10 f0       	brcs	.+4      	; 0x2ba0 <atol+0x1a>
    2b9c:	1e 30       	cpi	r17, 0x0E	; 14
    2b9e:	c8 f3       	brcs	.-14     	; 0x2b92 <atol+0xc>
    2ba0:	1b 32       	cpi	r17, 0x2B	; 43
    2ba2:	51 f0       	breq	.+20     	; 0x2bb8 <atol+0x32>
    2ba4:	1d 32       	cpi	r17, 0x2D	; 45
    2ba6:	49 f4       	brne	.+18     	; 0x2bba <atol+0x34>
    2ba8:	68 94       	set
    2baa:	06 c0       	rjmp	.+12     	; 0x2bb8 <atol+0x32>
    2bac:	0e 94 1e 16 	call	0x2c3c	; 0x2c3c <__mulsi_const_10>
    2bb0:	61 0f       	add	r22, r17
    2bb2:	71 1d       	adc	r23, r1
    2bb4:	81 1d       	adc	r24, r1
    2bb6:	91 1d       	adc	r25, r1
    2bb8:	11 91       	ld	r17, Z+
    2bba:	10 53       	subi	r17, 0x30	; 48
    2bbc:	1a 30       	cpi	r17, 0x0A	; 10
    2bbe:	b0 f3       	brcs	.-20     	; 0x2bac <atol+0x26>
    2bc0:	3e f4       	brtc	.+14     	; 0x2bd0 <atol+0x4a>
    2bc2:	90 95       	com	r25
    2bc4:	80 95       	com	r24
    2bc6:	70 95       	com	r23
    2bc8:	61 95       	neg	r22
    2bca:	7f 4f       	sbci	r23, 0xFF	; 255
    2bcc:	8f 4f       	sbci	r24, 0xFF	; 255
    2bce:	9f 4f       	sbci	r25, 0xFF	; 255
    2bd0:	1f 91       	pop	r17
    2bd2:	08 95       	ret

00002bd4 <ltoa>:
    2bd4:	fa 01       	movw	r30, r20
    2bd6:	cf 93       	push	r28
    2bd8:	ff 93       	push	r31
    2bda:	ef 93       	push	r30
    2bdc:	22 30       	cpi	r18, 0x02	; 2
    2bde:	44 f1       	brlt	.+80     	; 0x2c30 <ltoa+0x5c>
    2be0:	25 32       	cpi	r18, 0x25	; 37
    2be2:	34 f5       	brge	.+76     	; 0x2c30 <ltoa+0x5c>
    2be4:	c2 2f       	mov	r28, r18
    2be6:	e8 94       	clt
    2be8:	ca 30       	cpi	r28, 0x0A	; 10
    2bea:	49 f4       	brne	.+18     	; 0x2bfe <ltoa+0x2a>
    2bec:	97 fb       	bst	r25, 7
    2bee:	3e f4       	brtc	.+14     	; 0x2bfe <ltoa+0x2a>
    2bf0:	90 95       	com	r25
    2bf2:	80 95       	com	r24
    2bf4:	70 95       	com	r23
    2bf6:	61 95       	neg	r22
    2bf8:	7f 4f       	sbci	r23, 0xFF	; 255
    2bfa:	8f 4f       	sbci	r24, 0xFF	; 255
    2bfc:	9f 4f       	sbci	r25, 0xFF	; 255
    2bfe:	2c 2f       	mov	r18, r28
    2c00:	33 27       	eor	r19, r19
    2c02:	44 27       	eor	r20, r20
    2c04:	55 27       	eor	r21, r21
    2c06:	ff 93       	push	r31
    2c08:	ef 93       	push	r30
    2c0a:	0e 94 95 15 	call	0x2b2a	; 0x2b2a <__udivmodsi4>
    2c0e:	ef 91       	pop	r30
    2c10:	ff 91       	pop	r31
    2c12:	60 5d       	subi	r22, 0xD0	; 208
    2c14:	6a 33       	cpi	r22, 0x3A	; 58
    2c16:	0c f0       	brlt	.+2      	; 0x2c1a <ltoa+0x46>
    2c18:	69 5d       	subi	r22, 0xD9	; 217
    2c1a:	61 93       	st	Z+, r22
    2c1c:	b9 01       	movw	r22, r18
    2c1e:	ca 01       	movw	r24, r20
    2c20:	60 50       	subi	r22, 0x00	; 0
    2c22:	70 40       	sbci	r23, 0x00	; 0
    2c24:	80 40       	sbci	r24, 0x00	; 0
    2c26:	90 40       	sbci	r25, 0x00	; 0
    2c28:	51 f7       	brne	.-44     	; 0x2bfe <ltoa+0x2a>
    2c2a:	16 f4       	brtc	.+4      	; 0x2c30 <ltoa+0x5c>
    2c2c:	cd e2       	ldi	r28, 0x2D	; 45
    2c2e:	c1 93       	st	Z+, r28
    2c30:	10 82       	st	Z, r1
    2c32:	8f 91       	pop	r24
    2c34:	9f 91       	pop	r25
    2c36:	cf 91       	pop	r28
    2c38:	0c 94 33 16 	jmp	0x2c66	; 0x2c66 <strrev>

00002c3c <__mulsi_const_10>:
    2c3c:	59 2f       	mov	r21, r25
    2c3e:	48 2f       	mov	r20, r24
    2c40:	37 2f       	mov	r19, r23
    2c42:	26 2f       	mov	r18, r22
    2c44:	66 0f       	add	r22, r22
    2c46:	77 1f       	adc	r23, r23
    2c48:	88 1f       	adc	r24, r24
    2c4a:	99 1f       	adc	r25, r25
    2c4c:	66 0f       	add	r22, r22
    2c4e:	77 1f       	adc	r23, r23
    2c50:	88 1f       	adc	r24, r24
    2c52:	99 1f       	adc	r25, r25
    2c54:	62 0f       	add	r22, r18
    2c56:	73 1f       	adc	r23, r19
    2c58:	84 1f       	adc	r24, r20
    2c5a:	95 1f       	adc	r25, r21
    2c5c:	66 0f       	add	r22, r22
    2c5e:	77 1f       	adc	r23, r23
    2c60:	88 1f       	adc	r24, r24
    2c62:	99 1f       	adc	r25, r25
    2c64:	08 95       	ret

00002c66 <strrev>:
    2c66:	dc 01       	movw	r26, r24
    2c68:	fc 01       	movw	r30, r24
    2c6a:	67 2f       	mov	r22, r23
    2c6c:	71 91       	ld	r23, Z+
    2c6e:	77 23       	and	r23, r23
    2c70:	e1 f7       	brne	.-8      	; 0x2c6a <strrev+0x4>
    2c72:	32 97       	sbiw	r30, 0x02	; 2
    2c74:	04 c0       	rjmp	.+8      	; 0x2c7e <strrev+0x18>
    2c76:	7c 91       	ld	r23, X
    2c78:	6d 93       	st	X+, r22
    2c7a:	70 83       	st	Z, r23
    2c7c:	62 91       	ld	r22, -Z
    2c7e:	ae 17       	cp	r26, r30
    2c80:	bf 07       	cpc	r27, r31
    2c82:	c8 f3       	brcs	.-14     	; 0x2c76 <strrev+0x10>
    2c84:	08 95       	ret

00002c86 <_exit>:
    2c86:	f8 94       	cli

00002c88 <__stop_program>:
    2c88:	ff cf       	rjmp	.-2      	; 0x2c88 <__stop_program>
